	.file	"hosal_dac.c"
	.option nopic
	.attribute arch, "rv32i2p0_m2p0_f2p0_c2p0"
	.attribute unaligned_access, 0
	.attribute stack_align, 16
	.text
.Ltext0:
	.cfi_sections	.debug_frame
	.section	.rodata.dac_dma_irq_handler.str1.4,"aMS",@progbits,1
	.align	2
.LC7:
	.string	"hosal_dac.c"
	.align	2
.LC8:
	.string	"\033[31mERROR"
	.align	2
.LC9:
	.string	"%s (%d)[%s:%4d] dma tran error!\r\n\033[0m\r\n"
	.section	.text.dac_dma_irq_handler,"ax",@progbits
	.align	1
	.globl	dac_dma_irq_handler
	.type	dac_dma_irq_handler, @function
dac_dma_irq_handler:
.LFB13:
	.file 1 "/home/anh/Desktop/wb2/Ai-Thinker-WB2/components/platform/hosal/bl602_hal/hosal_dac.c"
	.loc 1 189 1
	.cfi_startproc
.LVL0:
	.loc 1 190 5
	.loc 1 192 5
	.loc 1 194 5
	.loc 1 189 1 is_stmt 0
	addi	sp,sp,-16
	.cfi_def_cfa_offset 16
	sw	s0,8(sp)
	sw	ra,12(sp)
	.cfi_offset 8, -8
	.cfi_offset 1, -4
	.loc 1 189 1
	mv	s0,a0
	.loc 1 194 8
	bne	a1,zero,.L2
	.loc 1 195 9 is_stmt 1
	.loc 1 195 16 is_stmt 0
	lw	a5,16(a0)
	.loc 1 195 12
	beq	a5,zero,.L3
	.loc 1 196 13 is_stmt 1
	lw	a0,24(a0)
.LVL1:
	jalr	a5
.LVL2:
.L3:
	.loc 1 199 352 discriminator 11
	.loc 1 199 363 discriminator 11
	.loc 1 202 5 discriminator 11
	.loc 1 202 19 is_stmt 0 discriminator 11
	lw	a0,28(s0)
	.loc 1 202 8 discriminator 11
	beq	a0,zero,.L1
	.loc 1 203 9 is_stmt 1
	call	vPortFree
.LVL3:
	.loc 1 204 9
	.loc 1 204 19 is_stmt 0
	sw	zero,28(s0)
.L1:
	.loc 1 206 1
	lw	ra,12(sp)
	.cfi_remember_state
	.cfi_restore 1
	lw	s0,8(sp)
	.cfi_restore 8
.LVL4:
	addi	sp,sp,16
	.cfi_def_cfa_offset 0
	jr	ra
.LVL5:
.L2:
	.cfi_restore_state
	.loc 1 198 12 is_stmt 1
	.loc 1 198 15 is_stmt 0
	li	a5,1
	bne	a1,a5,.L3
	.loc 1 199 9 is_stmt 1 discriminator 1
	.loc 1 199 47 discriminator 1
	.loc 1 199 52 discriminator 1
	.loc 1 199 74 is_stmt 0 discriminator 1
	lui	a5,%hi(_fsymc_level_hosal)
	.loc 1 199 55 discriminator 1
	lw	a4,%lo(_fsymc_level_hosal)(a5)
	li	a5,4
	bgtu	a4,a5,.L3
	.loc 1 199 118 discriminator 3
	lui	a4,%hi(_fsymf_level_hosalhosal_dac)
	.loc 1 199 97 discriminator 3
	lw	a4,%lo(_fsymf_level_hosalhosal_dac)(a4)
	bgtu	a4,a5,.L3
	.loc 1 199 153 is_stmt 1 discriminator 5
	.loc 1 199 239 is_stmt 0 discriminator 5
	call	xPortIsInsideInterrupt
.LVL6:
	.loc 1 199 153 discriminator 5
	beq	a0,zero,.L4
	.loc 1 199 268 discriminator 7
	call	xTaskGetTickCountFromISR
.LVL7:
.L14:
	.loc 1 199 299 discriminator 8
	mv	a2,a0
	.loc 1 199 153 discriminator 8
	lui	a3,%hi(.LC7)
	lui	a1,%hi(.LC8)
	lui	a0,%hi(.LC9)
	li	a4,199
	addi	a3,a3,%lo(.LC7)
	addi	a1,a1,%lo(.LC8)
	addi	a0,a0,%lo(.LC9)
	call	bl_printk
.LVL8:
	j	.L3
.L4:
	.loc 1 199 299 discriminator 8
	call	xTaskGetTickCount
.LVL9:
	j	.L14
	.cfi_endproc
.LFE13:
	.size	dac_dma_irq_handler, .-dac_dma_irq_handler
	.section	.rodata.hosal_dac_init.str1.4,"aMS",@progbits,1
	.align	2
.LC10:
	.string	"%s (%d)[%s:%4d] parameter is error!\r\n\033[0m\r\n"
	.align	2
.LC11:
	.string	"%s (%d)[%s:%4d] not support this freq!\r\n\033[0m\r\n"
	.section	.text.hosal_dac_init,"ax",@progbits
	.align	1
	.globl	hosal_dac_init
	.type	hosal_dac_init, @function
hosal_dac_init:
.LFB8:
	.loc 1 25 1 is_stmt 1
	.cfi_startproc
.LVL10:
	.loc 1 26 5
	.loc 1 28 5
	.loc 1 28 23 is_stmt 0
	lui	a5,%hi(.LC0)
	addi	a5,a5,%lo(.LC0)
	lw	a4,0(a5)
	lhu	a5,4(a5)
	.loc 1 25 1
	addi	sp,sp,-48
	.cfi_def_cfa_offset 48
	.loc 1 37 27
	lui	a1,%hi(.LANCHOR0)
	.loc 1 25 1
	sw	s0,40(sp)
	.loc 1 37 27
	li	a2,24
	.cfi_offset 8, -8
	.loc 1 25 1
	mv	s0,a0
	.loc 1 37 27
	addi	a1,a1,%lo(.LANCHOR0)
	addi	a0,sp,8
.LVL11:
	.loc 1 25 1
	sw	ra,44(sp)
	.cfi_offset 1, -4
	.loc 1 28 23
	sw	a4,0(sp)
	sh	a5,4(sp)
	.loc 1 37 5 is_stmt 1
	.loc 1 37 27 is_stmt 0
	call	memcpy
.LVL12:
	.loc 1 46 5 is_stmt 1
	.loc 1 46 8 is_stmt 0
	beq	s0,zero,.L16
	.loc 1 46 20 discriminator 1
	lbu	a5,0(s0)
	beq	a5,zero,.L17
.L16:
	.loc 1 47 9 is_stmt 1 discriminator 1
	.loc 1 47 47 discriminator 1
	.loc 1 47 52 discriminator 1
	.loc 1 47 74 is_stmt 0 discriminator 1
	lui	a5,%hi(_fsymc_level_hosal)
	.loc 1 47 55 discriminator 1
	lw	a4,%lo(_fsymc_level_hosal)(a5)
	li	a5,4
	bleu	a4,a5,.L18
.L38:
	.loc 1 77 16 discriminator 10
	li	a0,-1
.L15:
	.loc 1 87 1
	lw	ra,44(sp)
	.cfi_remember_state
	.cfi_restore 1
	lw	s0,40(sp)
	.cfi_restore 8
.LVL13:
	addi	sp,sp,48
	.cfi_def_cfa_offset 0
	jr	ra
.LVL14:
.L18:
	.cfi_restore_state
	.loc 1 47 118 discriminator 3
	lui	a4,%hi(_fsymf_level_hosalhosal_dac)
	.loc 1 47 97 discriminator 3
	lw	a4,%lo(_fsymf_level_hosalhosal_dac)(a4)
	bgtu	a4,a5,.L38
	.loc 1 47 153 is_stmt 1 discriminator 5
	.loc 1 47 243 is_stmt 0 discriminator 5
	call	xPortIsInsideInterrupt
.LVL15:
	.loc 1 47 153 discriminator 5
	beq	a0,zero,.L21
	.loc 1 47 272 discriminator 7
	call	xTaskGetTickCountFromISR
.LVL16:
.L34:
	.loc 1 47 303 discriminator 8
	mv	a2,a0
	.loc 1 47 153 discriminator 8
	lui	a3,%hi(.LC7)
	lui	a1,%hi(.LC8)
	lui	a0,%hi(.LC10)
	li	a4,47
	addi	a3,a3,%lo(.LC7)
	addi	a1,a1,%lo(.LC8)
	addi	a0,a0,%lo(.LC10)
.L37:
	.loc 1 76 153 discriminator 10
	call	bl_printk
.LVL17:
	j	.L38
.L21:
	.loc 1 47 303 discriminator 8
	call	xTaskGetTickCount
.LVL18:
	j	.L34
.L17:
	.loc 1 51 5 is_stmt 1
	.loc 1 51 19 is_stmt 0
	li	a5,-1
	sw	a5,20(s0)
	.loc 1 52 5 is_stmt 1
	.loc 1 62 8 is_stmt 0
	lbu	a5,8(s0)
	.loc 1 52 15
	sw	zero,28(s0)
	.loc 1 53 5 is_stmt 1
	.loc 1 53 13 is_stmt 0
	sw	zero,16(s0)
	.loc 1 54 5 is_stmt 1
	.loc 1 54 14 is_stmt 0
	sw	zero,24(s0)
	.loc 1 56 5 is_stmt 1
.LVL19:
	.loc 1 58 5
	.loc 1 62 5
	.loc 1 62 8 is_stmt 0
	li	a4,14
	bne	a5,a4,.L23
	.loc 1 63 9 is_stmt 1
	.loc 1 63 26 is_stmt 0
	sb	a5,0(sp)
	.loc 1 64 9 is_stmt 1
.L23:
	.loc 1 67 5
	.loc 1 67 28 is_stmt 0
	lw	a5,12(s0)
	.loc 1 67 8
	li	a4,8192
	addi	a4,a4,-192
	bne	a5,a4,.L24
	.loc 1 68 9 is_stmt 1
	.loc 1 68 21 is_stmt 0
	li	a5,3
.L36:
	.loc 1 70 21
	sw	a5,20(sp)
.L25:
	.loc 1 80 5 is_stmt 1
	.loc 1 80 32 is_stmt 0
	lbu	a5,4(s0)
	.loc 1 82 5
	mv	a0,sp
	.loc 1 80 32
	sw	a5,24(sp)
	.loc 1 82 5 is_stmt 1
	call	GLB_GPIO_Init
.LVL20:
	.loc 1 83 5
	addi	a0,sp,8
	call	GLB_GPIP_DAC_Init
.LVL21:
	.loc 1 84 5
	li	a2,64
	li	a1,0
	li	a0,1
	call	GLB_Set_DAC_CLK
.LVL22:
	.loc 1 86 5
	.loc 1 86 12 is_stmt 0
	li	a0,0
	j	.L15
.LVL23:
.L24:
	.loc 1 69 12 is_stmt 1
	.loc 1 69 15 is_stmt 0
	li	a4,16384
	addi	a4,a4,-384
	bne	a5,a4,.L26
	.loc 1 70 9 is_stmt 1
	.loc 1 70 21 is_stmt 0
	li	a5,1
	j	.L36
.L26:
	.loc 1 71 12 is_stmt 1
	.loc 1 71 15 is_stmt 0
	li	a4,32768
	addi	a4,a4,-768
	beq	a5,a4,.L25
	.loc 1 73 12 is_stmt 1
	.loc 1 73 15 is_stmt 0
	li	a4,512000
	bne	a5,a4,.L27
	.loc 1 74 9 is_stmt 1
	.loc 1 74 21 is_stmt 0
	li	a5,4
	j	.L36
.L27:
	.loc 1 76 9 is_stmt 1 discriminator 1
	.loc 1 76 47 discriminator 1
	.loc 1 76 52 discriminator 1
	.loc 1 76 74 is_stmt 0 discriminator 1
	lui	a5,%hi(_fsymc_level_hosal)
	.loc 1 76 55 discriminator 1
	lw	a4,%lo(_fsymc_level_hosal)(a5)
	li	a5,4
	bgtu	a4,a5,.L38
	.loc 1 76 118 discriminator 3
	lui	a4,%hi(_fsymf_level_hosalhosal_dac)
	.loc 1 76 97 discriminator 3
	lw	a4,%lo(_fsymf_level_hosalhosal_dac)(a4)
	bgtu	a4,a5,.L38
	.loc 1 76 153 is_stmt 1 discriminator 5
	.loc 1 76 246 is_stmt 0 discriminator 5
	call	xPortIsInsideInterrupt
.LVL24:
	.loc 1 76 153 discriminator 5
	beq	a0,zero,.L28
	.loc 1 76 275 discriminator 7
	call	xTaskGetTickCountFromISR
.LVL25:
.L35:
	.loc 1 76 306 discriminator 8
	mv	a2,a0
	.loc 1 76 153 discriminator 8
	lui	a3,%hi(.LC7)
	lui	a1,%hi(.LC8)
	lui	a0,%hi(.LC11)
	li	a4,76
	addi	a3,a3,%lo(.LC7)
	addi	a1,a1,%lo(.LC8)
	addi	a0,a0,%lo(.LC11)
	j	.L37
.L28:
	.loc 1 76 306 discriminator 8
	call	xTaskGetTickCount
.LVL26:
	j	.L35
	.cfi_endproc
.LFE8:
	.size	hosal_dac_init, .-hosal_dac_init
	.section	.text.hosal_dac_start,"ax",@progbits
	.align	1
	.globl	hosal_dac_start
	.type	hosal_dac_start, @function
hosal_dac_start:
.LFB9:
	.loc 1 90 1 is_stmt 1
	.cfi_startproc
.LVL27:
	.loc 1 91 5
	.loc 1 90 1 is_stmt 0
	addi	sp,sp,-48
	.cfi_def_cfa_offset 48
	sw	s1,36(sp)
	.cfi_offset 9, -12
	.loc 1 91 33
	lui	s1,%hi(.LANCHOR0)
	addi	s1,s1,%lo(.LANCHOR0)
	.loc 1 90 1
	sw	s0,40(sp)
	.loc 1 91 33
	li	a2,16
	.cfi_offset 8, -8
	.loc 1 90 1
	mv	s0,a0
	.loc 1 91 33
	addi	a1,s1,24
	mv	a0,sp
.LVL28:
	.loc 1 90 1
	sw	ra,44(sp)
	.cfi_offset 1, -4
	.loc 1 91 33
	call	memcpy
.LVL29:
	.loc 1 98 5 is_stmt 1
	.loc 1 98 33 is_stmt 0
	li	a2,16
	addi	a1,s1,40
	addi	a0,sp,16
	call	memcpy
.LVL30:
	.loc 1 105 5 is_stmt 1
	.loc 1 105 8 is_stmt 0
	beq	s0,zero,.L40
	.loc 1 105 20 discriminator 1
	lbu	a5,0(s0)
	beq	a5,zero,.L41
.L40:
	.loc 1 106 9 is_stmt 1 discriminator 1
	.loc 1 106 47 discriminator 1
	.loc 1 106 52 discriminator 1
	.loc 1 106 74 is_stmt 0 discriminator 1
	lui	a5,%hi(_fsymc_level_hosal)
	.loc 1 106 55 discriminator 1
	lw	a4,%lo(_fsymc_level_hosal)(a5)
	li	a5,4
	.loc 1 107 16 discriminator 1
	li	a0,-1
	.loc 1 106 55 discriminator 1
	bgtu	a4,a5,.L39
	.loc 1 106 118 discriminator 3
	lui	a4,%hi(_fsymf_level_hosalhosal_dac)
	.loc 1 106 97 discriminator 3
	lw	a4,%lo(_fsymf_level_hosalhosal_dac)(a4)
	bgtu	a4,a5,.L39
	.loc 1 106 153 is_stmt 1 discriminator 5
	.loc 1 106 243 is_stmt 0 discriminator 5
	call	xPortIsInsideInterrupt
.LVL31:
	.loc 1 106 153 discriminator 5
	beq	a0,zero,.L43
	.loc 1 106 272 discriminator 7
	call	xTaskGetTickCountFromISR
.LVL32:
.L53:
	.loc 1 106 303 discriminator 8
	mv	a2,a0
	.loc 1 106 153 discriminator 8
	lui	a3,%hi(.LC7)
	lui	a1,%hi(.LC8)
	lui	a0,%hi(.LC10)
	addi	a0,a0,%lo(.LC10)
	li	a4,106
	addi	a3,a3,%lo(.LC7)
	addi	a1,a1,%lo(.LC8)
	call	bl_printk
.LVL33:
	.loc 1 107 16 discriminator 8
	li	a0,-1
.L39:
	.loc 1 121 1
	lw	ra,44(sp)
	.cfi_remember_state
	.cfi_restore 1
	lw	s0,40(sp)
	.cfi_restore 8
.LVL34:
	lw	s1,36(sp)
	.cfi_restore 9
	addi	sp,sp,48
	.cfi_def_cfa_offset 0
	jr	ra
.LVL35:
.L43:
	.cfi_restore_state
	.loc 1 106 303 discriminator 8
	call	xTaskGetTickCount
.LVL36:
	j	.L53
.L41:
	.loc 1 110 5 is_stmt 1
	.loc 1 110 39 is_stmt 0
	lw	a5,8(s0)
	.loc 1 110 8
	li	a4,13
	bne	a5,a4,.L45
	.loc 1 111 9 is_stmt 1
	li	a0,0
	call	GPIP_Set_DAC_ChanA_SRC_SEL
.LVL37:
.L46:
	.loc 1 115 6
	.loc 1 117 5
	mv	a0,sp
	call	GLB_GPIP_DAC_Set_ChanA_Config
.LVL38:
	.loc 1 118 5
	addi	a0,sp,16
	call	GLB_GPIP_DAC_Set_ChanB_Config
.LVL39:
	.loc 1 120 5
	.loc 1 120 12 is_stmt 0
	li	a0,0
	j	.L39
.L45:
	.loc 1 112 12 is_stmt 1
	.loc 1 112 15 is_stmt 0
	li	a4,14
	bne	a5,a4,.L46
	.loc 1 113 9 is_stmt 1
	li	a0,0
	call	GPIP_Set_DAC_ChanB_SRC_SEL
.LVL40:
	j	.L46
	.cfi_endproc
.LFE9:
	.size	hosal_dac_start, .-hosal_dac_start
	.section	.text.hosal_dac_set_value,"ax",@progbits
	.align	1
	.globl	hosal_dac_set_value
	.type	hosal_dac_set_value, @function
hosal_dac_set_value:
.LFB10:
	.loc 1 124 1
	.cfi_startproc
.LVL41:
	.loc 1 125 5
	.loc 1 126 5
	.loc 1 128 5
	.loc 1 124 1 is_stmt 0
	addi	sp,sp,-16
	.cfi_def_cfa_offset 16
	sw	ra,12(sp)
	sw	s0,8(sp)
	.cfi_offset 1, -4
	.cfi_offset 8, -8
	.loc 1 128 8
	beq	a0,zero,.L55
	.loc 1 128 20 discriminator 1
	lbu	a5,0(a0)
	bne	a5,zero,.L55
	.loc 1 128 56 discriminator 3
	li	a5,-200704
	addi	a5,a5,704
	li	a4,1601536
	add	a5,a1,a5
	addi	a4,a4,-1536
	bleu	a5,a4,.L56
.L55:
	.loc 1 129 9 is_stmt 1 discriminator 1
	.loc 1 129 47 discriminator 1
	.loc 1 129 52 discriminator 1
	.loc 1 129 74 is_stmt 0 discriminator 1
	lui	a5,%hi(_fsymc_level_hosal)
	.loc 1 129 55 discriminator 1
	lw	a4,%lo(_fsymc_level_hosal)(a5)
	li	a5,4
	.loc 1 130 16 discriminator 1
	li	s0,-1
	.loc 1 129 55 discriminator 1
	bgtu	a4,a5,.L54
	.loc 1 129 118 discriminator 3
	lui	a4,%hi(_fsymf_level_hosalhosal_dac)
	.loc 1 129 97 discriminator 3
	lw	a4,%lo(_fsymf_level_hosalhosal_dac)(a4)
	bgtu	a4,a5,.L54
	.loc 1 129 153 is_stmt 1 discriminator 5
	.loc 1 129 243 is_stmt 0 discriminator 5
	call	xPortIsInsideInterrupt
.LVL42:
	.loc 1 129 153 discriminator 5
	beq	a0,zero,.L58
	.loc 1 129 272 discriminator 7
	call	xTaskGetTickCountFromISR
.LVL43:
.L68:
	.loc 1 129 303 discriminator 8
	mv	a2,a0
	.loc 1 129 153 discriminator 8
	lui	a3,%hi(.LC7)
	lui	a1,%hi(.LC8)
	lui	a0,%hi(.LC10)
	li	a4,129
	addi	a3,a3,%lo(.LC7)
	addi	a1,a1,%lo(.LC8)
	addi	a0,a0,%lo(.LC10)
	call	bl_printk
.LVL44:
	.loc 1 130 16 discriminator 8
	li	s0,-1
.L54:
	.loc 1 147 1
	lw	ra,12(sp)
	.cfi_remember_state
	.cfi_restore 1
	mv	a0,s0
	lw	s0,8(sp)
	.cfi_restore 8
	addi	sp,sp,16
	.cfi_def_cfa_offset 0
	jr	ra
.L58:
	.cfi_restore_state
	.loc 1 129 303 discriminator 8
	call	xTaskGetTickCount
.LVL45:
	j	.L68
.LVL46:
.L56:
	.loc 1 133 5 is_stmt 1
	.loc 1 134 5
	.loc 1 136 5
	.loc 1 136 34 is_stmt 0
	lui	a5,%hi(.LC12)
	flw	fa3,%lo(.LC12)(a5)
	lui	a5,%hi(.LC13)
	flw	fa4,%lo(.LC13)(a5)
	.loc 1 136 30
	fcvt.s.w	fa5,a1
	.loc 1 139 39
	lw	a4,8(a0)
	.loc 1 139 8
	li	a3,13
	.loc 1 136 34
	fmadd.s	fa5,fa5,fa3,fa4
	.loc 1 136 12
	fcvt.wu.s a5,fa5,rtz
.LVL47:
	.loc 1 139 5 is_stmt 1
	.loc 1 139 8 is_stmt 0
	bne	a4,a3,.L60
	.loc 1 140 9 is_stmt 1
	slli	a0,a5,16
.LVL48:
	srli	a0,a0,16
	call	GLB_DAC_Set_ChanA_Value
.LVL49:
	.loc 1 146 12 is_stmt 0
	li	s0,0
	j	.L54
.LVL50:
.L60:
	.loc 1 141 12 is_stmt 1
	.loc 1 141 15 is_stmt 0
	li	a3,14
	.loc 1 146 12
	li	s0,0
	.loc 1 141 15
	bne	a4,a3,.L54
	.loc 1 142 9 is_stmt 1
	slli	a0,a5,16
.LVL51:
	srli	a0,a0,16
	call	GLB_DAC_Set_ChanB_Value
.LVL52:
	j	.L54
	.cfi_endproc
.LFE10:
	.size	hosal_dac_set_value, .-hosal_dac_set_value
	.section	.text.hosal_dac_get_value,"ax",@progbits
	.align	1
	.globl	hosal_dac_get_value
	.type	hosal_dac_get_value, @function
hosal_dac_get_value:
.LFB11:
	.loc 1 150 1
	.cfi_startproc
.LVL53:
	.loc 1 151 5
	.loc 1 152 5
	.loc 1 154 5
	.loc 1 154 8 is_stmt 0
	beq	a0,zero,.L70
	.loc 1 154 20 discriminator 1
	lbu	a5,0(a0)
	beq	a5,zero,.L71
.L70:
	.loc 1 155 9 is_stmt 1 discriminator 1
	.loc 1 155 47 discriminator 1
	.loc 1 155 52 discriminator 1
	.loc 1 155 74 is_stmt 0 discriminator 1
	lui	a5,%hi(_fsymc_level_hosal)
	.loc 1 155 55 discriminator 1
	lw	a4,%lo(_fsymc_level_hosal)(a5)
	li	a5,4
	.loc 1 156 16 discriminator 1
	li	a0,-1
.LVL54:
	.loc 1 155 55 discriminator 1
	bgtu	a4,a5,.L83
	.loc 1 155 118 discriminator 3
	lui	a4,%hi(_fsymf_level_hosalhosal_dac)
	.loc 1 155 97 discriminator 3
	lw	a4,%lo(_fsymf_level_hosalhosal_dac)(a4)
	bgtu	a4,a5,.L83
	.loc 1 155 153 is_stmt 1 discriminator 5
	.loc 1 150 1 is_stmt 0 discriminator 5
	addi	sp,sp,-16
	.cfi_def_cfa_offset 16
	sw	ra,12(sp)
	.cfi_offset 1, -4
	.loc 1 155 243 discriminator 5
	call	xPortIsInsideInterrupt
.LVL55:
	.loc 1 155 153 discriminator 5
	beq	a0,zero,.L73
	.loc 1 155 272 discriminator 7
	call	xTaskGetTickCountFromISR
.LVL56:
.L86:
	.loc 1 155 303 discriminator 8
	mv	a2,a0
	.loc 1 155 153 discriminator 8
	lui	a3,%hi(.LC7)
	lui	a1,%hi(.LC8)
	lui	a0,%hi(.LC10)
	addi	a0,a0,%lo(.LC10)
	li	a4,155
	addi	a3,a3,%lo(.LC7)
	addi	a1,a1,%lo(.LC8)
	call	bl_printk
.LVL57:
	.loc 1 173 1 discriminator 8
	lw	ra,12(sp)
	.cfi_remember_state
	.cfi_restore 1
	.loc 1 156 16 discriminator 8
	li	a0,-1
	.loc 1 173 1 discriminator 8
	addi	sp,sp,16
	.cfi_def_cfa_offset 0
	jr	ra
.L73:
	.cfi_restore_state
	.loc 1 155 303 discriminator 8
	call	xTaskGetTickCount
.LVL58:
	j	.L86
.LVL59:
.L71:
	.cfi_def_cfa_offset 0
	.cfi_restore 1
	.loc 1 159 5 is_stmt 1
	.loc 1 159 16 is_stmt 0
	li	a5,1073741824
	.loc 1 161 39
	lw	a4,8(a0)
	.loc 1 159 16
	lw	a5,788(a5)
.LVL60:
	.loc 1 161 5 is_stmt 1
	.loc 1 161 8 is_stmt 0
	li	a3,13
	bne	a4,a3,.L75
	.loc 1 162 9 is_stmt 1
	.loc 1 162 66 is_stmt 0
	srli	a5,a5,16
.LVL61:
.L87:
	.loc 1 164 9 is_stmt 1
	.loc 1 164 17 is_stmt 0
	andi	a5,a5,1023
.LVL62:
	j	.L76
.L75:
	.loc 1 163 12 is_stmt 1
	.loc 1 163 15 is_stmt 0
	li	a3,14
	beq	a4,a3,.L87
.L76:
	.loc 1 166 6 is_stmt 1
	.loc 1 168 5
.LVL63:
	.loc 1 169 5
	.loc 1 170 5
	.loc 1 170 20 is_stmt 0
	fcvt.s.w	fa5,a5
	.loc 1 170 30
	lui	a5,%hi(.LC14)
.LVL64:
	flw	fa3,%lo(.LC14)(a5)
	lui	a5,%hi(.LC15)
	flw	fa4,%lo(.LC15)(a5)
	fmadd.s	fa5,fa5,fa3,fa4
	.loc 1 170 10
	fcvt.w.s a0,fa5,rtz
.LVL65:
	.loc 1 172 5 is_stmt 1
	.loc 1 172 12 is_stmt 0
	ret
.LVL66:
.L83:
	.loc 1 173 1
	ret
	.cfi_endproc
.LFE11:
	.size	hosal_dac_get_value, .-hosal_dac_get_value
	.section	.text.hosal_dac_stop,"ax",@progbits
	.align	1
	.globl	hosal_dac_stop
	.type	hosal_dac_stop, @function
hosal_dac_stop:
.LFB12:
	.loc 1 176 1 is_stmt 1
	.cfi_startproc
.LVL67:
	.loc 1 177 5
	.loc 1 176 1 is_stmt 0
	addi	sp,sp,-16
	.cfi_def_cfa_offset 16
	sw	ra,12(sp)
	.cfi_offset 1, -4
	.loc 1 177 8
	beq	a0,zero,.L89
	.loc 1 177 20 discriminator 1
	lbu	a5,0(a0)
	beq	a5,zero,.L90
.L89:
	.loc 1 178 9 is_stmt 1 discriminator 1
	.loc 1 178 47 discriminator 1
	.loc 1 178 52 discriminator 1
	.loc 1 178 74 is_stmt 0 discriminator 1
	lui	a5,%hi(_fsymc_level_hosal)
	.loc 1 178 55 discriminator 1
	lw	a4,%lo(_fsymc_level_hosal)(a5)
	li	a5,4
	.loc 1 179 16 discriminator 1
	li	a0,-1
.LVL68:
	.loc 1 178 55 discriminator 1
	bgtu	a4,a5,.L88
	.loc 1 178 118 discriminator 3
	lui	a4,%hi(_fsymf_level_hosalhosal_dac)
	.loc 1 178 97 discriminator 3
	lw	a4,%lo(_fsymf_level_hosalhosal_dac)(a4)
	bgtu	a4,a5,.L88
	.loc 1 178 153 is_stmt 1 discriminator 5
	.loc 1 178 243 is_stmt 0 discriminator 5
	call	xPortIsInsideInterrupt
.LVL69:
	.loc 1 178 153 discriminator 5
	beq	a0,zero,.L92
	.loc 1 178 272 discriminator 7
	call	xTaskGetTickCountFromISR
.LVL70:
.L100:
	.loc 1 178 303 discriminator 8
	mv	a2,a0
	.loc 1 178 153 discriminator 8
	lui	a3,%hi(.LC7)
	lui	a1,%hi(.LC8)
	lui	a0,%hi(.LC10)
	addi	a0,a0,%lo(.LC10)
	li	a4,178
	addi	a3,a3,%lo(.LC7)
	addi	a1,a1,%lo(.LC8)
	call	bl_printk
.LVL71:
	.loc 1 179 16 discriminator 8
	li	a0,-1
.L88:
	.loc 1 186 1
	lw	ra,12(sp)
	.cfi_remember_state
	.cfi_restore 1
	addi	sp,sp,16
	.cfi_def_cfa_offset 0
	jr	ra
.L92:
	.cfi_restore_state
	.loc 1 178 303 discriminator 8
	call	xTaskGetTickCount
.LVL72:
	j	.L100
.LVL73:
.L90:
	.loc 1 182 5 is_stmt 1
	call	GPIP_DAC_ChanA_Disable
.LVL74:
	.loc 1 183 5
	call	GPIP_DAC_ChanB_Disable
.LVL75:
	.loc 1 185 5
	.loc 1 185 12 is_stmt 0
	li	a0,0
	j	.L88
	.cfi_endproc
.LFE12:
	.size	hosal_dac_stop, .-hosal_dac_stop
	.section	.text.hosal_dac_dma_cb_reg,"ax",@progbits
	.align	1
	.globl	hosal_dac_dma_cb_reg
	.type	hosal_dac_dma_cb_reg, @function
hosal_dac_dma_cb_reg:
.LFB14:
	.loc 1 209 1 is_stmt 1
	.cfi_startproc
.LVL76:
	.loc 1 210 5
	.loc 1 210 8 is_stmt 0
	bne	a0,zero,.L102
	.loc 1 211 9 is_stmt 1 discriminator 1
	.loc 1 211 47 discriminator 1
	.loc 1 211 52 discriminator 1
	.loc 1 211 74 is_stmt 0 discriminator 1
	lui	a5,%hi(_fsymc_level_hosal)
	.loc 1 211 55 discriminator 1
	lw	a4,%lo(_fsymc_level_hosal)(a5)
	li	a5,4
	.loc 1 212 16 discriminator 1
	li	a0,-1
.LVL77:
	.loc 1 211 55 discriminator 1
	bgtu	a4,a5,.L109
	.loc 1 211 118 discriminator 3
	lui	a4,%hi(_fsymf_level_hosalhosal_dac)
	.loc 1 211 97 discriminator 3
	lw	a4,%lo(_fsymf_level_hosalhosal_dac)(a4)
	bgtu	a4,a5,.L109
	.loc 1 211 153 is_stmt 1 discriminator 5
	.loc 1 209 1 is_stmt 0 discriminator 5
	addi	sp,sp,-16
	.cfi_def_cfa_offset 16
	sw	ra,12(sp)
	.cfi_offset 1, -4
	.loc 1 211 243 discriminator 5
	call	xPortIsInsideInterrupt
.LVL78:
	.loc 1 211 153 discriminator 5
	beq	a0,zero,.L104
	.loc 1 211 272 discriminator 7
	call	xTaskGetTickCountFromISR
.LVL79:
.L112:
	.loc 1 211 303 discriminator 8
	mv	a2,a0
	.loc 1 211 153 discriminator 8
	lui	a3,%hi(.LC7)
	lui	a1,%hi(.LC8)
	lui	a0,%hi(.LC10)
	addi	a0,a0,%lo(.LC10)
	li	a4,211
	addi	a3,a3,%lo(.LC7)
	addi	a1,a1,%lo(.LC8)
	call	bl_printk
.LVL80:
	.loc 1 219 1 discriminator 8
	lw	ra,12(sp)
	.cfi_remember_state
	.cfi_restore 1
	.loc 1 212 16 discriminator 8
	li	a0,-1
	.loc 1 219 1 discriminator 8
	addi	sp,sp,16
	.cfi_def_cfa_offset 0
	jr	ra
.L104:
	.cfi_restore_state
	.loc 1 211 303 discriminator 8
	call	xTaskGetTickCount
.LVL81:
	j	.L112
.LVL82:
.L102:
	.cfi_def_cfa_offset 0
	.cfi_restore 1
	.loc 1 215 5 is_stmt 1
	.loc 1 215 13 is_stmt 0
	sw	a1,16(a0)
	.loc 1 216 5 is_stmt 1
	.loc 1 216 14 is_stmt 0
	sw	a2,24(a0)
	.loc 1 218 5 is_stmt 1
	.loc 1 218 12 is_stmt 0
	li	a0,0
.LVL83:
	ret
.L109:
	.loc 1 219 1
	ret
	.cfi_endproc
.LFE14:
	.size	hosal_dac_dma_cb_reg, .-hosal_dac_dma_cb_reg
	.section	.rodata.hosal_dac_dma_start.str1.4,"aMS",@progbits,1
	.align	2
.LC16:
	.string	"%s (%d)[%s:%4d] dma channel is error!\r\n\033[0m\r\n"
	.align	2
.LC17:
	.string	"%s (%d)[%s:%4d] malloc lli failed. \r\n\033[0m\r\n"
	.section	.text.hosal_dac_dma_start,"ax",@progbits
	.align	1
	.globl	hosal_dac_dma_start
	.type	hosal_dac_dma_start, @function
hosal_dac_dma_start:
.LFB15:
	.loc 1 222 1 is_stmt 1
	.cfi_startproc
.LVL84:
	.loc 1 223 5
	.loc 1 224 5
	.loc 1 225 5
	.loc 1 226 5
	.loc 1 227 5
	.loc 1 229 5
	.loc 1 222 1 is_stmt 0
	addi	sp,sp,-80
	.cfi_def_cfa_offset 80
	sw	s3,60(sp)
	.cfi_offset 19, -20
	.loc 1 229 33
	lui	s3,%hi(.LANCHOR0)
	addi	s3,s3,%lo(.LANCHOR0)
	.loc 1 222 1
	sw	s0,72(sp)
	sw	s1,68(sp)
	sw	s2,64(sp)
	.cfi_offset 8, -8
	.cfi_offset 9, -12
	.cfi_offset 18, -16
	mv	s0,a0
	mv	s2,a1
	mv	s1,a2
	.loc 1 229 33
	addi	a1,s3,56
.LVL85:
	li	a2,16
.LVL86:
	addi	a0,sp,16
.LVL87:
	.loc 1 222 1
	sw	ra,76(sp)
	sw	s4,56(sp)
	sw	s5,52(sp)
	.cfi_offset 1, -4
	.cfi_offset 20, -24
	.cfi_offset 21, -28
	.loc 1 229 33
	call	memcpy
.LVL88:
	.loc 1 236 5 is_stmt 1
	.loc 1 236 33 is_stmt 0
	li	a2,16
	addi	a1,s3,72
	addi	a0,sp,32
	call	memcpy
.LVL89:
	.loc 1 243 5 is_stmt 1
	.loc 1 243 22 is_stmt 0
	li	a5,1
	sw	a5,4(sp)
	li	a5,23
	sw	zero,8(sp)
	sw	a5,12(sp)
	.loc 1 249 5 is_stmt 1
	.loc 1 249 8 is_stmt 0
	beq	s0,zero,.L114
	.loc 1 249 20 discriminator 1
	beq	s2,zero,.L114
	.loc 1 249 36 discriminator 2
	beq	s1,zero,.L114
	.loc 1 249 48 discriminator 3
	lbu	a5,0(s0)
	beq	a5,zero,.L115
.L114:
	.loc 1 250 9 is_stmt 1 discriminator 1
	.loc 1 250 47 discriminator 1
	.loc 1 250 52 discriminator 1
	.loc 1 250 74 is_stmt 0 discriminator 1
	lui	a5,%hi(_fsymc_level_hosal)
	.loc 1 250 55 discriminator 1
	lw	a4,%lo(_fsymc_level_hosal)(a5)
	li	a5,4
	bleu	a4,a5,.L116
.LVL90:
.L159:
	.loc 1 287 16 discriminator 10
	li	a0,-1
.L113:
	.loc 1 337 1
	lw	ra,76(sp)
	.cfi_remember_state
	.cfi_restore 1
	lw	s0,72(sp)
	.cfi_restore 8
.LVL91:
	lw	s1,68(sp)
	.cfi_restore 9
	lw	s2,64(sp)
	.cfi_restore 18
.LVL92:
	lw	s3,60(sp)
	.cfi_restore 19
	lw	s4,56(sp)
	.cfi_restore 20
	lw	s5,52(sp)
	.cfi_restore 21
	addi	sp,sp,80
	.cfi_def_cfa_offset 0
	jr	ra
.LVL93:
.L116:
	.cfi_restore_state
	.loc 1 250 118 discriminator 3
	lui	a4,%hi(_fsymf_level_hosalhosal_dac)
	.loc 1 250 97 discriminator 3
	lw	a4,%lo(_fsymf_level_hosalhosal_dac)(a4)
	bgtu	a4,a5,.L159
	.loc 1 250 153 is_stmt 1 discriminator 5
	.loc 1 250 243 is_stmt 0 discriminator 5
	call	xPortIsInsideInterrupt
.LVL94:
	.loc 1 250 153 discriminator 5
	beq	a0,zero,.L119
	.loc 1 250 272 discriminator 7
	call	xTaskGetTickCountFromISR
.LVL95:
.L155:
	.loc 1 250 303 discriminator 8
	mv	a2,a0
	.loc 1 250 153 discriminator 8
	lui	a3,%hi(.LC7)
	lui	a1,%hi(.LC8)
	lui	a0,%hi(.LC10)
	li	a4,250
	addi	a3,a3,%lo(.LC7)
	addi	a1,a1,%lo(.LC8)
	addi	a0,a0,%lo(.LC10)
.LVL96:
.L158:
	.loc 1 286 153 discriminator 10
	call	bl_printk
.LVL97:
	j	.L159
.LVL98:
.L119:
	.loc 1 250 303 discriminator 8
	call	xTaskGetTickCount
.LVL99:
	j	.L155
.L115:
	.loc 1 254 5 is_stmt 1
	.loc 1 254 8 is_stmt 0
	lbu	a5,4(s0)
	beq	a5,zero,.L121
	.loc 1 254 32 discriminator 1
	lw	a5,20(s0)
	bge	a5,zero,.L121
	.loc 1 255 9 is_stmt 1
	.loc 1 255 25 is_stmt 0
	li	a0,0
	call	hosal_dma_chan_request
.LVL100:
	.loc 1 255 23
	sw	a0,20(s0)
	.loc 1 256 9 is_stmt 1
	.loc 1 256 12 is_stmt 0
	bge	a0,zero,.L121
	.loc 1 257 13 is_stmt 1 discriminator 1
	.loc 1 257 51 discriminator 1
	.loc 1 257 56 discriminator 1
	.loc 1 257 78 is_stmt 0 discriminator 1
	lui	a5,%hi(_fsymc_level_hosal)
	.loc 1 257 59 discriminator 1
	lw	a4,%lo(_fsymc_level_hosal)(a5)
	li	a5,4
	bgtu	a4,a5,.L159
	.loc 1 257 122 discriminator 3
	lui	a4,%hi(_fsymf_level_hosalhosal_dac)
	.loc 1 257 101 discriminator 3
	lw	a4,%lo(_fsymf_level_hosalhosal_dac)(a4)
	bgtu	a4,a5,.L159
	.loc 1 257 157 is_stmt 1 discriminator 5
	.loc 1 257 249 is_stmt 0 discriminator 5
	call	xPortIsInsideInterrupt
.LVL101:
	.loc 1 257 157 discriminator 5
	beq	a0,zero,.L122
	.loc 1 257 278 discriminator 7
	call	xTaskGetTickCountFromISR
.LVL102:
.L156:
	.loc 1 257 309 discriminator 8
	mv	a2,a0
	.loc 1 257 157 discriminator 8
	lui	a3,%hi(.LC7)
	lui	a1,%hi(.LC8)
	lui	a0,%hi(.LC16)
	li	a4,257
	addi	a3,a3,%lo(.LC7)
	addi	a1,a1,%lo(.LC8)
	addi	a0,a0,%lo(.LC16)
	j	.L158
.L122:
	.loc 1 257 309 discriminator 8
	call	xTaskGetTickCount
.LVL103:
	j	.L156
.L121:
	.loc 1 262 5 is_stmt 1
	lw	a0,20(s0)
	.loc 1 267 15 is_stmt 0
	andi	s3,s1,2047
	.loc 1 266 11
	srli	s5,s1,13
	.loc 1 262 5
	call	hosal_dma_chan_stop
.LVL104:
	.loc 1 263 5 is_stmt 1
	lw	a0,20(s0)
	lui	a1,%hi(dac_dma_irq_handler)
	mv	a2,s0
	addi	a1,a1,%lo(dac_dma_irq_handler)
	call	hosal_dma_irq_callback_set
.LVL105:
	.loc 1 266 5
	.loc 1 267 5
	.loc 1 269 5
	.loc 1 269 8 is_stmt 0
	beq	s3,zero,.L124
	.loc 1 270 9 is_stmt 1
	.loc 1 270 15 is_stmt 0
	addi	s5,s5,1
.LVL106:
.L124:
	.loc 1 273 5 is_stmt 1
	.loc 1 274 5
	.loc 1 275 5
	.loc 1 276 5
	.loc 1 277 5
	.loc 1 278 5
	.loc 1 280 5
	.loc 1 280 56 is_stmt 0
	slli	s1,s5,4
.LVL107:
	.loc 1 280 17
	mv	a0,s1
	call	pvPortMalloc
.LVL108:
	mv	s4,a0
.LVL109:
	.loc 1 281 5 is_stmt 1
	mv	a2,s1
	li	a1,0
	call	memset
.LVL110:
	.loc 1 283 5
	.loc 1 283 15 is_stmt 0
	sw	s4,28(s0)
	.loc 1 285 5 is_stmt 1
	.loc 1 285 8 is_stmt 0
	beq	s4,zero,.L125
	.loc 1 292 34
	li	a1,4096
	.loc 1 310 34
	li	a0,1073750016
	.loc 1 311 30
	li	a6,-33554432
	.loc 1 285 8
	mv	a4,s4
	.loc 1 290 12
	li	a3,0
	.loc 1 294 28
	addi	a7,s5,-1
	.loc 1 292 34
	addi	a1,a1,-2048
	.loc 1 295 38
	mv	t1,s3
	.loc 1 310 34
	addi	a0,a0,72
	.loc 1 311 30
	li	t3,71827456
	addi	a6,a6,-1
	li	t4,33554432
.LVL111:
.L126:
	.loc 1 290 17 is_stmt 1 discriminator 1
	.loc 1 290 5 is_stmt 0 discriminator 1
	bne	a3,s5,.L131
	.loc 1 317 5 is_stmt 1
	.loc 1 317 30 is_stmt 0
	add	s1,s4,s1
	sw	zero,-8(s1)
	.loc 1 319 5 is_stmt 1
	lbu	a0,20(s0)
	addi	a1,sp,4
	call	DMA_LLI_Init
.LVL112:
	.loc 1 321 5
	lw	a0,20(s0)
	call	hosal_dma_chan_start
.LVL113:
	.loc 1 322 5
	lbu	a0,20(s0)
	mv	a1,s4
	call	DMA_LLI_Update
.LVL114:
	.loc 1 324 5
	.loc 1 324 39 is_stmt 0
	lw	a5,8(s0)
	.loc 1 324 8
	li	a4,13
	bne	a5,a4,.L132
	.loc 1 326 9 is_stmt 1
	li	a0,1
	call	GPIP_Set_DAC_ChanA_SRC_SEL
.LVL115:
.L133:
	.loc 1 329 12
	.loc 1 331 5
	addi	a0,sp,16
	call	GLB_GPIP_DAC_Set_ChanA_Config
.LVL116:
	.loc 1 332 5
	addi	a0,sp,32
	call	GLB_GPIP_DAC_Set_ChanB_Config
.LVL117:
	.loc 1 333 5
	li	a0,0
	call	GPIP_Set_DAC_DMA_TX_FORMAT_SEL
.LVL118:
	.loc 1 334 5
	call	GPIP_Set_DAC_DMA_TX_Enable
.LVL119:
	.loc 1 336 5
	.loc 1 336 12 is_stmt 0
	li	a0,0
.LVL120:
	j	.L113
.LVL121:
.L125:
	.loc 1 286 9 is_stmt 1 discriminator 1
	.loc 1 286 47 discriminator 1
	.loc 1 286 52 discriminator 1
	.loc 1 286 74 is_stmt 0 discriminator 1
	lui	a5,%hi(_fsymc_level_hosal)
	.loc 1 286 55 discriminator 1
	lw	a4,%lo(_fsymc_level_hosal)(a5)
	li	a5,4
	bgtu	a4,a5,.L159
	.loc 1 286 118 discriminator 3
	lui	a4,%hi(_fsymf_level_hosalhosal_dac)
	.loc 1 286 97 discriminator 3
	lw	a4,%lo(_fsymf_level_hosalhosal_dac)(a4)
	bgtu	a4,a5,.L159
	.loc 1 286 153 is_stmt 1 discriminator 5
	.loc 1 286 243 is_stmt 0 discriminator 5
	call	xPortIsInsideInterrupt
.LVL122:
	.loc 1 286 153 discriminator 5
	beq	a0,zero,.L127
	.loc 1 286 272 discriminator 7
	call	xTaskGetTickCountFromISR
.LVL123:
.L157:
	.loc 1 286 303 discriminator 8
	mv	a2,a0
	.loc 1 286 153 discriminator 8
	lui	a3,%hi(.LC7)
	lui	a1,%hi(.LC8)
	lui	a0,%hi(.LC17)
	li	a4,286
	addi	a3,a3,%lo(.LC7)
	addi	a1,a1,%lo(.LC8)
	addi	a0,a0,%lo(.LC17)
	j	.L158
.L127:
	.loc 1 286 303 discriminator 8
	call	xTaskGetTickCount
.LVL124:
	j	.L157
.LVL125:
.L131:
	.loc 1 291 9 is_stmt 1
	.loc 1 292 34 is_stmt 0
	mv	a2,a1
	.loc 1 291 12
	beq	s3,zero,.L129
	.loc 1 294 13 is_stmt 1
	.loc 1 294 16 is_stmt 0
	bne	a3,a7,.L129
	.loc 1 295 17 is_stmt 1
	.loc 1 295 38 is_stmt 0
	mv	a2,t1
.LVL126:
.L129:
	.loc 1 301 9 is_stmt 1
	.loc 1 307 9
	.loc 1 308 9
	.loc 1 309 9
	.loc 1 309 33 is_stmt 0
	slli	a5,a3,13
	add	a5,s2,a5
	sw	a5,0(a4)
	.loc 1 310 9 is_stmt 1
	.loc 1 301 12 is_stmt 0
	sub	a5,a3,a7
	seqz	a5,a5
	.loc 1 311 30
	or	a2,a2,t3
.LVL127:
	slli	a5,a5,31
	or	a5,a5,a2
	lw	a2,12(a4)
	and	a5,a5,a6
	.loc 1 310 34
	sw	a0,4(a4)
	.loc 1 311 9 is_stmt 1
	.loc 1 311 30 is_stmt 0
	and	a2,t4,a2
	or	a5,a5,a2
	sw	a5,12(a4)
	.loc 1 312 9 is_stmt 1
	.loc 1 312 12 is_stmt 0
	beq	a3,zero,.L130
	.loc 1 313 13 is_stmt 1
	.loc 1 313 36 is_stmt 0
	sw	a4,-8(a4)
.L130:
	.loc 1 290 28 is_stmt 1 discriminator 2
	.loc 1 290 29 is_stmt 0 discriminator 2
	addi	a3,a3,1
.LVL128:
	addi	a4,a4,16
	j	.L126
.LVL129:
.L132:
	.loc 1 327 12 is_stmt 1
	.loc 1 327 15 is_stmt 0
	li	a4,14
	bne	a5,a4,.L133
	.loc 1 328 9 is_stmt 1
	li	a0,4
	call	GPIP_Set_DAC_ChanB_SRC_SEL
.LVL130:
	j	.L133
	.cfi_endproc
.LFE15:
	.size	hosal_dac_dma_start, .-hosal_dac_dma_start
	.section	.text.hosal_dac_dma_stop,"ax",@progbits
	.align	1
	.globl	hosal_dac_dma_stop
	.type	hosal_dac_dma_stop, @function
hosal_dac_dma_stop:
.LFB16:
	.loc 1 340 1
	.cfi_startproc
.LVL131:
	.loc 1 341 5
	.loc 1 340 1 is_stmt 0
	addi	sp,sp,-16
	.cfi_def_cfa_offset 16
	sw	ra,12(sp)
	sw	s0,8(sp)
	sw	s1,4(sp)
	.cfi_offset 1, -4
	.cfi_offset 8, -8
	.cfi_offset 9, -12
	.loc 1 341 8
	beq	a0,zero,.L161
	.loc 1 341 20 discriminator 1
	lbu	a5,0(a0)
	mv	s0,a0
	beq	a5,zero,.L162
.L161:
	.loc 1 342 9 is_stmt 1 discriminator 1
	.loc 1 342 47 discriminator 1
	.loc 1 342 52 discriminator 1
	.loc 1 342 74 is_stmt 0 discriminator 1
	lui	a5,%hi(_fsymc_level_hosal)
	.loc 1 342 55 discriminator 1
	lw	a4,%lo(_fsymc_level_hosal)(a5)
	li	a5,4
	.loc 1 343 16 discriminator 1
	li	s1,-1
	.loc 1 342 55 discriminator 1
	bgtu	a4,a5,.L160
	.loc 1 342 118 discriminator 3
	lui	a4,%hi(_fsymf_level_hosalhosal_dac)
	.loc 1 342 97 discriminator 3
	lw	a4,%lo(_fsymf_level_hosalhosal_dac)(a4)
	bgtu	a4,a5,.L160
	.loc 1 342 153 is_stmt 1 discriminator 5
	.loc 1 342 243 is_stmt 0 discriminator 5
	call	xPortIsInsideInterrupt
.LVL132:
	.loc 1 342 153 discriminator 5
	beq	a0,zero,.L164
	.loc 1 342 272 discriminator 7
	call	xTaskGetTickCountFromISR
.LVL133:
.L174:
	.loc 1 342 303 discriminator 8
	mv	a2,a0
	.loc 1 342 153 discriminator 8
	lui	a3,%hi(.LC7)
	lui	a1,%hi(.LC8)
	lui	a0,%hi(.LC10)
	li	a4,342
	addi	a3,a3,%lo(.LC7)
	addi	a1,a1,%lo(.LC8)
	addi	a0,a0,%lo(.LC10)
	call	bl_printk
.LVL134:
	.loc 1 343 16 discriminator 8
	li	s1,-1
.L160:
	.loc 1 355 1
	lw	ra,12(sp)
	.cfi_remember_state
	.cfi_restore 1
	lw	s0,8(sp)
	.cfi_restore 8
	mv	a0,s1
	lw	s1,4(sp)
	.cfi_restore 9
	addi	sp,sp,16
	.cfi_def_cfa_offset 0
	jr	ra
.L164:
	.cfi_restore_state
	.loc 1 342 303 discriminator 8
	call	xTaskGetTickCount
.LVL135:
	j	.L174
.LVL136:
.L162:
	.loc 1 346 5 is_stmt 1
	call	GPIP_DAC_ChanA_Disable
.LVL137:
	.loc 1 347 5
	call	GPIP_DAC_ChanB_Disable
.LVL138:
	.loc 1 349 5
	.loc 1 349 8 is_stmt 0
	lbu	a5,4(s0)
	.loc 1 354 12
	li	s1,0
	.loc 1 349 8
	beq	a5,zero,.L160
	.loc 1 350 9 is_stmt 1
	call	GPIP_Set_DAC_DMA_TX_Disable
.LVL139:
	.loc 1 351 9
	lw	a0,20(s0)
	call	hosal_dma_chan_stop
.LVL140:
	j	.L160
	.cfi_endproc
.LFE16:
	.size	hosal_dac_dma_stop, .-hosal_dac_dma_stop
	.section	.text.hosal_dac_finalize,"ax",@progbits
	.align	1
	.globl	hosal_dac_finalize
	.type	hosal_dac_finalize, @function
hosal_dac_finalize:
.LFB17:
	.loc 1 358 1
	.cfi_startproc
.LVL141:
	.loc 1 359 5
	.loc 1 358 1 is_stmt 0
	addi	sp,sp,-16
	.cfi_def_cfa_offset 16
	sw	ra,12(sp)
	sw	s0,8(sp)
	sw	s1,4(sp)
	.cfi_offset 1, -4
	.cfi_offset 8, -8
	.cfi_offset 9, -12
	.loc 1 359 8
	beq	a0,zero,.L176
	.loc 1 359 20 discriminator 1
	lbu	a5,0(a0)
	mv	s0,a0
	beq	a5,zero,.L177
.L176:
	.loc 1 360 9 is_stmt 1 discriminator 1
	.loc 1 360 47 discriminator 1
	.loc 1 360 52 discriminator 1
	.loc 1 360 74 is_stmt 0 discriminator 1
	lui	a5,%hi(_fsymc_level_hosal)
	.loc 1 360 55 discriminator 1
	lw	a4,%lo(_fsymc_level_hosal)(a5)
	li	a5,4
	.loc 1 361 16 discriminator 1
	li	s1,-1
	.loc 1 360 55 discriminator 1
	bgtu	a4,a5,.L175
	.loc 1 360 118 discriminator 3
	lui	a4,%hi(_fsymf_level_hosalhosal_dac)
	.loc 1 360 97 discriminator 3
	lw	a4,%lo(_fsymf_level_hosalhosal_dac)(a4)
	bgtu	a4,a5,.L175
	.loc 1 360 153 is_stmt 1 discriminator 5
	.loc 1 360 243 is_stmt 0 discriminator 5
	call	xPortIsInsideInterrupt
.LVL142:
	.loc 1 360 153 discriminator 5
	beq	a0,zero,.L179
	.loc 1 360 272 discriminator 7
	call	xTaskGetTickCountFromISR
.LVL143:
.L192:
	.loc 1 360 303 discriminator 8
	mv	a2,a0
	.loc 1 360 153 discriminator 8
	lui	a3,%hi(.LC7)
	lui	a1,%hi(.LC8)
	lui	a0,%hi(.LC10)
	li	a4,360
	addi	a3,a3,%lo(.LC7)
	addi	a1,a1,%lo(.LC8)
	addi	a0,a0,%lo(.LC10)
	call	bl_printk
.LVL144:
	.loc 1 361 16 discriminator 8
	li	s1,-1
.L175:
	.loc 1 375 1
	lw	ra,12(sp)
	.cfi_remember_state
	.cfi_restore 1
	lw	s0,8(sp)
	.cfi_restore 8
	mv	a0,s1
	lw	s1,4(sp)
	.cfi_restore 9
	addi	sp,sp,16
	.cfi_def_cfa_offset 0
	jr	ra
.L179:
	.cfi_restore_state
	.loc 1 360 303 discriminator 8
	call	xTaskGetTickCount
.LVL145:
	j	.L192
.LVL146:
.L177:
	.loc 1 364 5 is_stmt 1
	.loc 1 364 19 is_stmt 0
	lw	a0,28(a0)
	.loc 1 364 8
	beq	a0,zero,.L181
	.loc 1 365 9 is_stmt 1
	call	vPortFree
.LVL147:
	.loc 1 366 9
	.loc 1 366 19 is_stmt 0
	sw	zero,28(s0)
.L181:
	.loc 1 369 5 is_stmt 1
	.loc 1 369 12 is_stmt 0
	lw	a0,20(s0)
	.loc 1 374 12
	li	s1,0
	.loc 1 369 8
	blt	a0,zero,.L175
	.loc 1 370 9 is_stmt 1
	call	hosal_dma_chan_release
.LVL148:
	.loc 1 371 9
	.loc 1 371 23 is_stmt 0
	li	a5,-1
	sw	a5,20(s0)
	j	.L175
	.cfi_endproc
.LFE17:
	.size	hosal_dac_finalize, .-hosal_dac_finalize
	.globl	_fsymf_info_hosalhosal_dac
	.section	.rodata.str1.4,"aMS",@progbits,1
	.align	2
.LC18:
	.string	"hosal.hosal_dac"
	.comm	_fsymf_level_hosalhosal_dac,4,4
	.align	2
.LC19:
	.string	"hosal"
	.weak	_fsymc_level_hosal
	.section	.srodata.cst4,"aM",@progbits,4
	.align	2
.LC12:
	.word	975674299
	.align	2
.LC13:
	.word	-1023426560
	.align	2
.LC14:
	.word	1153663200
	.align	2
.LC15:
	.word	1212370944
	.section	.rodata
	.align	2
	.set	.LANCHOR0,. + 0
.LC1:
	.word	0
	.word	1
	.word	1
	.word	0
	.word	0
	.word	0
.LC2:
	.word	1
	.word	1
	.word	1
	.word	0
.LC3:
	.word	1
	.word	1
	.word	1
	.word	0
.LC4:
	.word	1
	.word	1
	.word	1
	.word	1
.LC5:
	.word	1
	.word	1
	.word	1
	.word	4
	.section	.sbss._fsymc_level_hosal,"aw",@nobits
	.align	2
	.type	_fsymc_level_hosal, @object
	.size	_fsymc_level_hosal, 4
_fsymc_level_hosal:
	.zero	4
	.section	.srodata,"a"
	.align	2
.LC0:
	.byte	13
	.byte	10
	.byte	2
	.byte	2
	.byte	1
	.byte	1
	.section	.srodata.BLOG_HARD_DECLARE_DISABLE,"a"
	.align	2
	.type	BLOG_HARD_DECLARE_DISABLE, @object
	.size	BLOG_HARD_DECLARE_DISABLE, 4
BLOG_HARD_DECLARE_DISABLE:
	.zero	4
	.section	.static_blogcomponent_code.hosal,"a"
	.align	2
	.type	_fsymc_info_hosal, @object
	.size	_fsymc_info_hosal, 8
_fsymc_info_hosal:
	.word	_fsymc_level_hosal
	.word	.LC19
	.section	.static_blogfile_code.hosalhosal_dac,"a"
	.align	2
	.type	_fsymf_info_hosalhosal_dac, @object
	.size	_fsymf_info_hosalhosal_dac, 8
_fsymf_info_hosalhosal_dac:
	.word	_fsymf_level_hosalhosal_dac
	.word	.LC18
	.text
.Letext0:
	.file 2 "/home/anh/Desktop/wb2/Ai-Thinker-WB2/toolchain/riscv/Linux/lib/gcc/riscv64-unknown-elf/10.2.0/include/stdint-gcc.h"
	.file 3 "/home/anh/Desktop/wb2/Ai-Thinker-WB2/components/platform/hosal/include/hosal_dma.h"
	.file 4 "/home/anh/Desktop/wb2/Ai-Thinker-WB2/components/platform/hosal/include/hosal_dac.h"
	.file 5 "/home/anh/Desktop/wb2/Ai-Thinker-WB2/components/platform/soc/bl602/bl602_std/bl602_std/StdDriver/Inc/bl602_common.h"
	.file 6 "/home/anh/Desktop/wb2/Ai-Thinker-WB2/components/platform/soc/bl602/bl602_std/bl602_std/StdDriver/Inc/bl602_dac.h"
	.file 7 "/home/anh/Desktop/wb2/Ai-Thinker-WB2/components/platform/soc/bl602/bl602_std/bl602_std/StdDriver/Inc/bl602_gpio.h"
	.file 8 "/home/anh/Desktop/wb2/Ai-Thinker-WB2/components/platform/soc/bl602/bl602_std/bl602_std/Device/Bouffalo/BL602/Peripherals/dma_reg.h"
	.file 9 "/home/anh/Desktop/wb2/Ai-Thinker-WB2/components/platform/soc/bl602/bl602_std/bl602_std/StdDriver/Inc/bl602_dma.h"
	.file 10 "/home/anh/Desktop/wb2/Ai-Thinker-WB2/components/platform/soc/bl602/bl602_std/bl602_std/StdDriver/Inc/bl602_glb.h"
	.file 11 "/home/anh/Desktop/wb2/Ai-Thinker-WB2/components/stage/blog/blog_type.h"
	.file 12 "/home/anh/Desktop/wb2/Ai-Thinker-WB2/components/stage/blog/blog.h"
	.file 13 "/home/anh/Desktop/wb2/Ai-Thinker-WB2/components/platform/soc/bl602/freertos_riscv_ram/portable/GCC/RISC-V/portmacro.h"
	.file 14 "/home/anh/Desktop/wb2/Ai-Thinker-WB2/components/platform/soc/bl602/freertos_riscv_ram/config/task.h"
	.file 15 "/home/anh/Desktop/wb2/Ai-Thinker-WB2/components/utils/include/utils_log.h"
	.file 16 "/home/anh/Desktop/wb2/Ai-Thinker-WB2/components/platform/soc/bl602/freertos_riscv_ram/config/portable.h"
	.file 17 "/home/anh/Desktop/wb2/Ai-Thinker-WB2/toolchain/riscv/Linux/riscv64-unknown-elf/include/string.h"
	.file 18 "<built-in>"