	.file	"aws_iot_jobs_types.c"
	.option nopic
	.attribute arch, "rv32i2p0_m2p0_f2p0_c2p0"
	.attribute unaligned_access, 0
	.attribute stack_align, 16
	.text
.Ltext0:
	.cfi_sections	.debug_frame
	.section	.text.aws_iot_jobs_map_string_to_job_status,"ax",@progbits
	.align	1
	.globl	aws_iot_jobs_map_string_to_job_status
	.type	aws_iot_jobs_map_string_to_job_status, @function
aws_iot_jobs_map_string_to_job_status:
.LFB1:
	.file 1 "/home/anh/Desktop/wb2/Ai-Thinker-WB2/components/3rdparty/aws-iot/aws-iot-device-sdk-embedded-C/src/aws_iot_jobs_types.c"
	.loc 1 30 75
	.cfi_startproc
.LVL0:
	.loc 1 31 2
	.loc 1 31 5 is_stmt 0
	beq	a0,zero,.L3
	.loc 1 30 75 discriminator 1
	addi	sp,sp,-16
	.cfi_def_cfa_offset 16
	sw	s0,8(sp)
	sw	ra,12(sp)
	.cfi_offset 8, -8
	.cfi_offset 1, -4
	.loc 1 31 17 discriminator 1
	lbu	a4,0(a0)
	mv	s0,a0
	.loc 1 32 10 discriminator 1
	li	a5,0
	.loc 1 31 17 discriminator 1
	beq	a4,zero,.L1
	.loc 1 33 9 is_stmt 1
	.loc 1 33 13 is_stmt 0
	lui	a5,%hi(.LANCHOR0)
	lw	a1,%lo(.LANCHOR0)(a5)
	call	strcmp
.LVL1:
	.loc 1 34 10
	li	a5,1
	.loc 1 33 12
	beq	a0,zero,.L1
	.loc 1 35 9 is_stmt 1
	.loc 1 35 12 is_stmt 0
	lui	a5,%hi(.LANCHOR1)
	lw	a1,%lo(.LANCHOR1)(a5)
	mv	a0,s0
	call	strcmp
.LVL2:
	.loc 1 36 10
	li	a5,2
	.loc 1 35 11
	beq	a0,zero,.L1
	.loc 1 37 9 is_stmt 1
	.loc 1 37 12 is_stmt 0
	lui	a5,%hi(.LANCHOR2)
	lw	a1,%lo(.LANCHOR2)(a5)
	mv	a0,s0
	call	strcmp
.LVL3:
	.loc 1 38 10
	li	a5,3
	.loc 1 37 11
	beq	a0,zero,.L1
	.loc 1 39 9 is_stmt 1
	.loc 1 39 12 is_stmt 0
	lui	a5,%hi(.LANCHOR3)
	lw	a1,%lo(.LANCHOR3)(a5)
	mv	a0,s0
	call	strcmp
.LVL4:
	.loc 1 40 10
	li	a5,4
	.loc 1 39 11
	beq	a0,zero,.L1
	.loc 1 41 9 is_stmt 1
	.loc 1 41 12 is_stmt 0
	lui	a5,%hi(.LANCHOR4)
	lw	a1,%lo(.LANCHOR4)(a5)
	mv	a0,s0
	call	strcmp
.LVL5:
	.loc 1 42 10
	li	a5,5
	.loc 1 41 11
	beq	a0,zero,.L1
	.loc 1 43 9 is_stmt 1
	.loc 1 43 12 is_stmt 0
	lui	a5,%hi(.LANCHOR5)
	lw	a1,%lo(.LANCHOR5)(a5)
	mv	a0,s0
	call	strcmp
.LVL6:
	.loc 1 44 10
	li	a5,6
	.loc 1 43 11
	beq	a0,zero,.L1
	.loc 1 46 10
	li	a5,99
.L1:
	.loc 1 48 1
	lw	ra,12(sp)
	.cfi_restore 1
	lw	s0,8(sp)
	.cfi_restore 8
.LVL7:
	mv	a0,a5
	addi	sp,sp,16
	.cfi_def_cfa_offset 0
	jr	ra
.LVL8:
.L3:
	.loc 1 32 10
	li	a5,0
	.loc 1 48 1
	mv	a0,a5
.LVL9:
	ret
	.cfi_endproc
.LFE1:
	.size	aws_iot_jobs_map_string_to_job_status, .-aws_iot_jobs_map_string_to_job_status
	.section	.text.aws_iot_jobs_map_status_to_string,"ax",@progbits
	.align	1
	.globl	aws_iot_jobs_map_status_to_string
	.type	aws_iot_jobs_map_status_to_string, @function
aws_iot_jobs_map_status_to_string:
.LFB2:
	.loc 1 50 74 is_stmt 1
	.cfi_startproc
.LVL10:
	.loc 1 51 2
	addi	a0,a0,-1
.LVL11:
	li	a5,5
	bgtu	a0,a5,.L27
	lui	a5,%hi(.L21)
	addi	a5,a5,%lo(.L21)
	slli	a0,a0,2
.LVL12:
	add	a0,a0,a5
	lw	a5,0(a0)
	jr	a5
	.section	.rodata.aws_iot_jobs_map_status_to_string,"a",@progbits
	.align	2
	.align	2
.L21:
	.word	.L26
	.word	.L25
	.word	.L24
	.word	.L23
	.word	.L22
	.word	.L20
	.section	.text.aws_iot_jobs_map_status_to_string
.L26:
	.loc 1 53 3
	.loc 1 53 10 is_stmt 0
	lui	a5,%hi(.LANCHOR0)
	lw	a0,%lo(.LANCHOR0)(a5)
	ret
.L25:
	.loc 1 55 3 is_stmt 1
	.loc 1 55 10 is_stmt 0
	lui	a5,%hi(.LANCHOR1)
	lw	a0,%lo(.LANCHOR1)(a5)
	ret
.L24:
	.loc 1 57 3 is_stmt 1
	.loc 1 57 10 is_stmt 0
	lui	a5,%hi(.LANCHOR2)
	lw	a0,%lo(.LANCHOR2)(a5)
	ret
.L23:
	.loc 1 59 3 is_stmt 1
	.loc 1 59 10 is_stmt 0
	lui	a5,%hi(.LANCHOR3)
	lw	a0,%lo(.LANCHOR3)(a5)
	ret
.L22:
	.loc 1 61 3 is_stmt 1
	.loc 1 61 10 is_stmt 0
	lui	a5,%hi(.LANCHOR4)
	lw	a0,%lo(.LANCHOR4)(a5)
	ret
.L20:
	.loc 1 63 3 is_stmt 1
	.loc 1 63 10 is_stmt 0
	lui	a5,%hi(.LANCHOR5)
	lw	a0,%lo(.LANCHOR5)(a5)
	ret
.L27:
	.loc 1 50 74
	li	a0,0
	.loc 1 69 1
	ret
	.cfi_endproc
.LFE2:
	.size	aws_iot_jobs_map_status_to_string, .-aws_iot_jobs_map_status_to_string
	.globl	JOB_EXECUTION_REJECTED_STR
	.section	.rodata.str1.4,"aMS",@progbits,1
	.align	2
.LC0:
	.string	"REJECTED"
	.globl	JOB_EXECUTION_CANCELED_STR
	.align	2
.LC1:
	.string	"CANCELED"
	.globl	JOB_EXECUTION_SUCCEEDED_STR
	.align	2
.LC2:
	.string	"SUCCEEDED"
	.globl	JOB_EXECUTION_FAILED_STR
	.align	2
.LC3:
	.string	"FAILED"
	.globl	JOB_EXECUTION_IN_PROGRESS_STR
	.align	2
.LC4:
	.string	"IN_PROGRESS"
	.globl	JOB_EXECUTION_QUEUED_STR
	.align	2
.LC5:
	.string	"QUEUED"
	.section	.sdata.JOB_EXECUTION_CANCELED_STR,"aw"
	.align	2
	.set	.LANCHOR4,. + 0
	.type	JOB_EXECUTION_CANCELED_STR, @object
	.size	JOB_EXECUTION_CANCELED_STR, 4
JOB_EXECUTION_CANCELED_STR:
	.word	.LC1
	.section	.sdata.JOB_EXECUTION_FAILED_STR,"aw"
	.align	2
	.set	.LANCHOR2,. + 0
	.type	JOB_EXECUTION_FAILED_STR, @object
	.size	JOB_EXECUTION_FAILED_STR, 4
JOB_EXECUTION_FAILED_STR:
	.word	.LC3
	.section	.sdata.JOB_EXECUTION_IN_PROGRESS_STR,"aw"
	.align	2
	.set	.LANCHOR1,. + 0
	.type	JOB_EXECUTION_IN_PROGRESS_STR, @object
	.size	JOB_EXECUTION_IN_PROGRESS_STR, 4
JOB_EXECUTION_IN_PROGRESS_STR:
	.word	.LC4
	.section	.sdata.JOB_EXECUTION_QUEUED_STR,"aw"
	.align	2
	.set	.LANCHOR0,. + 0
	.type	JOB_EXECUTION_QUEUED_STR, @object
	.size	JOB_EXECUTION_QUEUED_STR, 4
JOB_EXECUTION_QUEUED_STR:
	.word	.LC5
	.section	.sdata.JOB_EXECUTION_REJECTED_STR,"aw"
	.align	2
	.set	.LANCHOR5,. + 0
	.type	JOB_EXECUTION_REJECTED_STR, @object
	.size	JOB_EXECUTION_REJECTED_STR, 4
JOB_EXECUTION_REJECTED_STR:
	.word	.LC0
	.section	.sdata.JOB_EXECUTION_SUCCEEDED_STR,"aw"
	.align	2
	.set	.LANCHOR3,. + 0
	.type	JOB_EXECUTION_SUCCEEDED_STR, @object
	.size	JOB_EXECUTION_SUCCEEDED_STR, 4
JOB_EXECUTION_SUCCEEDED_STR:
	.word	.LC2
	.text
.Letext0:
	.file 2 "/home/anh/Desktop/wb2/Ai-Thinker-WB2/components/3rdparty/aws-iot/aws-iot-device-sdk-embedded-C/include/aws_iot_jobs_types.h"
	.file 3 "/home/anh/Desktop/wb2/Ai-Thinker-WB2/toolchain/riscv/Linux/riscv64-unknown-elf/include/string.h"