	.file	"aws_iot_mqtt_client_subscribe.c"
	.option nopic
	.attribute arch, "rv32i2p0_m2p0_f2p0_c2p0"
	.attribute unaligned_access, 0
	.attribute stack_align, 16
	.text
.Ltext0:
	.cfi_sections	.debug_frame
	.section	.text._aws_iot_mqtt_deserialize_suback.constprop.0,"ax",@progbits
	.align	1
	.type	_aws_iot_mqtt_deserialize_suback.constprop.0, @function
_aws_iot_mqtt_deserialize_suback.constprop.0:
.LFB31:
	.file 1 "/home/anh/Desktop/wb2/Ai-Thinker-WB2/components/3rdparty/aws-iot/aws-iot-device-sdk-embedded-C/src/aws_iot_mqtt_client_subscribe.c"
	.loc 1 116 20
	.cfi_startproc
.LVL0:
	.loc 1 119 2
	.loc 1 120 2
	.loc 1 121 2
	.loc 1 122 2
	.loc 1 124 2
	.loc 1 125 2
	.loc 1 126 40
	.loc 1 129 2
	.loc 1 116 20 is_stmt 0
	addi	sp,sp,-48
	.cfi_def_cfa_offset 48
	sw	s0,40(sp)
	sw	ra,44(sp)
	sw	s1,36(sp)
	sw	s2,32(sp)
	sw	s3,28(sp)
	sw	s4,24(sp)
	.cfi_offset 8, -8
	.cfi_offset 1, -4
	.cfi_offset 9, -12
	.cfi_offset 18, -16
	.cfi_offset 19, -20
	.cfi_offset 20, -24
	.loc 1 129 10
	sw	a3,4(sp)
	.loc 1 130 2 is_stmt 1
.LVL1:
	.loc 1 131 2
	.loc 1 132 2
	.loc 1 132 13 is_stmt 0
	sw	zero,8(sp)
	.loc 1 133 2 is_stmt 1
	.loc 1 133 15 is_stmt 0
	sw	zero,12(sp)
	.loc 1 138 2 is_stmt 1
	.loc 1 138 4 is_stmt 0
	li	a5,4
	.loc 1 139 15
	li	s0,-32
	.loc 1 138 4
	bleu	a4,a5,.L1
	mv	s4,a0
	.loc 1 142 16
	addi	a0,sp,4
.LVL2:
	mv	s2,a1
	mv	s3,a2
	.loc 1 139 54 is_stmt 1
	.loc 1 142 2
	.loc 1 142 16 is_stmt 0
	call	aws_iot_mqtt_internal_read_char
.LVL3:
	.loc 1 143 2 is_stmt 1
	.loc 1 143 35 is_stmt 0
	srli	a5,a0,4
	.loc 1 143 4
	andi	a5,a5,0xff
	li	a4,9
	beq	a5,a4,.L3
.LVL4:
.L4:
	.loc 1 144 15
	li	s0,-1
.LVL5:
.L1:
	.loc 1 170 1
	lw	ra,44(sp)
	.cfi_remember_state
	.cfi_restore 1
	mv	a0,s0
	lw	s0,40(sp)
	.cfi_restore 8
	lw	s1,36(sp)
	.cfi_restore 9
	lw	s2,32(sp)
	.cfi_restore 18
	lw	s3,28(sp)
	.cfi_restore 19
	lw	s4,24(sp)
	.cfi_restore 20
	addi	sp,sp,48
	.cfi_def_cfa_offset 0
	jr	ra
.LVL6:
.L3:
	.cfi_restore_state
	.loc 1 144 31 is_stmt 1
	.loc 1 148 2
	.loc 1 148 13 is_stmt 0
	lw	a0,4(sp)
.LVL7:
	addi	a2,sp,12
	addi	a1,sp,8
	call	aws_iot_mqtt_internal_decode_remaining_length_from_buffer
.LVL8:
	mv	s0,a0
.LVL9:
	.loc 1 149 2 is_stmt 1
	.loc 1 149 4 is_stmt 0
	bne	a0,zero,.L1
	.loc 1 150 32 is_stmt 1
	.loc 1 153 2
	.loc 1 153 10 is_stmt 0
	lw	a5,4(sp)
	lw	a4,12(sp)
	add	a5,a5,a4
	.loc 1 154 20
	lw	a4,8(sp)
	.loc 1 153 10
	sw	a5,4(sp)
	.loc 1 154 2 is_stmt 1
	.loc 1 154 10 is_stmt 0
	add	s1,a5,a4
.LVL10:
	.loc 1 155 2 is_stmt 1
	.loc 1 155 4 is_stmt 0
	li	a5,1
	ble	a4,a5,.L4
	.loc 1 156 31 is_stmt 1
	.loc 1 159 2
	.loc 1 159 15 is_stmt 0
	addi	a0,sp,4
	call	aws_iot_mqtt_internal_read_uint16_t
.LVL11:
	.loc 1 159 13
	sh	a0,0(s4)
	.loc 1 161 2 is_stmt 1
	.loc 1 161 20 is_stmt 0
	sw	zero,0(s2)
	.loc 1 162 2 is_stmt 1
	.loc 1 163 5 is_stmt 0
	li	s4,1
.LVL12:
.L5:
	.loc 1 162 7 is_stmt 1
	lw	a5,4(sp)
	bleu	s1,a5,.L1
	.loc 1 163 3
	.loc 1 163 5 is_stmt 0
	lw	a5,0(s2)
	bgtu	a5,s4,.L4
	.loc 1 164 32 is_stmt 1
	.loc 1 166 3
	.loc 1 166 47 is_stmt 0
	addi	a0,sp,4
	call	aws_iot_mqtt_internal_read_char
.LVL13:
	.loc 1 166 17
	lw	a5,0(s2)
	.loc 1 166 35
	addi	a4,a5,1
	.loc 1 166 39
	slli	a5,a5,2
	.loc 1 166 35
	sw	a4,0(s2)
	.loc 1 166 39
	add	a5,s3,a5
	.loc 1 166 41
	sw	a0,0(a5)
	j	.L5
	.cfi_endproc
.LFE31:
	.size	_aws_iot_mqtt_deserialize_suback.constprop.0, .-_aws_iot_mqtt_deserialize_suback.constprop.0
	.section	.text._aws_iot_mqtt_serialize_subscribe.constprop.0,"ax",@progbits
	.align	1
	.type	_aws_iot_mqtt_serialize_subscribe.constprop.0, @function
_aws_iot_mqtt_serialize_subscribe.constprop.0:
.LFB30:
	.loc 1 58 20 is_stmt 1
	.cfi_startproc
.LVL14:
	.loc 1 62 2
	.loc 1 63 2
	.loc 1 64 2
	.loc 1 65 2
	.loc 1 58 20 is_stmt 0
	addi	sp,sp,-64
	.cfi_def_cfa_offset 64
	sw	s0,56(sp)
	sw	s1,52(sp)
	sw	s2,48(sp)
	sw	s4,40(sp)
	sw	s5,36(sp)
	sw	s6,32(sp)
	sw	s7,28(sp)
	sw	ra,60(sp)
	sw	s3,44(sp)
	.cfi_offset 8, -8
	.cfi_offset 9, -12
	.cfi_offset 18, -16
	.cfi_offset 20, -24
	.cfi_offset 21, -28
	.cfi_offset 22, -32
	.cfi_offset 23, -36
	.cfi_offset 1, -4
	.cfi_offset 19, -20
	.loc 1 76 11
	lhu	s3,0(a4)
	.loc 1 58 20
	mv	s1,a0
	.loc 1 72 6
	sw	a0,12(sp)
	.loc 1 76 11
	addi	s3,s3,5
	.loc 1 79 5
	mv	a0,s3
.LVL15:
	.loc 1 58 20
	mv	s0,a1
	mv	s7,a2
	mv	s6,a3
	mv	s2,a4
	mv	s5,a5
	mv	s4,a6
	.loc 1 65 13
	sb	zero,8(sp)
	.loc 1 67 2 is_stmt 1
	.loc 1 68 2
	.loc 1 69 40
	.loc 1 72 2
	.loc 1 73 2
.LVL16:
	.loc 1 75 2
	.loc 1 75 15
	.loc 1 76 3
	.loc 1 75 33
	.loc 1 75 15
	.loc 1 79 2
	.loc 1 79 5 is_stmt 0
	call	aws_iot_mqtt_internal_get_final_packet_length_from_remaining_length
.LVL17:
	.loc 1 79 4
	bgtu	a0,s0,.L11
	.loc 1 80 54 is_stmt 1
	.loc 1 83 2
	.loc 1 83 7 is_stmt 0
	li	a4,0
	li	a3,0
	li	a2,1
	li	a1,8
	addi	a0,sp,8
	call	aws_iot_mqtt_internal_init_header
.LVL18:
	mv	s0,a0
.LVL19:
	.loc 1 84 2 is_stmt 1
	.loc 1 84 4 is_stmt 0
	bne	a0,zero,.L9
	.loc 1 85 26 is_stmt 1
	.loc 1 88 2
	lbu	a1,8(sp)
	addi	a0,sp,12
	call	aws_iot_mqtt_internal_write_char
.LVL20:
	.loc 1 91 2
	.loc 1 91 9 is_stmt 0
	lw	a0,12(sp)
	mv	a1,s3
	call	aws_iot_mqtt_internal_write_len_to_buffer
.LVL21:
	.loc 1 91 6
	lw	a5,12(sp)
	.loc 1 93 2
	mv	a1,s7
	.loc 1 91 6
	add	a5,a5,a0
	.loc 1 93 2
	addi	a0,sp,12
	.loc 1 91 6
	sw	a5,12(sp)
	.loc 1 93 2 is_stmt 1
	call	aws_iot_mqtt_internal_write_uint_16
.LVL22:
	.loc 1 95 2
	.loc 1 95 15
	.loc 1 96 3
	lhu	a2,0(s2)
	lw	a1,0(s6)
	addi	a0,sp,12
	call	aws_iot_mqtt_internal_write_utf8_string
.LVL23:
	.loc 1 97 3
	lbu	a1,0(s5)
	addi	a0,sp,12
	call	aws_iot_mqtt_internal_write_char
.LVL24:
	.loc 1 95 33
	.loc 1 95 15
	.loc 1 100 2
	.loc 1 100 36 is_stmt 0
	lw	a0,12(sp)
	sub	s1,a0,s1
.LVL25:
	.loc 1 100 18
	sw	s1,0(s4)
	.loc 1 102 2 is_stmt 1
	.loc 1 102 7
.LVL26:
.L9:
	.loc 1 103 1 is_stmt 0
	lw	ra,60(sp)
	.cfi_remember_state
	.cfi_restore 1
	mv	a0,s0
	lw	s0,56(sp)
	.cfi_restore 8
	lw	s1,52(sp)
	.cfi_restore 9
	lw	s2,48(sp)
	.cfi_restore 18
.LVL27:
	lw	s3,44(sp)
	.cfi_restore 19
.LVL28:
	lw	s4,40(sp)
	.cfi_restore 20
.LVL29:
	lw	s5,36(sp)
	.cfi_restore 21
.LVL30:
	lw	s6,32(sp)
	.cfi_restore 22
.LVL31:
	lw	s7,28(sp)
	.cfi_restore 23
	addi	sp,sp,64
	.cfi_def_cfa_offset 0
	jr	ra
.LVL32:
.L11:
	.cfi_restore_state
	.loc 1 80 15
	li	s0,-33
.LVL33:
	.loc 1 102 30 is_stmt 1
	j	.L9
	.cfi_endproc
.LFE30:
	.size	_aws_iot_mqtt_serialize_subscribe.constprop.0, .-_aws_iot_mqtt_serialize_subscribe.constprop.0
	.section	.text.aws_iot_mqtt_subscribe,"ax",@progbits
	.align	1
	.globl	aws_iot_mqtt_subscribe
	.type	aws_iot_mqtt_subscribe, @function
aws_iot_mqtt_subscribe:
.LFB27:
	.loc 1 297 95
	.cfi_startproc
.LVL34:
	.loc 1 298 2
	.loc 1 299 2
	.loc 1 301 2
	.loc 1 303 2
	.loc 1 303 4 is_stmt 0
	beq	a0,zero,.L20
	.loc 1 297 95 discriminator 1
	addi	sp,sp,-80
	.cfi_def_cfa_offset 80
	sw	s0,72(sp)
	sw	ra,76(sp)
	sw	s1,68(sp)
	sw	s2,64(sp)
	sw	s3,60(sp)
	sw	s4,56(sp)
	sw	s5,52(sp)
	sw	s6,48(sp)
	.cfi_offset 8, -8
	.cfi_offset 1, -4
	.cfi_offset 9, -12
	.cfi_offset 18, -16
	.cfi_offset 19, -20
	.cfi_offset 20, -24
	.cfi_offset 21, -28
	.cfi_offset 22, -32
	mv	s0,a1
	.loc 1 304 15 discriminator 1
	li	a6,-2
	.loc 1 303 20 discriminator 1
	beq	a1,zero,.L13
	mv	s3,a4
	.loc 1 303 42 discriminator 2
	beq	a4,zero,.L13
	mv	s1,a0
	mv	s6,a2
	mv	s5,a3
	mv	s4,a5
	.loc 1 304 40 is_stmt 1
	.loc 1 307 2
	.loc 1 307 6 is_stmt 0
	call	aws_iot_mqtt_is_client_connected
.LVL35:
	.loc 1 308 15
	li	a6,-13
	.loc 1 307 4
	beq	a0,zero,.L13
	.loc 1 308 50 is_stmt 1
	.loc 1 311 2
	.loc 1 311 16 is_stmt 0
	mv	a0,s1
	call	aws_iot_mqtt_get_client_state
.LVL36:
	.loc 1 312 4
	li	a5,3
	.loc 1 311 16
	mv	s2,a0
.LVL37:
	.loc 1 312 2 is_stmt 1
	.loc 1 312 4 is_stmt 0
	beq	a0,a5,.L15
	.loc 1 312 48 discriminator 1
	li	a5,9
	.loc 1 313 15 discriminator 1
	li	a6,-30
	.loc 1 312 48 discriminator 1
	bne	a0,a5,.L13
.L15:
	.loc 1 313 50 is_stmt 1
	.loc 1 316 2
	.loc 1 316 7 is_stmt 0
	li	a2,6
	mv	a1,s2
	mv	a0,s1
.LVL38:
	call	aws_iot_mqtt_set_client_state
.LVL39:
	mv	a6,a0
.LVL40:
	.loc 1 317 2 is_stmt 1
	.loc 1 317 4 is_stmt 0
	bne	a0,zero,.L13
	.loc 1 318 26 is_stmt 1
	.loc 1 321 2
.LVL41:
.LBB6:
.LBB7:
	.loc 1 218 2 is_stmt 0
	addi	a0,sp,24
.LVL42:
	sw	s0,8(sp)
.LVL43:
	sh	s6,4(sp)
.LVL44:
	sw	s5,12(sp)
.LVL45:
	.loc 1 211 2 is_stmt 1
	.loc 1 212 2
	.loc 1 213 2
	.loc 1 214 2
	.loc 1 215 2
	.loc 1 215 6 is_stmt 0
	sw	zero,36(sp)
	sw	zero,40(sp)
	sw	zero,44(sp)
	.loc 1 217 2 is_stmt 1
	.loc 1 218 2
	call	init_timer
.LVL46:
	.loc 1 219 2
	lw	a1,40(s1)
	addi	a0,sp,24
	call	countdown_ms
.LVL47:
	.loc 1 221 2
	.loc 1 223 15 is_stmt 0
	mv	a0,s1
	.loc 1 221 16
	sw	zero,16(sp)
	.loc 1 222 2 is_stmt 1
	.loc 1 222 8 is_stmt 0
	sw	zero,20(sp)
	.loc 1 223 2 is_stmt 1
	.loc 1 223 15 is_stmt 0
	call	aws_iot_mqtt_get_next_packet_id
.LVL48:
	.loc 1 226 7
	lw	a1,56(s1)
	.loc 1 223 15
	mv	a2,a0
.LVL49:
	.loc 1 224 2 is_stmt 1
	.loc 1 226 7 is_stmt 0
	addi	a6,sp,16
	addi	a5,sp,12
	addi	a4,sp,4
	addi	a3,sp,8
	addi	a0,s1,68
	.loc 1 224 13
	sh	zero,6(sp)
	.loc 1 226 2 is_stmt 1
	.loc 1 226 7 is_stmt 0
	call	_aws_iot_mqtt_serialize_subscribe.constprop.0
.LVL50:
	mv	s0,a0
.LVL51:
	.loc 1 228 2 is_stmt 1
	.loc 1 228 4 is_stmt 0
	bne	a0,zero,.L16
	addi	a5,s1,1168
.LBB8:
.LBB9:
	.loc 1 178 10
	li	s5,0
.LVL52:
	.loc 1 178 2
	li	a4,5
.L18:
.LVL53:
	.loc 1 179 3 is_stmt 1
	.loc 1 179 5 is_stmt 0
	lw	a3,0(a5)
	beq	a3,zero,.L17
	.loc 1 178 24 is_stmt 1
	.loc 1 178 27 is_stmt 0
	addi	s5,s5,1
.LVL54:
	.loc 1 178 15 is_stmt 1
	.loc 1 178 2 is_stmt 0
	addi	a5,a5,20
	bne	s5,a4,.L18
.LBE9:
.LBE8:
	.loc 1 234 15
	li	s0,-34
.LVL55:
.L16:
	.loc 1 273 30 is_stmt 1
.LBE7:
.LBE6:
	.loc 1 324 2
	.loc 1 324 7 is_stmt 0
	mv	a2,s2
	li	a1,6
	mv	a0,s1
	call	aws_iot_mqtt_set_client_state
.LVL56:
	mv	a6,a0
.LVL57:
	.loc 1 325 2 is_stmt 1
	.loc 1 325 4 is_stmt 0
	beq	s0,zero,.L13
	mv	a6,s0
.LVL58:
.L13:
	.loc 1 330 1
	lw	ra,76(sp)
	.cfi_restore 1
	lw	s0,72(sp)
	.cfi_restore 8
	lw	s1,68(sp)
	.cfi_restore 9
	lw	s2,64(sp)
	.cfi_restore 18
	lw	s3,60(sp)
	.cfi_restore 19
	lw	s4,56(sp)
	.cfi_restore 20
	lw	s5,52(sp)
	.cfi_restore 21
	lw	s6,48(sp)
	.cfi_restore 22
	mv	a0,a6
	addi	sp,sp,80
	.cfi_def_cfa_offset 0
	jr	ra
.LVL59:
.L20:
	.loc 1 304 15
	li	a6,-2
	.loc 1 330 1
	mv	a0,a6
.LVL60:
	ret
.LVL61:
.L17:
	.cfi_def_cfa_offset 80
	.cfi_offset 1, -4
	.cfi_offset 8, -8
	.cfi_offset 9, -12
	.cfi_offset 18, -16
	.cfi_offset 19, -20
	.cfi_offset 20, -24
	.cfi_offset 21, -28
	.cfi_offset 22, -32
.LBB13:
.LBB12:
.LBB11:
.LBB10:
	.loc 1 184 2 is_stmt 1
	.loc 1 184 7
	.loc 1 184 26
.LBE10:
.LBE11:
	.loc 1 233 2
	.loc 1 234 60
	.loc 1 238 2
	.loc 1 238 7 is_stmt 0
	lw	a1,16(sp)
	addi	a2,sp,24
	mv	a0,s1
	call	aws_iot_mqtt_internal_send_packet
.LVL62:
	mv	s0,a0
.LVL63:
	.loc 1 239 2 is_stmt 1
	.loc 1 239 4 is_stmt 0
	bne	a0,zero,.L16
	.loc 1 240 26 is_stmt 1
	.loc 1 244 2
	.loc 1 244 7 is_stmt 0
	addi	a2,sp,24
	li	a1,9
	mv	a0,s1
	call	aws_iot_mqtt_internal_wait_for_read
.LVL64:
	mv	s0,a0
.LVL65:
	.loc 1 245 2 is_stmt 1
	.loc 1 245 4 is_stmt 0
	bne	a0,zero,.L16
	.loc 1 246 26 is_stmt 1
	.loc 1 250 2
	.loc 1 250 7 is_stmt 0
	lw	a4,60(s1)
	addi	a3,s1,580
	addi	a2,sp,36
	addi	a1,sp,20
	addi	a0,sp,6
	call	_aws_iot_mqtt_deserialize_suback.constprop.0
.LVL66:
	mv	s0,a0
.LVL67:
	.loc 1 252 2 is_stmt 1
	.loc 1 252 4 is_stmt 0
	bne	a0,zero,.L16
	.loc 1 253 26 is_stmt 1
	.loc 1 263 2
	.loc 1 263 75 is_stmt 0
	li	a3,20
	mul	a3,s5,a3
	lw	a4,8(sp)
	add	a3,s1,a3
	addi	a5,a3,1152
	sw	a4,16(a5)
	.loc 1 265 2 is_stmt 1
	.loc 1 265 78 is_stmt 0
	lhu	a4,4(sp)
	sh	a4,1172(a3)
	.loc 1 267 2 is_stmt 1
	.loc 1 271 69 is_stmt 0
	lw	a4,12(sp)
	.loc 1 267 85
	sw	s3,28(a5)
	.loc 1 269 2 is_stmt 1
	.loc 1 269 89 is_stmt 0
	sw	s4,32(a5)
	.loc 1 271 2 is_stmt 1
	.loc 1 271 69 is_stmt 0
	sw	a4,24(a5)
	.loc 1 273 2 is_stmt 1
	.loc 1 273 7
	.loc 1 273 14 is_stmt 0
	j	.L16
.LBE12:
.LBE13:
	.cfi_endproc
.LFE27:
	.size	aws_iot_mqtt_subscribe, .-aws_iot_mqtt_subscribe
	.section	.text.aws_iot_mqtt_resubscribe,"ax",@progbits
	.align	1
	.globl	aws_iot_mqtt_resubscribe
	.type	aws_iot_mqtt_resubscribe, @function
aws_iot_mqtt_resubscribe:
.LFB29:
	.loc 1 412 63 is_stmt 1
	.cfi_startproc
.LVL68:
	.loc 1 413 2
	.loc 1 415 2
	.loc 1 417 2
	.loc 1 417 4 is_stmt 0
	beq	a0,zero,.L43
	.loc 1 412 63
	addi	sp,sp,-96
	.cfi_def_cfa_offset 96
	sw	s1,84(sp)
	sw	ra,92(sp)
	sw	s0,88(sp)
	sw	s2,80(sp)
	sw	s3,76(sp)
	sw	s4,72(sp)
	sw	s5,68(sp)
	sw	s6,64(sp)
	.cfi_offset 9, -12
	.cfi_offset 1, -4
	.cfi_offset 8, -8
	.cfi_offset 18, -16
	.cfi_offset 19, -20
	.cfi_offset 20, -24
	.cfi_offset 21, -28
	.cfi_offset 22, -32
	mv	s1,a0
	.loc 1 418 40 is_stmt 1
	.loc 1 421 2
	.loc 1 421 13 is_stmt 0
	call	aws_iot_mqtt_is_client_connected
.LVL69:
	.loc 1 422 15
	li	a5,-13
	.loc 1 421 4
	beq	a0,zero,.L34
	.loc 1 422 50 is_stmt 1
	.loc 1 425 2
	.loc 1 425 36 is_stmt 0
	mv	a0,s1
	call	aws_iot_mqtt_get_client_state
.LVL70:
	.loc 1 425 4
	li	a4,3
	.loc 1 426 15
	li	a5,-30
	.loc 1 425 4
	bne	a0,a4,.L34
	.loc 1 426 50 is_stmt 1
	.loc 1 429 2
	.loc 1 429 7 is_stmt 0
	li	a2,8
	li	a1,3
	mv	a0,s1
	call	aws_iot_mqtt_set_client_state
.LVL71:
	mv	a5,a0
.LVL72:
	.loc 1 431 2 is_stmt 1
	.loc 1 431 4 is_stmt 0
	bne	a0,zero,.L34
	.loc 1 432 26 is_stmt 1
	.loc 1 435 2
.LVL73:
.LBB18:
.LBB19:
	.loc 1 346 2
	.loc 1 347 2
	.loc 1 348 2
	.loc 1 349 2
	.loc 1 350 2
	addi	s2,s1,1168
	.loc 1 350 6 is_stmt 0
	sw	zero,52(sp)
	sw	zero,56(sp)
	sw	zero,60(sp)
	.loc 1 352 2 is_stmt 1
	.loc 1 354 2
	.loc 1 354 11 is_stmt 0
	sh	zero,30(sp)
	.loc 1 355 2 is_stmt 1
	.loc 1 355 6 is_stmt 0
	sw	zero,32(sp)
	.loc 1 356 2 is_stmt 1
	.loc 1 356 8 is_stmt 0
	sw	zero,36(sp)
	.loc 1 357 2 is_stmt 1
.LVL74:
.LBB20:
.LBB21:
	.loc 1 174 2
	.loc 1 176 2
	.loc 1 178 2
	.loc 1 178 15
.LBE21:
.LBE20:
	.loc 1 356 8 is_stmt 0
	mv	a5,s2
.LBB23:
.LBB22:
	.loc 1 178 10
	li	s3,0
	.loc 1 178 2
	li	a4,5
.LVL75:
.L37:
	.loc 1 179 3 is_stmt 1
	.loc 1 179 5 is_stmt 0
	lw	a3,0(a5)
	beq	a3,zero,.L36
	.loc 1 178 24 is_stmt 1
	.loc 1 178 27 is_stmt 0
	addi	s3,s3,1
.LVL76:
	.loc 1 178 15 is_stmt 1
	.loc 1 178 2 is_stmt 0
	addi	a5,a5,20
	bne	s3,a4,.L37
.L36:
	.loc 1 178 10
	li	s4,0
.LBE22:
.LBE23:
	.loc 1 367 61
	addi	s5,s1,68
	.loc 1 389 94
	addi	s6,s1,580
.LVL77:
.L38:
	.loc 1 359 15 is_stmt 1
	.loc 1 359 2 is_stmt 0
	bne	s3,s4,.L42
	.loc 1 396 14
	li	s0,0
	j	.L40
.L42:
	.loc 1 360 3 is_stmt 1
	.loc 1 360 5 is_stmt 0
	lw	a5,0(s2)
	bne	a5,zero,.L39
.L41:
	.loc 1 392 27 is_stmt 1
	.loc 1 359 39
	.loc 1 359 42 is_stmt 0
	addi	s4,s4,1
.LVL78:
	addi	s2,s2,20
	j	.L38
.L39:
	.loc 1 364 3 is_stmt 1
	addi	a0,sp,40
	call	init_timer
.LVL79:
	.loc 1 365 3
	lw	a1,40(s1)
	addi	a0,sp,40
	call	countdown_ms
.LVL80:
	.loc 1 367 3
	.loc 1 367 8 is_stmt 0
	lw	a1,56(s1)
	mv	a0,s1
	sw	a1,12(sp)
	call	aws_iot_mqtt_get_next_packet_id
.LVL81:
	lw	a1,12(sp)
	mv	a2,a0
	addi	a6,sp,32
	addi	a5,s2,8
	addi	a4,s2,4
	mv	a3,s2
	mv	a0,s5
	call	_aws_iot_mqtt_serialize_subscribe.constprop.0
.LVL82:
	mv	s0,a0
.LVL83:
	.loc 1 372 3 is_stmt 1
	.loc 1 372 5 is_stmt 0
	bne	a0,zero,.L40
	.loc 1 373 27 is_stmt 1
	.loc 1 377 3
	.loc 1 377 8 is_stmt 0
	lw	a1,32(sp)
	addi	a2,sp,40
	mv	a0,s1
	call	aws_iot_mqtt_internal_send_packet
.LVL84:
	mv	s0,a0
.LVL85:
	.loc 1 378 3 is_stmt 1
	.loc 1 378 5 is_stmt 0
	bne	a0,zero,.L40
	.loc 1 379 27 is_stmt 1
	.loc 1 383 3
	.loc 1 383 8 is_stmt 0
	addi	a2,sp,40
	li	a1,9
	mv	a0,s1
	call	aws_iot_mqtt_internal_wait_for_read
.LVL86:
	mv	s0,a0
.LVL87:
	.loc 1 384 3 is_stmt 1
	.loc 1 384 5 is_stmt 0
	bne	a0,zero,.L40
	.loc 1 385 27 is_stmt 1
	.loc 1 389 3
	.loc 1 389 8 is_stmt 0
	lw	a4,60(s1)
	mv	a3,s6
	addi	a2,sp,52
	addi	a1,sp,36
	addi	a0,sp,30
	call	_aws_iot_mqtt_deserialize_suback.constprop.0
.LVL88:
	mv	s0,a0
.LVL89:
	.loc 1 391 3 is_stmt 1
	.loc 1 391 5 is_stmt 0
	beq	a0,zero,.L41
.LVL90:
.L40:
	.loc 1 396 30 is_stmt 1
.LBE19:
.LBE18:
	.loc 1 437 2
	.loc 1 437 7 is_stmt 0
	li	a2,3
	li	a1,8
	mv	a0,s1
	call	aws_iot_mqtt_set_client_state
.LVL91:
	mv	a5,a0
.LVL92:
	.loc 1 439 2 is_stmt 1
	.loc 1 439 4 is_stmt 0
	beq	s0,zero,.L34
	mv	a5,s0
.LVL93:
.L34:
	.loc 1 444 1
	lw	ra,92(sp)
	.cfi_restore 1
	lw	s0,88(sp)
	.cfi_restore 8
	lw	s1,84(sp)
	.cfi_restore 9
.LVL94:
	lw	s2,80(sp)
	.cfi_restore 18
	lw	s3,76(sp)
	.cfi_restore 19
	lw	s4,72(sp)
	.cfi_restore 20
	lw	s5,68(sp)
	.cfi_restore 21
	lw	s6,64(sp)
	.cfi_restore 22
	mv	a0,a5
	addi	sp,sp,96
	.cfi_def_cfa_offset 0
	jr	ra
.LVL95:
.L43:
	.loc 1 418 15
	li	a5,-2
	.loc 1 444 1
	mv	a0,a5
.LVL96:
	ret
	.cfi_endproc
.LFE29:
	.size	aws_iot_mqtt_resubscribe, .-aws_iot_mqtt_resubscribe
	.text
.Letext0:
	.file 2 "/home/anh/Desktop/wb2/Ai-Thinker-WB2/toolchain/riscv/Linux/lib/gcc/riscv64-unknown-elf/10.2.0/include/stdint-gcc.h"
	.file 3 "/home/anh/Desktop/wb2/Ai-Thinker-WB2/toolchain/riscv/Linux/lib/gcc/riscv64-unknown-elf/10.2.0/include/stddef.h"
	.file 4 "/home/anh/Desktop/wb2/Ai-Thinker-WB2/components/3rdparty/aws-iot/aws-iot-device-sdk-embedded-C/include/aws_iot_error.h"
	.file 5 "/home/anh/Desktop/wb2/Ai-Thinker-WB2/components/3rdparty/aws-iot/port/include/timer_platform.h"
	.file 6 "/home/anh/Desktop/wb2/Ai-Thinker-WB2/components/3rdparty/aws-iot/aws-iot-device-sdk-embedded-C/include/timer_interface.h"
	.file 7 "/home/anh/Desktop/wb2/Ai-Thinker-WB2/components/security/mbedtls_lts/mbedtls/include/mbedtls/bignum.h"
	.file 8 "/home/anh/Desktop/wb2/Ai-Thinker-WB2/components/security/mbedtls_lts/mbedtls/include/mbedtls/ecp.h"
	.file 9 "/home/anh/Desktop/wb2/Ai-Thinker-WB2/components/security/mbedtls_lts/mbedtls/include/mbedtls/md.h"
	.file 10 "/home/anh/Desktop/wb2/Ai-Thinker-WB2/components/security/mbedtls_lts/mbedtls/include/mbedtls/pk.h"
	.file 11 "/home/anh/Desktop/wb2/Ai-Thinker-WB2/components/security/mbedtls_lts/mbedtls/include/mbedtls/asn1.h"
	.file 12 "/home/anh/Desktop/wb2/Ai-Thinker-WB2/components/security/mbedtls_lts/mbedtls/include/mbedtls/x509.h"
	.file 13 "/home/anh/Desktop/wb2/Ai-Thinker-WB2/components/security/mbedtls_lts/mbedtls/include/mbedtls/x509_crl.h"
	.file 14 "/home/anh/Desktop/wb2/Ai-Thinker-WB2/components/security/mbedtls_lts/mbedtls/include/mbedtls/x509_crt.h"
	.file 15 "/home/anh/Desktop/wb2/Ai-Thinker-WB2/components/security/mbedtls_lts/mbedtls/include/mbedtls/ssl.h"
	.file 16 "/home/anh/Desktop/wb2/Ai-Thinker-WB2/components/security/mbedtls_lts/mbedtls/include/mbedtls/net_sockets.h"
	.file 17 "/home/anh/Desktop/wb2/Ai-Thinker-WB2/components/security/mbedtls_lts/mbedtls/include/mbedtls/sha512.h"
	.file 18 "/home/anh/Desktop/wb2/Ai-Thinker-WB2/components/security/mbedtls_lts/mbedtls/include/mbedtls/entropy.h"
	.file 19 "/home/anh/Desktop/wb2/Ai-Thinker-WB2/components/security/mbedtls_lts/mbedtls/include/mbedtls/aes.h"
	.file 20 "/home/anh/Desktop/wb2/Ai-Thinker-WB2/components/security/mbedtls_lts/mbedtls/include/mbedtls/ctr_drbg.h"
	.file 21 "/home/anh/Desktop/wb2/Ai-Thinker-WB2/components/3rdparty/aws-iot/port/include/network_platform.h"
	.file 22 "/home/anh/Desktop/wb2/Ai-Thinker-WB2/components/3rdparty/aws-iot/aws-iot-device-sdk-embedded-C/include/network_interface.h"
	.file 23 "/home/anh/Desktop/wb2/Ai-Thinker-WB2/components/platform/soc/bl602/freertos_riscv_ram/config/queue.h"
	.file 24 "/home/anh/Desktop/wb2/Ai-Thinker-WB2/components/platform/soc/bl602/freertos_riscv_ram/config/semphr.h"
	.file 25 "/home/anh/Desktop/wb2/Ai-Thinker-WB2/components/3rdparty/aws-iot/port/include/threads_platform.h"
	.file 26 "/home/anh/Desktop/wb2/Ai-Thinker-WB2/components/3rdparty/aws-iot/aws-iot-device-sdk-embedded-C/include/threads_interface.h"
	.file 27 "/home/anh/Desktop/wb2/Ai-Thinker-WB2/components/3rdparty/aws-iot/aws-iot-device-sdk-embedded-C/include/aws_iot_mqtt_client.h"
	.file 28 "/home/anh/Desktop/wb2/Ai-Thinker-WB2/components/3rdparty/aws-iot/aws-iot-device-sdk-embedded-C/include/aws_iot_mqtt_client_common_internal.h"