	.file	"aws_iot_shadow_records.c"
	.option nopic
	.attribute arch, "rv32i2p0_m2p0_f2p0_c2p0"
	.attribute unaligned_access, 0
	.attribute stack_align, 16
	.text
.Ltext0:
	.cfi_sections	.debug_frame
	.section	.text.getNextFreeIndexOfSubscriptionList,"ax",@progbits
	.align	1
	.type	getNextFreeIndexOfSubscriptionList, @function
getNextFreeIndexOfSubscriptionList:
.LFB25:
	.file 1 "/home/anh/Desktop/wb2/Ai-Thinker-WB2/components/3rdparty/aws-iot/aws-iot-device-sdk-embedded-C/src/aws_iot_shadow_records.c"
	.loc 1 132 57
	.cfi_startproc
	.loc 1 133 2
	.loc 1 134 2
.LVL0:
	.loc 1 134 13
	lui	a4,%hi(SubscriptionList)
	addi	a3,a4,%lo(SubscriptionList)
	.loc 1 132 57 is_stmt 0
	li	a5,0
	addi	a4,a4,%lo(SubscriptionList)
	.loc 1 134 2
	li	a2,20
.LVL1:
.L4:
	.loc 1 135 5
	lbu	a1,81(a3)
	andi	a0,a5,0xff
.LVL2:
	.loc 1 135 3 is_stmt 1
	.loc 1 135 5 is_stmt 0
	beq	a1,zero,.L2
	.loc 1 136 4 is_stmt 1
	.loc 1 136 31 is_stmt 0
	li	a3,83
	mul	a5,a5,a3
	.loc 1 137 11
	slli	a0,a0,16
.LVL3:
	srai	a0,a0,16
	.loc 1 136 31
	add	a5,a4,a5
	sb	zero,81(a5)
	.loc 1 137 4 is_stmt 1
	.loc 1 137 11 is_stmt 0
	ret
.LVL4:
.L2:
	.loc 1 134 23 is_stmt 1 discriminator 2
	.loc 1 134 13 discriminator 2
	.loc 1 134 2 is_stmt 0 discriminator 2
	addi	a5,a5,1
.LVL5:
	addi	a3,a3,83
	bne	a5,a2,.L4
	.loc 1 140 9
	li	a0,-1
.LVL6:
	.loc 1 141 1
	ret
	.cfi_endproc
.LFE25:
	.size	getNextFreeIndexOfSubscriptionList, .-getNextFreeIndexOfSubscriptionList
	.section	.text.shadow_delta_callback,"ax",@progbits
	.align	1
	.type	shadow_delta_callback, @function
shadow_delta_callback:
.LFB39:
	.loc 1 474 83 is_stmt 1
	.cfi_startproc
.LVL7:
	.loc 1 475 2
	.loc 1 476 2
	.loc 1 477 2
	.loc 1 478 2
	.loc 1 479 2
	.loc 1 480 2
	.loc 1 474 83 is_stmt 0
	addi	sp,sp,-48
	.cfi_def_cfa_offset 48
	sw	ra,44(sp)
	sw	s0,40(sp)
	sw	s1,36(sp)
	sw	s2,32(sp)
	sw	s3,28(sp)
	sw	s4,24(sp)
	.cfi_offset 1, -4
	.cfi_offset 8, -8
	.cfi_offset 9, -12
	.cfi_offset 18, -16
	.cfi_offset 19, -20
	.cfi_offset 20, -24
	.loc 1 489 11
	lw	a2,12(a3)
.LVL8:
	.loc 1 480 11
	sw	zero,12(sp)
	.loc 1 482 2 is_stmt 1
	.loc 1 484 2
	.loc 1 485 2
	.loc 1 486 2
	.loc 1 487 2
	.loc 1 489 2
	.loc 1 489 4 is_stmt 0
	li	a5,512
	bgtu	a2,a5,.L6
	.loc 1 494 2
	lw	a1,8(a3)
.LVL9:
	lui	s1,%hi(shadowRxBuf)
	addi	a0,s1,%lo(shadowRxBuf)
.LVL10:
	mv	s0,a3
	.loc 1 494 2 is_stmt 1
	call	memcpy
.LVL11:
	.loc 1 495 2
	.loc 1 495 20 is_stmt 0
	lw	a4,12(s0)
	.loc 1 495 34
	addi	a5,s1,%lo(shadowRxBuf)
	.loc 1 497 6
	mv	a3,sp
	.loc 1 495 34
	add	a5,a5,a4
	sb	zero,0(a5)
	.loc 1 497 2 is_stmt 1
	.loc 1 497 6 is_stmt 0
	li	a2,0
	li	a1,513
	addi	a0,s1,%lo(shadowRxBuf)
	call	isJsonValidAndParse
.LVL12:
	addi	s4,s1,%lo(shadowRxBuf)
	.loc 1 497 4
	beq	a0,zero,.L6
	.loc 1 502 2 is_stmt 1
	.loc 1 502 4 is_stmt 0
	lui	a5,%hi(.LANCHOR0)
	lbu	a5,%lo(.LANCHOR0)(a5)
	beq	a5,zero,.L9
	.loc 1 503 3 is_stmt 1
	.loc 1 503 6 is_stmt 0
	lw	a2,0(sp)
	addi	a3,sp,12
	li	a1,0
	addi	a0,s1,%lo(shadowRxBuf)
	call	extractVersionNumber
.LVL13:
	.loc 1 503 5
	beq	a0,zero,.L9
	.loc 1 504 4 is_stmt 1
	.loc 1 504 25 is_stmt 0
	lui	a5,%hi(.LANCHOR1)
	addi	a5,a5,%lo(.LANCHOR1)
	lw	a4,12(sp)
	.loc 1 504 6
	lw	a3,0(a5)
	bleu	a4,a3,.L6
	.loc 1 505 5 is_stmt 1
	.loc 1 505 26 is_stmt 0
	sw	a4,0(a5)
.L9:
	lui	s0,%hi(.LANCHOR2)
.LVL14:
	addi	s0,s0,%lo(.LANCHOR2)
	.loc 1 474 83 discriminator 1
	li	s2,0
	.loc 1 514 15 discriminator 1
	lui	s3,%hi(.LANCHOR3)
.LVL15:
.L11:
	.loc 1 514 13 is_stmt 1 discriminator 1
	.loc 1 514 2 is_stmt 0 discriminator 1
	lw	a5,%lo(.LANCHOR3)(s3)
	bgtu	a5,s2,.L15
.LVL16:
.L6:
	.loc 1 525 1
	lw	ra,44(sp)
	.cfi_remember_state
	.cfi_restore 1
	lw	s0,40(sp)
	.cfi_restore 8
	lw	s1,36(sp)
	.cfi_restore 9
	lw	s2,32(sp)
	.cfi_restore 18
	lw	s3,28(sp)
	.cfi_restore 19
	lw	s4,24(sp)
	.cfi_restore 20
	addi	sp,sp,48
	.cfi_def_cfa_offset 0
	jr	ra
.LVL17:
.L15:
	.cfi_restore_state
	.loc 1 515 3 is_stmt 1
	.loc 1 515 5 is_stmt 0
	lbu	a5,12(s0)
	bne	a5,zero,.L13
	.loc 1 516 4 is_stmt 1
	.loc 1 516 7 is_stmt 0
	lw	a3,4(s0)
	lw	a2,0(sp)
	addi	a5,sp,4
	addi	a4,sp,8
	li	a1,0
	addi	a0,s1,%lo(shadowRxBuf)
	call	isJsonKeyMatchingAndUpdateValue
.LVL18:
	.loc 1 516 6
	beq	a0,zero,.L13
	.loc 1 518 5 is_stmt 1
	.loc 1 518 21 is_stmt 0
	lw	a5,8(s0)
	.loc 1 518 7
	beq	a5,zero,.L13
	.loc 1 519 6 is_stmt 1
	lw	a0,4(sp)
	lw	a2,4(s0)
	lw	a1,8(sp)
	add	a0,s4,a0
	jalr	a5
.LVL19:
.L13:
	.loc 1 514 34 discriminator 2
	.loc 1 514 35 is_stmt 0 discriminator 2
	addi	s2,s2,1
.LVL20:
	addi	s0,s0,16
	j	.L11
	.cfi_endproc
.LFE39:
	.size	shadow_delta_callback, .-shadow_delta_callback
	.section	.text.findIndexOfSubscriptionList,"ax",@progbits
	.align	1
	.type	findIndexOfSubscriptionList, @function
findIndexOfSubscriptionList:
.LFB29:
	.loc 1 238 64 is_stmt 1
	.cfi_startproc
.LVL21:
	.loc 1 239 2
	.loc 1 240 2
	.loc 1 240 13
	.loc 1 238 64 is_stmt 0
	addi	sp,sp,-32
	.cfi_def_cfa_offset 32
	sw	s1,20(sp)
	.cfi_offset 9, -12
	lui	s1,%hi(SubscriptionList)
	sw	s0,24(sp)
	sw	s2,16(sp)
	sw	s3,12(sp)
	sw	ra,28(sp)
	.cfi_offset 8, -8
	.cfi_offset 18, -16
	.cfi_offset 19, -20
	.cfi_offset 1, -4
	.loc 1 238 64
	mv	s2,a0
	addi	s1,s1,%lo(SubscriptionList)
	.loc 1 240 8
	li	s0,0
	.loc 1 240 2
	li	s3,20
.LVL22:
.L33:
	.loc 1 241 3 is_stmt 1
	.loc 1 241 5 is_stmt 0
	lbu	a5,81(s1)
	bne	a5,zero,.L31
	.loc 1 242 4 is_stmt 1
	.loc 1 242 8 is_stmt 0
	mv	a1,s1
	mv	a0,s2
	call	strcmp
.LVL23:
	.loc 1 242 6
	bne	a0,zero,.L31
	.loc 1 243 5 is_stmt 1
	.loc 1 243 12 is_stmt 0
	slli	a0,s0,16
	srai	a0,a0,16
.L32:
	.loc 1 248 1
	lw	ra,28(sp)
	.cfi_remember_state
	.cfi_restore 1
	lw	s0,24(sp)
	.cfi_restore 8
.LVL24:
	lw	s1,20(sp)
	.cfi_restore 9
	lw	s2,16(sp)
	.cfi_restore 18
.LVL25:
	lw	s3,12(sp)
	.cfi_restore 19
	addi	sp,sp,32
	.cfi_def_cfa_offset 0
	jr	ra
.LVL26:
.L31:
	.cfi_restore_state
	.loc 1 240 23 is_stmt 1
	.loc 1 240 24 is_stmt 0
	addi	s0,s0,1
.LVL27:
	andi	s0,s0,0xff
.LVL28:
	.loc 1 240 13 is_stmt 1
	.loc 1 240 2 is_stmt 0
	addi	s1,s1,83
	bne	s0,s3,.L33
	.loc 1 247 9
	li	a0,-1
	j	.L32
	.cfi_endproc
.LFE29:
	.size	findIndexOfSubscriptionList, .-findIndexOfSubscriptionList
	.section	.rodata.topicNameFromThingAndAction.str1.4,"aMS",@progbits,1
	.align	2
.LC0:
	.string	"get"
	.align	2
.LC1:
	.string	"update"
	.align	2
.LC2:
	.string	"delete"
	.align	2
.LC3:
	.string	"accepted"
	.align	2
.LC4:
	.string	"rejected"
	.align	2
.LC5:
	.string	"$aws/things/%s/shadow/%s"
	.align	2
.LC6:
	.string	"$aws/things/%s/shadow/%s/%s"
	.section	.text.topicNameFromThingAndAction,"ax",@progbits
	.align	1
	.type	topicNameFromThingAndAction, @function
topicNameFromThingAndAction:
.LFB26:
	.loc 1 144 42 is_stmt 1
	.cfi_startproc
.LVL29:
	.loc 1 146 2
	.loc 1 147 2
	.loc 1 149 2
	.loc 1 144 42 is_stmt 0
	addi	sp,sp,-48
	.cfi_def_cfa_offset 48
	sw	s0,40(sp)
	sw	s1,36(sp)
	sw	s2,32(sp)
	sw	ra,44(sp)
	.cfi_offset 8, -8
	.cfi_offset 9, -12
	.cfi_offset 18, -16
	.cfi_offset 1, -4
	.loc 1 144 42
	mv	s0,a0
	mv	s1,a1
	mv	s2,a3
	.loc 1 149 4
	bne	a2,zero,.L37
	.loc 1 150 3 is_stmt 1
	lui	a1,%hi(.LC0)
.LVL30:
	li	a2,10
.LVL31:
	addi	a1,a1,%lo(.LC0)
.L45:
	.loc 1 154 3 is_stmt 0
	addi	a0,sp,8
.LVL32:
	call	strncpy
.LVL33:
.L38:
	.loc 1 157 2 is_stmt 1
	.loc 1 157 4 is_stmt 0
	bne	s2,zero,.L40
	.loc 1 158 3 is_stmt 1
	lui	a1,%hi(.LC3)
	li	a2,10
	addi	a1,a1,%lo(.LC3)
.L46:
	.loc 1 160 3 is_stmt 0
	addi	a0,sp,20
	call	strncpy
.LVL34:
	.loc 1 163 2 is_stmt 1
	.loc 1 166 3
	lui	a2,%hi(.LC6)
	addi	a5,sp,20
	addi	a4,sp,8
	mv	a3,s1
	addi	a2,a2,%lo(.LC6)
	li	a1,80
	mv	a0,s0
	call	snprintf
.LVL35:
.L36:
	.loc 1 169 1 is_stmt 0
	lw	ra,44(sp)
	.cfi_remember_state
	.cfi_restore 1
	lw	s0,40(sp)
	.cfi_restore 8
.LVL36:
	lw	s1,36(sp)
	.cfi_restore 9
.LVL37:
	lw	s2,32(sp)
	.cfi_restore 18
.LVL38:
	addi	sp,sp,48
	.cfi_def_cfa_offset 0
	jr	ra
.LVL39:
.L37:
	.cfi_restore_state
	.loc 1 151 9 is_stmt 1
	.loc 1 151 11 is_stmt 0
	li	a5,1
	bne	a2,a5,.L39
	.loc 1 152 3 is_stmt 1
	lui	a1,%hi(.LC1)
	li	a2,10
.LVL40:
	addi	a1,a1,%lo(.LC1)
	j	.L45
.LVL41:
.L39:
	.loc 1 153 9
	.loc 1 153 11 is_stmt 0
	li	a5,2
	bne	a2,a5,.L38
	.loc 1 154 3 is_stmt 1
	lui	a1,%hi(.LC2)
	li	a2,10
.LVL42:
	addi	a1,a1,%lo(.LC2)
	j	.L45
.LVL43:
.L40:
	.loc 1 159 9
	.loc 1 159 11 is_stmt 0
	li	a5,1
	bne	s2,a5,.L42
	.loc 1 160 3 is_stmt 1
	lui	a1,%hi(.LC4)
	li	a2,10
	addi	a1,a1,%lo(.LC4)
	j	.L46
.L42:
	.loc 1 163 2
	.loc 1 164 3
	lui	a2,%hi(.LC5)
	addi	a4,sp,8
	mv	a3,s1
	addi	a2,a2,%lo(.LC5)
	li	a1,80
	mv	a0,s0
	call	snprintf
.LVL44:
	j	.L36
	.cfi_endproc
.LFE26:
	.size	topicNameFromThingAndAction, .-topicNameFromThingAndAction
	.section	.text.unsubscribeFromAcceptedAndRejected,"ax",@progbits
	.align	1
	.type	unsubscribeFromAcceptedAndRejected, @function
unsubscribeFromAcceptedAndRejected:
.LFB30:
	.loc 1 250 63
	.cfi_startproc
.LVL45:
	.loc 1 252 2
	.loc 1 253 2
	.loc 1 254 2
	.loc 1 256 2
	.loc 1 258 2
	.loc 1 250 63 is_stmt 0
	addi	sp,sp,-192
	.cfi_def_cfa_offset 192
	sw	s0,184(sp)
	.cfi_offset 8, -8
	.loc 1 258 76
	li	s0,140
	mul	a0,a0,s0
.LVL46:
	lui	s0,%hi(AckWaitList)
	addi	s0,s0,%lo(AckWaitList)
	.loc 1 250 63
	sw	ra,188(sp)
	sw	s1,180(sp)
	sw	s2,176(sp)
	.cfi_offset 1, -4
	.cfi_offset 9, -12
	.cfi_offset 18, -16
	.loc 1 258 2
	li	a3,0
	.loc 1 258 76
	addi	a1,a0,90
	add	a1,a1,s0
	.loc 1 258 2
	add	s0,s0,a0
	lw	a2,112(s0)
	addi	a0,sp,16
	sw	a1,12(sp)
	call	topicNameFromThingAndAction
.LVL47:
	.loc 1 260 2 is_stmt 1
	lw	a2,112(s0)
	lw	a1,12(sp)
	addi	a0,sp,96
	li	a3,1
	call	topicNameFromThingAndAction
.LVL48:
	.loc 1 263 2
	.loc 1 263 17 is_stmt 0
	addi	a0,sp,16
	call	findIndexOfSubscriptionList
.LVL49:
	.loc 1 264 2 is_stmt 1
	.loc 1 264 4 is_stmt 0
	blt	a0,zero,.L49
	.loc 1 265 3 is_stmt 1
	.loc 1 265 81 is_stmt 0
	li	a4,83
	mul	a4,a0,a4
	lui	a5,%hi(SubscriptionList)
	addi	s1,a5,%lo(SubscriptionList)
	addi	a5,a5,%lo(SubscriptionList)
	add	s1,s1,a4
	.loc 1 265 5
	lbu	a4,82(s1)
	.loc 1 265 81
	lbu	s0,80(s1)
	.loc 1 265 5
	bne	a4,zero,.L50
	.loc 1 265 47 discriminator 1
	li	a4,1
	bne	s0,a4,.L50
	.loc 1 266 4 is_stmt 1
	.loc 1 266 14 is_stmt 0
	lui	a5,%hi(pMqttClient)
	lw	s2,%lo(pMqttClient)(a5)
	.loc 1 267 26
	addi	a0,sp,16
.LVL50:
	call	strlen
.LVL51:
	.loc 1 266 14
	slli	a2,a0,16
	srli	a2,a2,16
	addi	a1,sp,16
	mv	a0,s2
	call	aws_iot_mqtt_unsubscribe
.LVL52:
	.loc 1 268 4 is_stmt 1
	.loc 1 268 6 is_stmt 0
	bne	a0,zero,.L49
	.loc 1 269 5 is_stmt 1
	.loc 1 269 43 is_stmt 0
	sb	s0,81(s1)
.LVL53:
.L49:
	.loc 1 276 2 is_stmt 1
	.loc 1 276 17 is_stmt 0
	addi	a0,sp,96
	call	findIndexOfSubscriptionList
.LVL54:
	.loc 1 277 2 is_stmt 1
	.loc 1 277 4 is_stmt 0
	blt	a0,zero,.L47
	.loc 1 278 3 is_stmt 1
	.loc 1 278 81 is_stmt 0
	li	a4,83
	mul	a4,a0,a4
	lui	a5,%hi(SubscriptionList)
	addi	s1,a5,%lo(SubscriptionList)
	addi	a5,a5,%lo(SubscriptionList)
	add	s1,s1,a4
	.loc 1 278 5
	lbu	a4,82(s1)
	.loc 1 278 81
	lbu	s0,80(s1)
	.loc 1 278 5
	bne	a4,zero,.L54
	.loc 1 278 47 discriminator 1
	li	a4,1
	bne	s0,a4,.L54
	.loc 1 279 4 is_stmt 1
	.loc 1 279 14 is_stmt 0
	lui	a5,%hi(pMqttClient)
	lw	s2,%lo(pMqttClient)(a5)
	.loc 1 280 26
	addi	a0,sp,96
.LVL55:
	call	strlen
.LVL56:
	.loc 1 279 14
	slli	a2,a0,16
	srli	a2,a2,16
	addi	a1,sp,96
	mv	a0,s2
	call	aws_iot_mqtt_unsubscribe
.LVL57:
	.loc 1 281 4 is_stmt 1
	.loc 1 281 6 is_stmt 0
	bne	a0,zero,.L47
	.loc 1 282 5 is_stmt 1
	.loc 1 282 43 is_stmt 0
	sb	s0,81(s1)
.LVL58:
.L47:
	.loc 1 288 1
	lw	ra,188(sp)
	.cfi_remember_state
	.cfi_restore 1
	lw	s0,184(sp)
	.cfi_restore 8
	lw	s1,180(sp)
	.cfi_restore 9
	lw	s2,176(sp)
	.cfi_restore 18
	addi	sp,sp,192
	.cfi_def_cfa_offset 0
	jr	ra
.LVL59:
.L50:
	.cfi_restore_state
	.loc 1 271 10 is_stmt 1
	.loc 1 271 12 is_stmt 0
	li	a4,1
	bleu	s0,a4,.L49
	.loc 1 272 4 is_stmt 1
	.loc 1 272 40 is_stmt 0
	li	a4,83
	mul	a0,a0,a4
.LVL60:
	addi	s0,s0,-1
	add	a0,a5,a0
	sb	s0,80(a0)
	j	.L49
.LVL61:
.L54:
	.loc 1 284 10 is_stmt 1
	.loc 1 284 12 is_stmt 0
	li	a4,1
	bleu	s0,a4,.L47
	.loc 1 285 4 is_stmt 1
	.loc 1 285 40 is_stmt 0
	li	a4,83
	mul	a0,a0,a4
.LVL62:
	addi	s0,s0,-1
	add	a0,a5,a0
	sb	s0,80(a0)
	.loc 1 288 1
	j	.L47
	.cfi_endproc
.LFE30:
	.size	unsubscribeFromAcceptedAndRejected, .-unsubscribeFromAcceptedAndRejected
	.section	.rodata.AckStatusCallback.str1.4,"aMS",@progbits,1
	.align	2
.LC7:
	.string	"get/accepted"
	.align	2
.LC8:
	.string	"delta"
	.section	.text.AckStatusCallback,"ax",@progbits
	.align	1
	.type	AckStatusCallback, @function
AckStatusCallback:
.LFB28:
	.loc 1 181 59 is_stmt 1
	.cfi_startproc
.LVL63:
	.loc 1 182 2
	.loc 1 183 2
	.loc 1 184 2
	.loc 1 185 2
	.loc 1 187 2
	.loc 1 188 2
	.loc 1 189 2
	.loc 1 191 2
	.loc 1 191 11 is_stmt 0
	lw	a2,12(a3)
.LVL64:
	.loc 1 191 4
	li	a5,512
	bgtu	a2,a5,.L83
	.loc 1 181 59
	addi	sp,sp,-176
	.cfi_def_cfa_offset 176
	sw	s0,168(sp)
	sw	s3,156(sp)
	sw	s4,152(sp)
	sw	ra,172(sp)
	sw	s1,164(sp)
	sw	s2,160(sp)
	sw	s5,148(sp)
	sw	s6,144(sp)
	sw	s7,140(sp)
	sw	s8,136(sp)
	.cfi_offset 8, -8
	.cfi_offset 19, -20
	.cfi_offset 20, -24
	.cfi_offset 1, -4
	.cfi_offset 9, -12
	.cfi_offset 18, -16
	.cfi_offset 21, -28
	.cfi_offset 22, -32
	.cfi_offset 23, -36
	.cfi_offset 24, -40
	mv	s4,a1
	.loc 1 196 2
	lw	a1,8(a3)
.LVL65:
	lui	s3,%hi(shadowRxBuf)
	addi	a0,s3,%lo(shadowRxBuf)
.LVL66:
	mv	s0,a3
	.loc 1 196 2 is_stmt 1
	call	memcpy
.LVL67:
	.loc 1 197 2
	.loc 1 197 20 is_stmt 0
	lw	a4,12(s0)
	.loc 1 197 34
	addi	a5,s3,%lo(shadowRxBuf)
	.loc 1 199 6
	addi	a3,sp,12
	.loc 1 197 34
	add	a5,a5,a4
	sb	zero,0(a5)
	.loc 1 199 2 is_stmt 1
	.loc 1 199 6 is_stmt 0
	li	a2,0
	li	a1,513
	addi	a0,s3,%lo(shadowRxBuf)
	call	isJsonValidAndParse
.LVL68:
	.loc 1 199 4
	beq	a0,zero,.L57
	.loc 1 204 2 is_stmt 1
.LVL69:
.LBB6:
.LBB7:
	.loc 1 172 2
	.loc 1 172 5 is_stmt 0
	lui	a1,%hi(myThingName)
	addi	a1,a1,%lo(myThingName)
	mv	a0,s4
	call	strstr
.LVL70:
	.loc 1 172 4
	beq	a0,zero,.L60
	.loc 1 173 7
	lui	a1,%hi(.LC7)
	addi	a1,a1,%lo(.LC7)
	mv	a0,s4
	call	strstr
.LVL71:
	.loc 1 172 44
	beq	a0,zero,.L61
.L64:
.LVL72:
.LBE7:
.LBE6:
.LBB9:
	.loc 1 205 3 is_stmt 1
	.loc 1 206 6 is_stmt 0
	lw	a2,12(sp)
	addi	a3,sp,16
	li	a1,0
	addi	a0,s3,%lo(shadowRxBuf)
	.loc 1 205 12
	sw	zero,16(sp)
	.loc 1 206 3 is_stmt 1
	.loc 1 206 6 is_stmt 0
	call	extractVersionNumber
.LVL73:
	.loc 1 206 5
	bne	a0,zero,.L62
.L60:
.LBE9:
	.loc 1 213 2 is_stmt 1
	.loc 1 213 5 is_stmt 0
	li	a3,110
	addi	a2,sp,16
	li	a1,513
	addi	a0,s3,%lo(shadowRxBuf)
	call	extractClientToken
.LVL74:
	.loc 1 213 4
	beq	a0,zero,.L57
	lui	s1,%hi(AckWaitList)
	addi	s2,s1,%lo(AckWaitList)
	li	s0,0
.LVL75:
	addi	s1,s1,%lo(AckWaitList)
	li	s8,140
	.loc 1 214 3
	li	s7,10
.L70:
	.loc 1 215 6
	lbu	a5,124(s2)
	andi	s6,s0,0xff
.LVL76:
	.loc 1 215 4 is_stmt 1
	.loc 1 215 6 is_stmt 0
	bne	a5,zero,.L66
	.loc 1 216 5 is_stmt 1
	.loc 1 216 8 is_stmt 0
	addi	a1,sp,16
	mv	a0,s2
	mul	s5,s0,s8
	call	strcmp
.LVL77:
	.loc 1 216 7
	bne	a0,zero,.L66
.LBB10:
	.loc 1 217 6 is_stmt 1
.LVL78:
	.loc 1 218 6
	.loc 1 218 9 is_stmt 0
	lui	a1,%hi(.LC3)
	addi	a1,a1,%lo(.LC3)
	mv	a0,s4
	call	strstr
.LVL79:
	.loc 1 219 14
	li	a2,2
	.loc 1 218 8
	bne	a0,zero,.L67
	.loc 1 220 13 is_stmt 1
	.loc 1 220 16 is_stmt 0
	lui	a1,%hi(.LC4)
	addi	a1,a1,%lo(.LC4)
	mv	a0,s4
	call	strstr
.LVL80:
	.loc 1 217 26
	li	a2,1
.L67:
.LVL81:
	.loc 1 223 6 is_stmt 1
	.loc 1 224 7
	.loc 1 224 24 is_stmt 0
	li	a5,140
	mul	a5,s0,a5
	add	a5,s1,a5
	lw	a6,116(a5)
	.loc 1 224 9
	beq	a6,zero,.L68
	.loc 1 225 8 is_stmt 1
	lw	a4,120(a5)
	lw	a1,112(a5)
	.loc 1 225 46 is_stmt 0
	addi	a0,s5,90
	.loc 1 225 8
	addi	a3,s3,%lo(shadowRxBuf)
	add	a0,s1,a0
	jalr	a6
.LVL82:
.L68:
	.loc 1 228 7 is_stmt 1
	mv	a0,s6
	call	unsubscribeFromAcceptedAndRejected
.LVL83:
	.loc 1 229 7
	.loc 1 229 29 is_stmt 0
	li	a5,140
	mul	s0,s0,a5
	li	a5,1
	add	s1,s1,s0
	sb	a5,124(s1)
	.loc 1 230 7 is_stmt 1
.LVL84:
.L57:
.LBE10:
	.loc 1 236 1 is_stmt 0
	lw	ra,172(sp)
	.cfi_remember_state
	.cfi_restore 1
	lw	s0,168(sp)
	.cfi_restore 8
	lw	s1,164(sp)
	.cfi_restore 9
	lw	s2,160(sp)
	.cfi_restore 18
	lw	s3,156(sp)
	.cfi_restore 19
	lw	s4,152(sp)
	.cfi_restore 20
.LVL85:
	lw	s5,148(sp)
	.cfi_restore 21
	lw	s6,144(sp)
	.cfi_restore 22
	lw	s7,140(sp)
	.cfi_restore 23
	lw	s8,136(sp)
	.cfi_restore 24
	addi	sp,sp,176
	.cfi_def_cfa_offset 0
	jr	ra
.LVL86:
.L61:
	.cfi_restore_state
.LBB11:
.LBB8:
	.loc 1 174 4
	lui	a1,%hi(.LC8)
	addi	a1,a1,%lo(.LC8)
	mv	a0,s4
	call	strstr
.LVL87:
	.loc 1 173 50
	bne	a0,zero,.L64
	j	.L60
.LVL88:
.L62:
.LBE8:
.LBE11:
.LBB12:
	.loc 1 207 4 is_stmt 1
	.loc 1 207 25 is_stmt 0
	lui	a5,%hi(.LANCHOR1)
	addi	a5,a5,%lo(.LANCHOR1)
	lw	a4,16(sp)
	.loc 1 207 6
	lw	a3,0(a5)
	bleu	a4,a3,.L60
	.loc 1 208 5 is_stmt 1
	.loc 1 208 26 is_stmt 0
	sw	a4,0(a5)
	j	.L60
.LVL89:
.L66:
.LBE12:
	.loc 1 214 22 is_stmt 1
	.loc 1 214 14
	.loc 1 214 3 is_stmt 0
	addi	s0,s0,1
.LVL90:
	addi	s2,s2,140
	bne	s0,s7,.L70
	j	.L57
.LVL91:
.L83:
	.cfi_def_cfa_offset 0
	.cfi_restore 1
	.cfi_restore 8
	.cfi_restore 9
	.cfi_restore 18
	.cfi_restore 19
	.cfi_restore 20
	.cfi_restore 21
	.cfi_restore 22
	.cfi_restore 23
	.cfi_restore 24
	ret
	.cfi_endproc
.LFE28:
	.size	AckStatusCallback, .-AckStatusCallback
	.section	.text.initDeltaTokens,"ax",@progbits
	.align	1
	.globl	initDeltaTokens
	.type	initDeltaTokens, @function
initDeltaTokens:
.LFB23:
	.loc 1 99 28 is_stmt 1
	.cfi_startproc
	.loc 1 100 2
	.loc 1 101 2
.LVL92:
	.loc 1 101 13
	lui	a5,%hi(.LANCHOR2)
	addi	a5,a5,%lo(.LANCHOR2)
	addi	a4,a5,1920
	.loc 1 102 24 is_stmt 0
	li	a3,1
.LVL93:
.L87:
	.loc 1 102 3 is_stmt 1 discriminator 3
	.loc 1 102 24 is_stmt 0 discriminator 3
	sb	a3,12(a5)
	.loc 1 101 22 is_stmt 1 discriminator 3
	.loc 1 101 13 discriminator 3
	.loc 1 101 2 is_stmt 0 discriminator 3
	addi	a5,a5,16
	bne	a5,a4,.L87
	.loc 1 104 2 is_stmt 1
	.loc 1 104 18 is_stmt 0
	lui	a5,%hi(.LANCHOR3)
	sw	zero,%lo(.LANCHOR3)(a5)
	.loc 1 105 2 is_stmt 1
	.loc 1 105 27 is_stmt 0
	lui	a5,%hi(.LANCHOR4)
	sb	zero,%lo(.LANCHOR4)(a5)
	.loc 1 106 1
	ret
	.cfi_endproc
.LFE23:
	.size	initDeltaTokens, .-initDeltaTokens
	.section	.rodata.registerJsonTokenOnDelta.str1.4,"aMS",@progbits,1
	.align	2
.LC9:
	.string	"$aws/things/%s/shadow/update/delta"
	.section	.text.registerJsonTokenOnDelta,"ax",@progbits
	.align	1
	.globl	registerJsonTokenOnDelta
	.type	registerJsonTokenOnDelta, @function
registerJsonTokenOnDelta:
.LFB24:
	.loc 1 108 61 is_stmt 1
	.cfi_startproc
.LVL94:
	.loc 1 110 2
	.loc 1 112 2
	.loc 1 108 61 is_stmt 0
	addi	sp,sp,-32
	.cfi_def_cfa_offset 32
	sw	s1,20(sp)
	.cfi_offset 9, -12
	.loc 1 112 5
	lui	s1,%hi(.LANCHOR4)
	addi	s1,s1,%lo(.LANCHOR4)
	.loc 1 112 4
	lbu	a5,0(s1)
	.loc 1 108 61
	sw	s0,24(sp)
	sw	ra,28(sp)
	sw	s2,16(sp)
	sw	s3,12(sp)
	.cfi_offset 8, -8
	.cfi_offset 1, -4
	.cfi_offset 18, -16
	.cfi_offset 19, -20
	.loc 1 108 61
	mv	s0,a0
	li	a0,0
.LVL95:
	.loc 1 112 4
	bne	a5,zero,.L90
	.loc 1 113 3 is_stmt 1
	lui	s2,%hi(shadowDeltaTopic)
	lui	a3,%hi(myThingName)
	lui	a2,%hi(.LC9)
	addi	a3,a3,%lo(myThingName)
	addi	a2,a2,%lo(.LC9)
	li	a1,80
	addi	a0,s2,%lo(shadowDeltaTopic)
	call	snprintf
.LVL96:
	.loc 1 114 3
	.loc 1 114 8 is_stmt 0
	lui	a5,%hi(pMqttClient)
	lw	s3,%lo(pMqttClient)(a5)
	.loc 1 114 73
	addi	a0,s2,%lo(shadowDeltaTopic)
	call	strlen
.LVL97:
	.loc 1 114 8
	slli	a2,a0,16
	lui	a4,%hi(shadow_delta_callback)
	li	a5,0
	addi	a4,a4,%lo(shadow_delta_callback)
	li	a3,0
	srli	a2,a2,16
	addi	a1,s2,%lo(shadowDeltaTopic)
	mv	a0,s3
	call	aws_iot_mqtt_subscribe
.LVL98:
	.loc 1 116 3 is_stmt 1
	.loc 1 116 28 is_stmt 0
	li	a5,1
	sb	a5,0(s1)
.LVL99:
.L90:
	.loc 1 119 2 is_stmt 1
	.loc 1 119 21 is_stmt 0
	lui	a3,%hi(.LANCHOR3)
	addi	a3,a3,%lo(.LANCHOR3)
	lw	a4,0(a3)
	.loc 1 119 4
	li	a5,119
	bgtu	a4,a5,.L93
	.loc 1 123 2 is_stmt 1
	.loc 1 123 44 is_stmt 0
	lw	a2,0(s0)
	.loc 1 123 35
	lui	a5,%hi(.LANCHOR2)
	slli	a1,a4,4
	addi	a5,a5,%lo(.LANCHOR2)
	add	a5,a5,a1
	sw	a2,0(a5)
	.loc 1 124 2 is_stmt 1
	.loc 1 124 48 is_stmt 0
	lw	a2,16(s0)
	.loc 1 127 17
	addi	a4,a4,1
	.loc 1 125 38
	sw	s0,4(a5)
	.loc 1 124 39
	sw	a2,8(a5)
	.loc 1 125 2 is_stmt 1
	.loc 1 126 2
	.loc 1 126 37 is_stmt 0
	sb	zero,12(a5)
	.loc 1 127 2 is_stmt 1
	.loc 1 127 17 is_stmt 0
	sw	a4,0(a3)
	.loc 1 129 2 is_stmt 1
.LVL100:
.L89:
	.loc 1 130 1 is_stmt 0
	lw	ra,28(sp)
	.cfi_remember_state
	.cfi_restore 1
	lw	s0,24(sp)
	.cfi_restore 8
.LVL101:
	lw	s1,20(sp)
	.cfi_restore 9
	lw	s2,16(sp)
	.cfi_restore 18
	lw	s3,12(sp)
	.cfi_restore 19
	addi	sp,sp,32
	.cfi_def_cfa_offset 0
	jr	ra
.LVL102:
.L93:
	.cfi_restore_state
	.loc 1 120 10
	li	a0,-1
.LVL103:
	j	.L89
	.cfi_endproc
.LFE24:
	.size	registerJsonTokenOnDelta, .-registerJsonTokenOnDelta
	.section	.text.initializeRecords,"ax",@progbits
	.align	1
	.globl	initializeRecords
	.type	initializeRecords, @function
initializeRecords:
.LFB31:
	.loc 1 290 49 is_stmt 1
	.cfi_startproc
.LVL104:
	.loc 1 291 2
	.loc 1 292 2
	.loc 1 292 13
	lui	a5,%hi(AckWaitList)
	addi	a5,a5,%lo(AckWaitList)
	addi	a4,a5,1400
	.loc 1 293 25 is_stmt 0
	li	a3,1
.LVL105:
.L97:
	.loc 1 293 3 is_stmt 1 discriminator 3
	.loc 1 293 25 is_stmt 0 discriminator 3
	sb	a3,124(a5)
	.loc 1 292 21 is_stmt 1 discriminator 3
.LVL106:
	.loc 1 292 13 discriminator 3
	.loc 1 292 2 is_stmt 0 discriminator 3
	addi	a5,a5,140
.LVL107:
	bne	a5,a4,.L97
	lui	a5,%hi(SubscriptionList)
.LVL108:
	addi	a5,a5,%lo(SubscriptionList)
	addi	a4,a5,1660
	.loc 1 296 30
	li	a3,1
.L98:
.LVL109:
	.loc 1 296 3 is_stmt 1 discriminator 3
	.loc 1 296 30 is_stmt 0 discriminator 3
	sb	a3,81(a5)
	.loc 1 297 3 is_stmt 1 discriminator 3
	.loc 1 297 29 is_stmt 0 discriminator 3
	sb	zero,80(a5)
	.loc 1 298 3 is_stmt 1 discriminator 3
	.loc 1 298 32 is_stmt 0 discriminator 3
	sb	zero,82(a5)
	.loc 1 295 23 is_stmt 1 discriminator 3
.LVL110:
	.loc 1 295 13 discriminator 3
	.loc 1 295 2 is_stmt 0 discriminator 3
	addi	a5,a5,83
.LVL111:
	bne	a5,a4,.L98
	.loc 1 301 2 is_stmt 1
	.loc 1 301 14 is_stmt 0
	lui	a5,%hi(pMqttClient)
.LVL112:
	sw	a0,%lo(pMqttClient)(a5)
	.loc 1 302 1
	ret
	.cfi_endproc
.LFE31:
	.size	initializeRecords, .-initializeRecords
	.section	.text.isSubscriptionPresent,"ax",@progbits
	.align	1
	.globl	isSubscriptionPresent
	.type	isSubscriptionPresent, @function
isSubscriptionPresent:
.LFB32:
	.loc 1 304 75 is_stmt 1
	.cfi_startproc
.LVL113:
	.loc 1 306 2
	.loc 1 307 1
	.loc 1 308 1
	.loc 1 309 2
	.loc 1 310 2
	.loc 1 312 2
	.loc 1 304 75 is_stmt 0
	addi	sp,sp,-208
	.cfi_def_cfa_offset 208
	mv	a2,a1
	sw	s0,200(sp)
	.loc 1 312 2
	li	a3,0
	.cfi_offset 8, -8
	.loc 1 304 75
	mv	s0,a0
	.loc 1 312 2
	sw	a1,12(sp)
	mv	a1,a0
.LVL114:
	addi	a0,sp,16
.LVL115:
	.loc 1 304 75
	sw	ra,204(sp)
	sw	s1,196(sp)
	sw	s2,192(sp)
	sw	s3,188(sp)
	.cfi_offset 1, -4
	.cfi_offset 9, -12
	.cfi_offset 18, -16
	.cfi_offset 19, -20
	.loc 1 312 2
	call	topicNameFromThingAndAction
.LVL116:
	.loc 1 313 2 is_stmt 1
	lw	a2,12(sp)
	mv	a1,s0
	lui	s0,%hi(SubscriptionList)
.LVL117:
	li	a3,1
	addi	a0,sp,96
	addi	s0,s0,%lo(SubscriptionList)
	call	topicNameFromThingAndAction
.LVL118:
	.loc 1 315 2
	.loc 1 315 13
	addi	s3,s0,1660
	.loc 1 308 6 is_stmt 0
	li	s1,0
	.loc 1 307 6
	li	s2,0
.LVL119:
.L103:
	.loc 1 316 3 is_stmt 1
	.loc 1 316 5 is_stmt 0
	lbu	a5,81(s0)
	bne	a5,zero,.L102
	.loc 1 317 4 is_stmt 1
	.loc 1 317 8 is_stmt 0
	mv	a1,s0
	addi	a0,sp,16
	call	strcmp
.LVL120:
	.loc 1 317 6
	beq	a0,zero,.L105
	.loc 1 319 11 is_stmt 1
	.loc 1 319 15 is_stmt 0
	mv	a1,s0
	addi	a0,sp,96
	call	strcmp
.LVL121:
	.loc 1 319 13
	bne	a0,zero,.L102
	.loc 1 320 23
	li	s1,1
.LVL122:
.L102:
	.loc 1 315 23 is_stmt 1 discriminator 2
	.loc 1 315 13 discriminator 2
	.loc 1 315 2 is_stmt 0 discriminator 2
	addi	s0,s0,83
.LVL123:
	bne	s0,s3,.L103
	.loc 1 325 2 is_stmt 1
	.loc 1 325 4 is_stmt 0
	beq	s1,zero,.L104
	mv	s1,s2
.LVL124:
.L104:
	.loc 1 330 1
	lw	ra,204(sp)
	.cfi_remember_state
	.cfi_restore 1
	lw	s0,200(sp)
	.cfi_restore 8
.LVL125:
	lw	s2,192(sp)
	.cfi_restore 18
.LVL126:
	lw	s3,188(sp)
	.cfi_restore 19
	mv	a0,s1
	lw	s1,196(sp)
	.cfi_restore 9
	addi	sp,sp,208
	.cfi_def_cfa_offset 0
.LVL127:
	jr	ra
.LVL128:
.L105:
	.cfi_restore_state
	.loc 1 318 23
	li	s2,1
.LVL129:
	j	.L102
	.cfi_endproc
.LFE32:
	.size	isSubscriptionPresent, .-isSubscriptionPresent
	.section	.text.subscribeToShadowActionAcks,"ax",@progbits
	.align	1
	.globl	subscribeToShadowActionAcks
	.type	subscribeToShadowActionAcks, @function
subscribeToShadowActionAcks:
.LFB33:
	.loc 1 332 103 is_stmt 1
	.cfi_startproc
.LVL130:
	.loc 1 333 2
	.loc 1 335 1
	.loc 1 336 2
	.loc 1 337 2
	.loc 1 338 2
	.loc 1 339 2
	.loc 1 332 103 is_stmt 0
	addi	sp,sp,-96
	.cfi_def_cfa_offset 96
	sw	ra,92(sp)
	sw	s3,76(sp)
	sw	s4,72(sp)
	sw	s5,68(sp)
	sw	s6,64(sp)
	sw	s7,60(sp)
	.cfi_offset 1, -4
	.cfi_offset 19, -20
	.cfi_offset 20, -24
	.cfi_offset 21, -28
	.cfi_offset 22, -32
	.cfi_offset 23, -36
	mv	s5,a2
	mv	s7,a1
	sw	s0,88(sp)
	sw	s1,84(sp)
	sw	s2,80(sp)
	sw	s8,56(sp)
	sw	s9,52(sp)
	sw	s10,48(sp)
	sw	s11,44(sp)
	.cfi_offset 8, -8
	.cfi_offset 9, -12
	.cfi_offset 18, -16
	.cfi_offset 24, -40
	.cfi_offset 25, -44
	.cfi_offset 26, -48
	.cfi_offset 27, -52
	.loc 1 332 103
	mv	s6,a0
	.loc 1 339 25
	call	getNextFreeIndexOfSubscriptionList
.LVL131:
	mv	s3,a0
.LVL132:
	.loc 1 340 2 is_stmt 1
	.loc 1 340 25 is_stmt 0
	call	getNextFreeIndexOfSubscriptionList
.LVL133:
	mv	s4,a0
.LVL134:
	.loc 1 342 2 is_stmt 1
	.loc 1 342 4 is_stmt 0
	blt	s3,zero,.L117
	lui	a1,%hi(SubscriptionList)
	addi	s2,a1,%lo(SubscriptionList)
	.loc 1 333 14 discriminator 1
	li	s0,0
	.loc 1 342 31 discriminator 1
	blt	a0,zero,.L113
	.loc 1 343 3 is_stmt 1
	.loc 1 343 69 is_stmt 0
	li	s1,83
	mul	s10,s3,s1
	.loc 1 343 3
	li	a3,0
	mv	a2,s7
	mv	a1,s6
	.loc 1 344 13
	lui	s9,%hi(pMqttClient)
	lui	s8,%hi(AckStatusCallback)
	.loc 1 343 69
	add	s10,s2,s10
	.loc 1 343 3
	mv	a0,s10
.LVL135:
	call	topicNameFromThingAndAction
.LVL136:
	.loc 1 344 3 is_stmt 1
	.loc 1 345 23 is_stmt 0
	mv	a0,s10
	.loc 1 344 13
	lw	s0,%lo(pMqttClient)(s9)
	.loc 1 345 23
	call	strlen
.LVL137:
	.loc 1 344 13
	slli	a2,a0,16
	li	a5,0
	mv	a0,s0
	addi	a4,s8,%lo(AckStatusCallback)
	li	a3,0
	srli	a2,a2,16
	mv	a1,s10
	call	aws_iot_mqtt_subscribe
.LVL138:
	mv	s0,a0
.LVL139:
	.loc 1 347 3 is_stmt 1
	.loc 1 347 5 is_stmt 0
	bne	a0,zero,.L113
	.loc 1 348 4 is_stmt 1
	.loc 1 350 70 is_stmt 0
	mul	s1,s4,s1
	.loc 1 348 49
	li	s11,1
	.loc 1 350 4
	li	a3,1
	mv	a2,s7
	mv	a1,s6
	.loc 1 348 49
	sb	s11,80(s10)
	.loc 1 349 4 is_stmt 1
	.loc 1 349 52 is_stmt 0
	sb	s5,82(s10)
	.loc 1 350 4 is_stmt 1
	.loc 1 350 70 is_stmt 0
	add	s1,s2,s1
	.loc 1 350 4
	mv	a0,s1
	call	topicNameFromThingAndAction
.LVL140:
	.loc 1 352 4 is_stmt 1
	.loc 1 353 24 is_stmt 0
	mv	a0,s1
	.loc 1 352 14
	lw	s0,%lo(pMqttClient)(s9)
.LVL141:
	.loc 1 353 24
	call	strlen
.LVL142:
	.loc 1 352 14
	slli	a2,a0,16
	li	a5,0
	mv	a0,s0
	addi	a4,s8,%lo(AckStatusCallback)
	li	a3,0
	srli	a2,a2,16
	mv	a1,s1
	call	aws_iot_mqtt_subscribe
.LVL143:
	mv	s0,a0
.LVL144:
	.loc 1 355 4 is_stmt 1
	.loc 1 355 6 is_stmt 0
	bne	a0,zero,.L113
	.loc 1 356 5 is_stmt 1
	.loc 1 361 5 is_stmt 0
	addi	a0,sp,20
	.loc 1 356 50
	sb	s11,80(s1)
	.loc 1 357 5 is_stmt 1
	.loc 1 357 53 is_stmt 0
	sb	s5,82(s1)
	.loc 1 358 5 is_stmt 1
.LVL145:
	.loc 1 361 5
	call	init_timer
.LVL146:
	.loc 1 362 5
	li	a1,2
	addi	a0,sp,20
	call	countdown_sec
.LVL147:
	.loc 1 363 5
.L115:
	.loc 1 363 49 discriminator 1
	.loc 1 363 10 discriminator 1
	.loc 1 363 12 is_stmt 0 discriminator 1
	addi	a0,sp,20
	call	has_timer_expired
.LVL148:
	.loc 1 363 10 discriminator 1
	beq	a0,zero,.L115
.LVL149:
.L111:
	.loc 1 385 1
	lw	ra,92(sp)
	.cfi_remember_state
	.cfi_restore 1
	mv	a0,s0
	lw	s0,88(sp)
	.cfi_restore 8
	lw	s1,84(sp)
	.cfi_restore 9
	lw	s2,80(sp)
	.cfi_restore 18
	lw	s3,76(sp)
	.cfi_restore 19
.LVL150:
	lw	s4,72(sp)
	.cfi_restore 20
	lw	s5,68(sp)
	.cfi_restore 21
	lw	s6,64(sp)
	.cfi_restore 22
.LVL151:
	lw	s7,60(sp)
	.cfi_restore 23
.LVL152:
	lw	s8,56(sp)
	.cfi_restore 24
	lw	s9,52(sp)
	.cfi_restore 25
	lw	s10,48(sp)
	.cfi_restore 26
	lw	s11,44(sp)
	.cfi_restore 27
	addi	sp,sp,96
	.cfi_def_cfa_offset 0
	jr	ra
.LVL153:
.L117:
	.cfi_restore_state
	.loc 1 333 14
	li	s0,0
	j	.L112
.LVL154:
.L113:
	.loc 1 370 3 is_stmt 1
	.loc 1 371 4
	.loc 1 371 50 is_stmt 0
	li	a1,83
	mul	a1,s3,a1
	li	a5,1
	add	a1,s2,a1
	.loc 1 373 6
	lbu	a4,80(a1)
	.loc 1 371 50
	sb	a5,81(a1)
	.loc 1 373 4 is_stmt 1
	.loc 1 373 6 is_stmt 0
	bne	a4,a5,.L112
	.loc 1 374 8 is_stmt 1
	lui	a5,%hi(pMqttClient)
	.loc 1 375 16 is_stmt 0
	mv	a0,a1
	.loc 1 374 8
	lw	s1,%lo(pMqttClient)(a5)
	.loc 1 375 16
	sw	a1,12(sp)
	call	strlen
.LVL155:
	.loc 1 374 8
	lw	a1,12(sp)
	slli	a2,a0,16
	srli	a2,a2,16
	mv	a0,s1
	call	aws_iot_mqtt_unsubscribe
.LVL156:
.L112:
	.loc 1 378 3 is_stmt 1
	.loc 1 378 5 is_stmt 0
	blt	s4,zero,.L111
	.loc 1 379 4 is_stmt 1
	.loc 1 379 50 is_stmt 0
	li	a0,83
	mul	a0,s4,a0
	lui	a5,%hi(SubscriptionList)
	addi	s4,a5,%lo(SubscriptionList)
	li	a5,1
	add	s4,s4,a0
	sb	a5,81(s4)
	.loc 1 384 2 is_stmt 1
	.loc 1 384 9 is_stmt 0
	j	.L111
	.cfi_endproc
.LFE33:
	.size	subscribeToShadowActionAcks, .-subscribeToShadowActionAcks
	.section	.text.incrementSubscriptionCnt,"ax",@progbits
	.align	1
	.globl	incrementSubscriptionCnt
	.type	incrementSubscriptionCnt, @function
incrementSubscriptionCnt:
.LFB34:
	.loc 1 387 93 is_stmt 1
	.cfi_startproc
.LVL157:
	.loc 1 388 2
	.loc 1 389 2
	.loc 1 390 2
	.loc 1 391 2
	.loc 1 387 93 is_stmt 0
	addi	sp,sp,-176
	.cfi_def_cfa_offset 176
	sw	s0,168(sp)
	sw	s1,164(sp)
	.cfi_offset 8, -8
	.cfi_offset 9, -12
	mv	s0,a0
	mv	s1,a1
	sw	s2,160(sp)
	.loc 1 391 2
	li	a3,0
	.cfi_offset 18, -16
	.loc 1 387 93
	mv	s2,a2
	.loc 1 391 2
	mv	a2,a1
.LVL158:
	mv	a1,a0
.LVL159:
	mv	a0,sp
.LVL160:
	.loc 1 387 93
	sw	ra,172(sp)
	.cfi_offset 1, -4
	.loc 1 391 2
	call	topicNameFromThingAndAction
.LVL161:
	.loc 1 392 2 is_stmt 1
	mv	a1,s0
	lui	s0,%hi(SubscriptionList)
.LVL162:
	mv	a2,s1
	li	a3,1
	addi	a0,sp,80
	addi	s0,s0,%lo(SubscriptionList)
	call	topicNameFromThingAndAction
.LVL163:
	.loc 1 394 2
	.loc 1 394 13
	addi	s1,s0,1660
.LVL164:
.L126:
	.loc 1 395 3
	.loc 1 395 5 is_stmt 0
	lbu	a5,81(s0)
	bne	a5,zero,.L122
	.loc 1 396 4 is_stmt 1
	.loc 1 396 8 is_stmt 0
	mv	a1,s0
	mv	a0,sp
	call	strcmp
.LVL165:
	.loc 1 396 6
	bne	a0,zero,.L123
.L124:
	.loc 1 398 5 is_stmt 1
	.loc 1 398 30 is_stmt 0
	lbu	a5,80(s0)
	.loc 1 399 34
	sb	s2,82(s0)
	.loc 1 398 30
	addi	a5,a5,1
	sb	a5,80(s0)
	.loc 1 399 5 is_stmt 1
.L122:
	.loc 1 394 23 discriminator 2
.LVL166:
	.loc 1 394 13 discriminator 2
	.loc 1 394 2 is_stmt 0 discriminator 2
	addi	s0,s0,83
.LVL167:
	bne	s0,s1,.L126
	.loc 1 403 1
	lw	ra,172(sp)
	.cfi_remember_state
	.cfi_restore 1
	lw	s0,168(sp)
	.cfi_restore 8
.LVL168:
	lw	s1,164(sp)
	.cfi_restore 9
	lw	s2,160(sp)
	.cfi_restore 18
	addi	sp,sp,176
	.cfi_def_cfa_offset 0
	jr	ra
.LVL169:
.L123:
	.cfi_restore_state
	.loc 1 397 11
	mv	a1,s0
	addi	a0,sp,80
	call	strcmp
.LVL170:
	.loc 1 397 7
	beq	a0,zero,.L124
	j	.L122
	.cfi_endproc
.LFE34:
	.size	incrementSubscriptionCnt, .-incrementSubscriptionCnt
	.section	.text.publishToShadowAction,"ax",@progbits
	.align	1
	.globl	publishToShadowAction
	.type	publishToShadowAction, @function
publishToShadowAction:
.LFB35:
	.loc 1 405 118 is_stmt 1
	.cfi_startproc
.LVL171:
	.loc 1 406 2
	.loc 1 407 2
	.loc 1 408 2
	.loc 1 410 2
	.loc 1 410 4 is_stmt 0
	beq	a0,zero,.L134
	.loc 1 405 118 discriminator 1
	addi	sp,sp,-112
	.cfi_def_cfa_offset 112
	sw	s0,104(sp)
	sw	ra,108(sp)
	.cfi_offset 8, -8
	.cfi_offset 1, -4
	mv	a5,a0
	mv	s0,a2
	.loc 1 411 10 discriminator 1
	li	a0,-2
.LVL172:
	.loc 1 410 23 discriminator 1
	beq	a2,zero,.L132
	.loc 1 414 2 is_stmt 1
	mv	a2,a1
.LVL173:
	li	a3,2
	mv	a1,a5
.LVL174:
	addi	a0,sp,16
	call	topicNameFromThingAndAction
.LVL175:
	.loc 1 416 2
	.loc 1 418 25 is_stmt 0
	mv	a0,s0
	.loc 1 416 16
	sw	zero,0(sp)
	.loc 1 417 2 is_stmt 1
	.loc 1 417 23 is_stmt 0
	sb	zero,4(sp)
	.loc 1 418 2 is_stmt 1
	.loc 1 418 25 is_stmt 0
	call	strlen
.LVL176:
	.loc 1 420 12
	lui	a5,%hi(pMqttClient)
	.loc 1 418 23
	sw	a0,12(sp)
	.loc 1 419 2 is_stmt 1
	.loc 1 419 20 is_stmt 0
	sw	s0,8(sp)
	.loc 1 420 2 is_stmt 1
	.loc 1 420 77 is_stmt 0
	addi	a0,sp,16
	.loc 1 420 12
	lw	s0,%lo(pMqttClient)(a5)
.LVL177:
	.loc 1 420 77
	call	strlen
.LVL178:
	.loc 1 420 12
	slli	a2,a0,16
	mv	a3,sp
	srli	a2,a2,16
	addi	a1,sp,16
	mv	a0,s0
	call	aws_iot_mqtt_publish
.LVL179:
	.loc 1 422 2 is_stmt 1
.L132:
	.loc 1 423 1 is_stmt 0
	lw	ra,108(sp)
	.cfi_restore 1
	lw	s0,104(sp)
	.cfi_restore 8
	addi	sp,sp,112
	.cfi_def_cfa_offset 0
	jr	ra
.LVL180:
.L134:
	.loc 1 411 10
	li	a0,-2
.LVL181:
	.loc 1 423 1
	ret
	.cfi_endproc
.LFE35:
	.size	publishToShadowAction, .-publishToShadowAction
	.section	.text.getNextFreeIndexOfAckWaitList,"ax",@progbits
	.align	1
	.globl	getNextFreeIndexOfAckWaitList
	.type	getNextFreeIndexOfAckWaitList, @function
getNextFreeIndexOfAckWaitList:
.LFB36:
	.loc 1 425 52 is_stmt 1
	.cfi_startproc
.LVL182:
	.loc 1 426 2
	.loc 1 427 1
	.loc 1 429 2
	.loc 1 425 52 is_stmt 0
	mv	a3,a0
	.loc 1 429 4
	beq	a0,zero,.L144
	lui	a4,%hi(AckWaitList)
	addi	a4,a4,%lo(AckWaitList)
	.loc 1 433 8
	li	a5,0
	.loc 1 433 2
	li	a2,10
.LVL183:
.L143:
	.loc 1 434 3 is_stmt 1
	.loc 1 434 20 is_stmt 0
	lbu	a0,124(a4)
	.loc 1 434 5
	beq	a0,zero,.L142
	.loc 1 435 4 is_stmt 1
	.loc 1 435 12 is_stmt 0
	sb	a5,0(a3)
	.loc 1 436 4 is_stmt 1
.LVL184:
	.loc 1 437 4
	ret
.LVL185:
.L142:
	.loc 1 433 21 discriminator 2
	.loc 1 433 22 is_stmt 0 discriminator 2
	addi	a5,a5,1
.LVL186:
	andi	a5,a5,0xff
.LVL187:
	.loc 1 433 13 is_stmt 1 discriminator 2
	.loc 1 433 2 is_stmt 0 discriminator 2
	addi	a4,a4,140
	bne	a5,a2,.L143
	ret
.LVL188:
.L144:
	.loc 1 430 9
	li	a0,0
.LVL189:
	.loc 1 442 1
	ret
	.cfi_endproc
.LFE36:
	.size	getNextFreeIndexOfAckWaitList, .-getNextFreeIndexOfAckWaitList
	.section	.text.addToAckWaitList,"ax",@progbits
	.align	1
	.globl	addToAckWaitList
	.type	addToAckWaitList, @function
addToAckWaitList:
.LFB37:
	.loc 1 446 34 is_stmt 1
	.cfi_startproc
.LVL190:
	.loc 1 447 2
	.loc 1 446 34 is_stmt 0
	addi	sp,sp,-48
	.cfi_def_cfa_offset 48
	sw	s0,40(sp)
	.cfi_offset 8, -8
	.loc 1 447 41
	li	s0,140
	mul	s0,a0,s0
	.loc 1 446 34
	sw	s2,32(sp)
	.cfi_offset 18, -16
	.loc 1 447 41
	lui	s2,%hi(AckWaitList)
	addi	s2,s2,%lo(AckWaitList)
	.loc 1 446 34
	sw	ra,44(sp)
	sw	s1,36(sp)
	sw	s3,28(sp)
	sw	s4,24(sp)
	sw	s5,20(sp)
	sw	s6,16(sp)
	.cfi_offset 1, -4
	.cfi_offset 9, -12
	.cfi_offset 19, -20
	.cfi_offset 20, -24
	.cfi_offset 21, -28
	.cfi_offset 22, -32
	.loc 1 447 41
	add	s1,s2,s0
	sw	a4,116(s1)
	.loc 1 448 2 is_stmt 1
	.loc 1 446 34 is_stmt 0
	mv	s6,a1
	mv	s4,a2
	.loc 1 448 2
	mv	a1,a3
.LVL191:
	li	a2,90
.LVL192:
	mv	a0,s1
.LVL193:
	.loc 1 446 34
	mv	s5,a5
	mv	s3,a6
	.loc 1 448 2
	call	memcpy
.LVL194:
	.loc 1 449 2 is_stmt 1
	.loc 1 449 38 is_stmt 0
	addi	a0,s0,90
	.loc 1 449 2
	mv	a1,s6
	li	a2,20
	add	a0,s2,a0
	call	memcpy
.LVL195:
	.loc 1 450 2 is_stmt 1
	.loc 1 452 2 is_stmt 0
	addi	a0,s0,128
	add	a0,a0,s2
	.loc 1 450 49
	sw	s5,120(s1)
	.loc 1 451 2 is_stmt 1
	.loc 1 451 39 is_stmt 0
	sw	s4,112(s1)
	.loc 1 452 2 is_stmt 1
	sw	a0,12(sp)
	call	init_timer
.LVL196:
	.loc 1 453 2
	lw	a0,12(sp)
	mv	a1,s3
	call	countdown_sec
.LVL197:
	.loc 1 454 2
	.loc 1 454 39 is_stmt 0
	sb	zero,124(s1)
	.loc 1 455 1
	lw	ra,44(sp)
	.cfi_restore 1
	lw	s0,40(sp)
	.cfi_restore 8
	lw	s1,36(sp)
	.cfi_restore 9
	lw	s2,32(sp)
	.cfi_restore 18
	lw	s3,28(sp)
	.cfi_restore 19
.LVL198:
	lw	s4,24(sp)
	.cfi_restore 20
.LVL199:
	lw	s5,20(sp)
	.cfi_restore 21
.LVL200:
	lw	s6,16(sp)
	.cfi_restore 22
.LVL201:
	addi	sp,sp,48
	.cfi_def_cfa_offset 0
	jr	ra
	.cfi_endproc
.LFE37:
	.size	addToAckWaitList, .-addToAckWaitList
	.section	.text.HandleExpiredResponseCallbacks,"ax",@progbits
	.align	1
	.globl	HandleExpiredResponseCallbacks
	.type	HandleExpiredResponseCallbacks, @function
HandleExpiredResponseCallbacks:
.LFB38:
	.loc 1 457 43 is_stmt 1
	.cfi_startproc
	.loc 1 458 2
	.loc 1 459 2
.LVL202:
	.loc 1 459 13
	.loc 1 457 43 is_stmt 0
	addi	sp,sp,-32
	.cfi_def_cfa_offset 32
	sw	s0,24(sp)
	.cfi_offset 8, -8
	lui	s0,%hi(AckWaitList)
	sw	s1,20(sp)
	sw	s2,16(sp)
	sw	s3,12(sp)
	sw	s4,8(sp)
	sw	ra,28(sp)
	.cfi_offset 9, -12
	.cfi_offset 18, -16
	.cfi_offset 19, -20
	.cfi_offset 20, -24
	.cfi_offset 1, -4
	addi	s0,s0,%lo(AckWaitList)
	.loc 1 459 8
	li	s1,0
	.loc 1 466 27
	li	s3,1
	.loc 1 463 6
	lui	s4,%hi(shadowRxBuf)
	.loc 1 459 2
	li	s2,10
.LVL203:
.L153:
	.loc 1 460 3 is_stmt 1
	.loc 1 460 5 is_stmt 0
	lbu	a5,124(s0)
	bne	a5,zero,.L150
	.loc 1 461 4 is_stmt 1
	.loc 1 461 7 is_stmt 0
	addi	a0,s0,128
	call	has_timer_expired
.LVL204:
	.loc 1 461 6
	beq	a0,zero,.L150
	.loc 1 462 5 is_stmt 1
	.loc 1 462 22 is_stmt 0
	lw	a5,116(s0)
	.loc 1 462 7
	beq	a5,zero,.L152
	.loc 1 463 6 is_stmt 1
	lw	a4,120(s0)
	lw	a1,112(s0)
	addi	a3,s4,%lo(shadowRxBuf)
	li	a2,0
	addi	a0,s0,90
	jalr	a5
.LVL205:
.L152:
	.loc 1 466 5
	.loc 1 467 5 is_stmt 0
	mv	a0,s1
	.loc 1 466 27
	sb	s3,124(s0)
	.loc 1 467 5 is_stmt 1
	call	unsubscribeFromAcceptedAndRejected
.LVL206:
.L150:
	.loc 1 459 21 discriminator 2
	.loc 1 459 22 is_stmt 0 discriminator 2
	addi	s1,s1,1
.LVL207:
	andi	s1,s1,0xff
.LVL208:
	.loc 1 459 13 is_stmt 1 discriminator 2
	.loc 1 459 2 is_stmt 0 discriminator 2
	addi	s0,s0,140
	bne	s1,s2,.L153
	.loc 1 471 1
	lw	ra,28(sp)
	.cfi_restore 1
	lw	s0,24(sp)
	.cfi_restore 8
	lw	s1,20(sp)
	.cfi_restore 9
.LVL209:
	lw	s2,16(sp)
	.cfi_restore 18
	lw	s3,12(sp)
	.cfi_restore 19
	lw	s4,8(sp)
	.cfi_restore 20
	addi	sp,sp,32
	.cfi_def_cfa_offset 0
	jr	ra
	.cfi_endproc
.LFE38:
	.size	HandleExpiredResponseCallbacks, .-HandleExpiredResponseCallbacks
	.globl	shadowDiscardOldDeltaFlag
	.globl	shadowJsonVersionNum
	.comm	shadowRxBuf,513,4
	.comm	SubscriptionList,1660,4
	.comm	shadowDeltaTopic,80,4
	.comm	mqttClientID,80,4
	.comm	myThingName,20,4
	.comm	pMqttClient,4,4
	.comm	AckWaitList,1400,4
	.section	.bss.tokenTable,"aw",@nobits
	.align	2
	.set	.LANCHOR2,. + 0
	.type	tokenTable, @object
	.size	tokenTable, 1920
tokenTable:
	.zero	1920
	.section	.sbss.deltaTopicSubscribedFlag,"aw",@nobits
	.set	.LANCHOR4,. + 0
	.type	deltaTopicSubscribedFlag, @object
	.size	deltaTopicSubscribedFlag, 1
deltaTopicSubscribedFlag:
	.zero	1
	.section	.sbss.shadowJsonVersionNum,"aw",@nobits
	.align	2
	.set	.LANCHOR1,. + 0
	.type	shadowJsonVersionNum, @object
	.size	shadowJsonVersionNum, 4
shadowJsonVersionNum:
	.zero	4
	.section	.sbss.tokenTableIndex,"aw",@nobits
	.align	2
	.set	.LANCHOR3,. + 0
	.type	tokenTableIndex, @object
	.size	tokenTableIndex, 4
tokenTableIndex:
	.zero	4
	.section	.sdata.shadowDiscardOldDeltaFlag,"aw"
	.set	.LANCHOR0,. + 0
	.type	shadowDiscardOldDeltaFlag, @object
	.size	shadowDiscardOldDeltaFlag, 1
shadowDiscardOldDeltaFlag:
	.byte	1
	.text
.Letext0:
	.file 2 "/home/anh/Desktop/wb2/Ai-Thinker-WB2/toolchain/riscv/Linux/riscv64-unknown-elf/include/machine/_default_types.h"
	.file 3 "/home/anh/Desktop/wb2/Ai-Thinker-WB2/toolchain/riscv/Linux/lib/gcc/riscv64-unknown-elf/10.2.0/include/stddef.h"
	.file 4 "/home/anh/Desktop/wb2/Ai-Thinker-WB2/toolchain/riscv/Linux/riscv64-unknown-elf/include/sys/_stdint.h"
	.file 5 "/home/anh/Desktop/wb2/Ai-Thinker-WB2/components/3rdparty/aws-iot/aws-iot-device-sdk-embedded-C/include/aws_iot_error.h"
	.file 6 "/home/anh/Desktop/wb2/Ai-Thinker-WB2/components/3rdparty/aws-iot/port/include/timer_platform.h"
	.file 7 "/home/anh/Desktop/wb2/Ai-Thinker-WB2/components/3rdparty/aws-iot/aws-iot-device-sdk-embedded-C/include/timer_interface.h"
	.file 8 "/home/anh/Desktop/wb2/Ai-Thinker-WB2/components/security/mbedtls_lts/mbedtls/include/mbedtls/bignum.h"
	.file 9 "/home/anh/Desktop/wb2/Ai-Thinker-WB2/components/security/mbedtls_lts/mbedtls/include/mbedtls/ecp.h"
	.file 10 "/home/anh/Desktop/wb2/Ai-Thinker-WB2/components/security/mbedtls_lts/mbedtls/include/mbedtls/md.h"
	.file 11 "/home/anh/Desktop/wb2/Ai-Thinker-WB2/components/security/mbedtls_lts/mbedtls/include/mbedtls/pk.h"
	.file 12 "/home/anh/Desktop/wb2/Ai-Thinker-WB2/components/security/mbedtls_lts/mbedtls/include/mbedtls/asn1.h"
	.file 13 "/home/anh/Desktop/wb2/Ai-Thinker-WB2/components/security/mbedtls_lts/mbedtls/include/mbedtls/x509.h"
	.file 14 "/home/anh/Desktop/wb2/Ai-Thinker-WB2/components/security/mbedtls_lts/mbedtls/include/mbedtls/x509_crl.h"
	.file 15 "/home/anh/Desktop/wb2/Ai-Thinker-WB2/components/security/mbedtls_lts/mbedtls/include/mbedtls/x509_crt.h"
	.file 16 "/home/anh/Desktop/wb2/Ai-Thinker-WB2/components/security/mbedtls_lts/mbedtls/include/mbedtls/ssl.h"
	.file 17 "/home/anh/Desktop/wb2/Ai-Thinker-WB2/components/security/mbedtls_lts/mbedtls/include/mbedtls/net_sockets.h"
	.file 18 "/home/anh/Desktop/wb2/Ai-Thinker-WB2/components/security/mbedtls_lts/mbedtls/include/mbedtls/sha512.h"
	.file 19 "/home/anh/Desktop/wb2/Ai-Thinker-WB2/components/security/mbedtls_lts/mbedtls/include/mbedtls/entropy.h"
	.file 20 "/home/anh/Desktop/wb2/Ai-Thinker-WB2/components/security/mbedtls_lts/mbedtls/include/mbedtls/aes.h"
	.file 21 "/home/anh/Desktop/wb2/Ai-Thinker-WB2/components/security/mbedtls_lts/mbedtls/include/mbedtls/ctr_drbg.h"
	.file 22 "/home/anh/Desktop/wb2/Ai-Thinker-WB2/components/3rdparty/aws-iot/port/include/network_platform.h"
	.file 23 "/home/anh/Desktop/wb2/Ai-Thinker-WB2/components/3rdparty/aws-iot/aws-iot-device-sdk-embedded-C/include/network_interface.h"
	.file 24 "/home/anh/Desktop/wb2/Ai-Thinker-WB2/components/platform/soc/bl602/freertos_riscv_ram/config/queue.h"
	.file 25 "/home/anh/Desktop/wb2/Ai-Thinker-WB2/components/platform/soc/bl602/freertos_riscv_ram/config/semphr.h"
	.file 26 "/home/anh/Desktop/wb2/Ai-Thinker-WB2/components/3rdparty/aws-iot/port/include/threads_platform.h"
	.file 27 "/home/anh/Desktop/wb2/Ai-Thinker-WB2/components/3rdparty/aws-iot/aws-iot-device-sdk-embedded-C/include/threads_interface.h"
	.file 28 "/home/anh/Desktop/wb2/Ai-Thinker-WB2/components/3rdparty/aws-iot/aws-iot-device-sdk-embedded-C/include/aws_iot_mqtt_client.h"
	.file 29 "/home/anh/Desktop/wb2/Ai-Thinker-WB2/components/3rdparty/aws-iot/aws-iot-device-sdk-embedded-C/include/aws_iot_shadow_json_data.h"
	.file 30 "/home/anh/Desktop/wb2/Ai-Thinker-WB2/components/3rdparty/aws-iot/aws-iot-device-sdk-embedded-C/include/aws_iot_shadow_interface.h"
	.file 31 "/home/anh/Desktop/wb2/Ai-Thinker-WB2/components/3rdparty/aws-iot/aws-iot-device-sdk-embedded-C/include/aws_iot_shadow_records.h"
	.file 32 "/home/anh/Desktop/wb2/Ai-Thinker-WB2/toolchain/riscv/Linux/riscv64-unknown-elf/include/string.h"
	.file 33 "/home/anh/Desktop/wb2/Ai-Thinker-WB2/components/3rdparty/aws-iot/aws-iot-device-sdk-embedded-C/include/aws_iot_shadow_json.h"
	.file 34 "/home/anh/Desktop/wb2/Ai-Thinker-WB2/components/3rdparty/aws-iot/aws-iot-device-sdk-embedded-C/include/aws_iot_mqtt_client_interface.h"
	.file 35 "/home/anh/Desktop/wb2/Ai-Thinker-WB2/toolchain/riscv/Linux/riscv64-unknown-elf/include/stdio.h"