	.file	"aws_iot_mqtt_client_connect.c"
	.option nopic
	.attribute arch, "rv32i2p0_m2p0_f2p0_c2p0"
	.attribute unaligned_access, 0
	.attribute stack_align, 16
	.text
.Ltext0:
	.cfi_sections	.debug_frame
	.section	.rodata.aws_iot_mqtt_connect.str1.4,"aMS",@progbits,1
	.align	2
.LC0:
	.string	"MQTT"
	.section	.text.aws_iot_mqtt_connect,"ax",@progbits
	.align	1
	.globl	aws_iot_mqtt_connect
	.type	aws_iot_mqtt_connect, @function
aws_iot_mqtt_connect:
.LFB28:
	.file 1 "/home/anh/Desktop/wb2/Ai-Thinker-WB2/components/3rdparty/aws-iot/aws-iot-device-sdk-embedded-C/src/aws_iot_mqtt_client_connect.c"
	.loc 1 458 108
	.cfi_startproc
.LVL0:
	.loc 1 459 2
	.loc 1 460 2
	.loc 1 461 2
	.loc 1 463 2
	.loc 1 458 108 is_stmt 0
	addi	sp,sp,-64
	.cfi_def_cfa_offset 64
	sw	s2,48(sp)
	sw	ra,60(sp)
	sw	s0,56(sp)
	sw	s1,52(sp)
	sw	s3,44(sp)
	sw	s4,40(sp)
	.cfi_offset 18, -16
	.cfi_offset 1, -4
	.cfi_offset 8, -8
	.cfi_offset 9, -12
	.cfi_offset 19, -20
	.cfi_offset 20, -24
	.loc 1 464 15
	li	s2,-2
	.loc 1 463 4
	beq	a0,zero,.L1
	mv	s3,a1
	.loc 1 464 40 is_stmt 1
	.loc 1 466 5
	mv	s0,a0
	call	aws_iot_mqtt_internal_flushBuffers
.LVL1:
	.loc 1 467 2
	.loc 1 467 16 is_stmt 0
	mv	a0,s0
	call	aws_iot_mqtt_get_client_state
.LVL2:
.LBB12:
.LBB13:
	.loc 1 342 2
	li	a5,1
.LBE13:
.LBE12:
	.loc 1 467 16
	mv	a1,a0
.LVL3:
	.loc 1 469 2 is_stmt 1
.LBB15:
.LBB14:
	.loc 1 340 1
	.loc 1 342 2
	beq	a0,a5,.L3
	addi	a5,a0,-11
	li	a4,2
	li	s2,-15
	bgtu	a5,a4,.L1
.L3:
.LVL4:
.LBE14:
.LBE15:
	.loc 1 472 55
	.loc 1 475 2
	li	a2,2
	mv	a0,s0
.LVL5:
	call	aws_iot_mqtt_set_client_state
.LVL6:
	.loc 1 477 2
.LBB16:
.LBB17:
	.loc 1 385 2
	.loc 1 386 2
	.loc 1 387 2
	.loc 1 388 2
	.loc 1 389 2
	.loc 1 391 2
	.loc 1 393 2
	addi	s1,s0,1280
	.loc 1 393 4 is_stmt 0
	bne	s3,zero,.L4
.LVL7:
.L8:
	.loc 1 397 46 is_stmt 1
	.loc 1 401 2
	.loc 1 401 7 is_stmt 0
	lw	a5,1280(s0)
	li	a1,0
	mv	a0,s1
	jalr	a5
.LVL8:
	.loc 1 402 2 is_stmt 1
	.loc 1 402 4 is_stmt 0
	bne	a0,zero,.L5
	.loc 1 404 26 is_stmt 1
	.loc 1 407 2
	addi	a0,sp,20
.LVL9:
	call	init_timer
.LVL10:
	.loc 1 408 2
	lw	a1,40(s0)
	addi	a0,sp,20
	.loc 1 411 58 is_stmt 0
	addi	s4,s0,68
	.loc 1 408 2
	call	countdown_ms
.LVL11:
	.loc 1 410 2 is_stmt 1
	.loc 1 410 40 is_stmt 0
	lhu	a5,1122(s0)
.LBB18:
.LBB19:
	.loc 1 158 13
	sb	zero,12(sp)
.LBE19:
.LBE18:
	.loc 1 411 7
	lw	s2,56(s0)
	.loc 1 410 40
	sh	a5,44(s0)
	.loc 1 411 2 is_stmt 1
.LVL12:
.LBB29:
.LBB24:
	.loc 1 155 2
	.loc 1 156 2
	.loc 1 157 2
	.loc 1 158 2
	.loc 1 159 2
	.loc 1 161 2
	.loc 1 163 2
	.loc 1 163 71 is_stmt 0
	lw	a5,1116(s0)
	lhu	s3,1120(s0)
.LVL13:
	bne	a5,zero,.L9
	.loc 1 164 39
	beq	s3,zero,.L10
.L11:
	.loc 1 245 30 is_stmt 1
.LVL14:
.LBE24:
.LBE29:
	.loc 1 413 2
.LBB30:
.LBB25:
	.loc 1 166 15 is_stmt 0
	li	a0,-2
.LVL15:
.L5:
.LBE25:
.LBE30:
	.loc 1 443 30 is_stmt 1
.LBE17:
.LBE16:
	.loc 1 479 2
.LBB66:
.LBB56:
	mv	s2,a0
	j	.L42
.LVL16:
.L4:
	.loc 1 395 3
	.loc 1 395 8 is_stmt 0
	mv	a1,s3
	mv	a0,s0
	call	aws_iot_mqtt_set_connect_params
.LVL17:
	.loc 1 396 3 is_stmt 1
	.loc 1 396 5 is_stmt 0
	beq	a0,zero,.L8
	.loc 1 443 30 is_stmt 1
.LVL18:
.LBE56:
.LBE66:
	.loc 1 479 2
.LBB67:
.LBB57:
	.loc 1 397 16 is_stmt 0
	li	s2,-26
	j	.L42
.LVL19:
.L9:
.LBB31:
.LBB26:
	.loc 1 165 39
	beq	s3,zero,.L11
.L10:
	.loc 1 166 40 is_stmt 1
	.loc 1 170 2
	lw	a4,1112(s0)
	li	a5,4
	.loc 1 174 11 is_stmt 0
	li	a0,-37
	.loc 1 170 2
	bne	a4,a5,.L5
	.loc 1 172 4 is_stmt 1
	.loc 1 177 2
.LBB20:
.LBB21:
	.loc 1 129 4 is_stmt 0
	lbu	a5,1125(s0)
.LBE21:
.LBE20:
	.loc 1 177 6
	sw	s4,16(sp)
	.loc 1 178 2 is_stmt 1
.LVL20:
.LBB23:
.LBB22:
	.loc 1 116 2
	.loc 1 124 2
	.loc 1 126 2
	.loc 1 127 2
	.loc 1 127 6 is_stmt 0
	addi	s3,s3,12
.LVL21:
	.loc 1 129 2 is_stmt 1
	.loc 1 129 4 is_stmt 0
	beq	a5,zero,.L13
	.loc 1 130 3 is_stmt 1
	.loc 1 130 35 is_stmt 0
	lhu	a5,1136(s0)
	.loc 1 130 75
	lhu	a4,1144(s0)
	.loc 1 130 7
	add	a5,a5,a4
	addi	a5,a5,4
	add	s3,s3,a5
.LVL22:
.L13:
	.loc 1 133 2 is_stmt 1
	.loc 1 133 4 is_stmt 0
	lw	a5,1152(s0)
	beq	a5,zero,.L14
	.loc 1 134 3 is_stmt 1
	.loc 1 134 29 is_stmt 0
	lhu	a5,1156(s0)
	.loc 1 134 7
	addi	a5,a5,2
	add	s3,s3,a5
.LVL23:
.L14:
	.loc 1 137 2 is_stmt 1
	.loc 1 137 4 is_stmt 0
	lw	a5,1160(s0)
	beq	a5,zero,.L15
	.loc 1 138 3 is_stmt 1
	.loc 1 138 29 is_stmt 0
	lhu	a5,1164(s0)
	.loc 1 138 7
	addi	a5,a5,2
	add	s3,s3,a5
.LVL24:
.L15:
	.loc 1 141 2 is_stmt 1
	.loc 1 141 7
	.loc 1 141 26
.LBE22:
.LBE23:
	.loc 1 179 2
	.loc 1 179 5 is_stmt 0
	mv	a0,s3
	call	aws_iot_mqtt_internal_get_final_packet_length_from_remaining_length
.LVL25:
	.loc 1 179 4
	bgeu	s2,a0,.L16
	.loc 1 245 30 is_stmt 1
.LVL26:
.LBE26:
.LBE31:
	.loc 1 413 2
.LBB32:
.LBB27:
	.loc 1 180 15 is_stmt 0
	li	a0,-33
	j	.L5
.LVL27:
.L16:
	.loc 1 180 54 is_stmt 1
	.loc 1 183 2
	.loc 1 183 7 is_stmt 0
	li	a4,0
	li	a3,0
	li	a2,0
	li	a1,1
	addi	a0,sp,12
	call	aws_iot_mqtt_internal_init_header
.LVL28:
	mv	s2,a0
.LVL29:
	.loc 1 184 2 is_stmt 1
	.loc 1 184 4 is_stmt 0
	bne	a0,zero,.L5
	.loc 1 185 26 is_stmt 1
	.loc 1 188 2
	lbu	a1,12(sp)
	addi	a0,sp,16
.LVL30:
	call	aws_iot_mqtt_internal_write_char
.LVL31:
	.loc 1 190 2
	.loc 1 190 9 is_stmt 0
	lw	a0,16(sp)
	mv	a1,s3
	call	aws_iot_mqtt_internal_write_len_to_buffer
.LVL32:
	.loc 1 190 6
	lw	a5,16(sp)
	.loc 1 194 2
	lui	a1,%hi(.LC0)
	li	a2,4
	.loc 1 190 6
	add	a5,a5,a0
	.loc 1 194 2
	addi	a1,a1,%lo(.LC0)
	addi	a0,sp,16
	.loc 1 190 6
	sw	a5,16(sp)
	.loc 1 194 2 is_stmt 1
	call	aws_iot_mqtt_internal_write_utf8_string
.LVL33:
	.loc 1 195 2
	lbu	a1,1112(s0)
	addi	a0,sp,16
	call	aws_iot_mqtt_internal_write_char
.LVL34:
	.loc 1 198 2
	.loc 1 199 2
	.loc 1 199 5 is_stmt 0
	lbu	a1,1124(s0)
	.loc 1 204 5
	lbu	a5,1125(s0)
	.loc 1 201 13
	snez	a1,a1
	slli	a1,a1,1
.LVL35:
	.loc 1 204 2 is_stmt 1
	.loc 1 204 5 is_stmt 0
	beq	a5,zero,.L19
	.loc 1 206 3 is_stmt 1
.LVL36:
	.loc 1 207 3
	.loc 1 208 3
	.loc 1 207 41 is_stmt 0
	lw	a5,1148(s0)
	slli	a5,a5,3
	.loc 1 207 13
	or	a1,a1,a5
.LVL37:
	.loc 1 208 36
	lbu	a5,1146(s0)
	.loc 1 207 13
	ori	a1,a1,4
	.loc 1 208 48
	slli	a5,a5,5
	.loc 1 208 13
	or	a1,a1,a5
	andi	a1,a1,0xff
.LVL38:
.L19:
	.loc 1 211 2 is_stmt 1
	.loc 1 211 4 is_stmt 0
	lw	a5,1160(s0)
	beq	a5,zero,.L20
	.loc 1 212 3 is_stmt 1
	.loc 1 212 13 is_stmt 0
	ori	a1,a1,64
.LVL39:
.L20:
	.loc 1 215 2 is_stmt 1
	.loc 1 215 4 is_stmt 0
	lw	a5,1152(s0)
	beq	a5,zero,.L21
	.loc 1 216 3 is_stmt 1
	.loc 1 216 13 is_stmt 0
	ori	a1,a1,128
.LVL40:
.L21:
	.loc 1 219 2 is_stmt 1
	addi	a0,sp,16
	call	aws_iot_mqtt_internal_write_char
.LVL41:
	.loc 1 220 2
	lhu	a1,1122(s0)
	addi	a0,sp,16
	call	aws_iot_mqtt_internal_write_uint_16
.LVL42:
	.loc 1 223 2
	.loc 1 223 26 is_stmt 0
	lw	a1,1116(s0)
	.loc 1 223 4
	bne	a1,zero,.L22
	.loc 1 224 3 is_stmt 1
	addi	a0,sp,16
	call	aws_iot_mqtt_internal_write_uint_16
.LVL43:
.L23:
	.loc 1 229 2
	.loc 1 229 4 is_stmt 0
	lbu	a5,1125(s0)
	beq	a5,zero,.L24
	.loc 1 230 3 is_stmt 1
	lhu	a2,1136(s0)
	lw	a1,1132(s0)
	addi	a0,sp,16
	call	aws_iot_mqtt_internal_write_utf8_string
.LVL44:
	.loc 1 232 3
	lhu	a2,1144(s0)
	lw	a1,1140(s0)
	addi	a0,sp,16
	call	aws_iot_mqtt_internal_write_utf8_string
.LVL45:
.L24:
	.loc 1 235 2
	.loc 1 235 19 is_stmt 0
	lw	a1,1152(s0)
	.loc 1 235 4
	beq	a1,zero,.L25
	.loc 1 236 3 is_stmt 1
	lhu	a2,1156(s0)
	addi	a0,sp,16
	call	aws_iot_mqtt_internal_write_utf8_string
.LVL46:
.L25:
	.loc 1 239 2
	.loc 1 239 19 is_stmt 0
	lw	a1,1160(s0)
	.loc 1 239 4
	beq	a1,zero,.L26
	.loc 1 240 3 is_stmt 1
	lhu	a2,1164(s0)
	addi	a0,sp,16
	call	aws_iot_mqtt_internal_write_utf8_string
.LVL47:
.L26:
	.loc 1 243 2
	.loc 1 243 34 is_stmt 0
	lw	a5,16(sp)
	sub	a1,a5,s4
.LVL48:
	.loc 1 245 2 is_stmt 1
	.loc 1 245 7
	.loc 1 245 30
.LBE27:
.LBE32:
	.loc 1 413 2
	.loc 1 413 19 is_stmt 0
	beq	a5,s4,.L41
	.loc 1 414 26 is_stmt 1
	.loc 1 418 2
	.loc 1 418 7 is_stmt 0
	addi	a2,sp,20
	mv	a0,s0
	call	aws_iot_mqtt_internal_send_packet
.LVL49:
	.loc 1 419 2 is_stmt 1
	.loc 1 419 4 is_stmt 0
	bne	a0,zero,.L5
	.loc 1 420 26 is_stmt 1
	.loc 1 424 2
	.loc 1 424 7 is_stmt 0
	addi	a2,sp,20
	li	a1,2
	mv	a0,s0
.LVL50:
	call	aws_iot_mqtt_internal_wait_for_read
.LVL51:
	.loc 1 425 2 is_stmt 1
	.loc 1 425 4 is_stmt 0
	bne	a0,zero,.L5
	.loc 1 426 26 is_stmt 1
	.loc 1 430 2
.LBB33:
.LBB34:
	.loc 1 274 4 is_stmt 0
	lw	a3,60(s0)
	li	a4,3
.LBE34:
.LBE33:
	.loc 1 430 108
	addi	a5,s0,580
.LVL52:
.LBB45:
.LBB35:
	.loc 1 258 2 is_stmt 1
	.loc 1 259 2
	.loc 1 260 2
	.loc 1 261 2
	.loc 1 262 2
	.loc 1 263 2
	.loc 1 265 2
	.loc 1 267 2
	.loc 1 268 40
	.loc 1 274 2
	.loc 1 275 15 is_stmt 0
	li	a0,-32
.LVL53:
	.loc 1 274 4
	bleu	a3,a4,.L5
	.loc 1 275 54 is_stmt 1
	.loc 1 278 2
	.loc 1 283 16 is_stmt 0
	addi	a0,sp,8
	.loc 1 278 10
	sw	a5,8(sp)
	.loc 1 279 2 is_stmt 1
.LVL54:
	.loc 1 280 2
	.loc 1 280 13 is_stmt 0
	sw	zero,12(sp)
	.loc 1 281 2 is_stmt 1
	.loc 1 281 15 is_stmt 0
	sw	zero,16(sp)
	.loc 1 283 2 is_stmt 1
	.loc 1 283 16 is_stmt 0
	call	aws_iot_mqtt_internal_read_char
.LVL55:
	.loc 1 284 2 is_stmt 1
	.loc 1 284 36 is_stmt 0
	srli	s3,a0,4
	.loc 1 284 4
	andi	s3,s3,0xff
	li	a5,2
	.loc 1 285 15
	li	a0,-1
.LVL56:
	.loc 1 284 4
	bne	s3,a5,.L5
	.loc 1 285 31 is_stmt 1
	.loc 1 289 2
	.loc 1 289 7 is_stmt 0
	lw	a0,8(sp)
	addi	a2,sp,16
	addi	a1,sp,12
	call	aws_iot_mqtt_internal_decode_remaining_length_from_buffer
.LVL57:
	.loc 1 290 2 is_stmt 1
	.loc 1 290 4 is_stmt 0
	bne	a0,zero,.L5
	.loc 1 291 26 is_stmt 1
	.loc 1 295 2
	.loc 1 295 10 is_stmt 0
	lw	a5,8(sp)
	lw	a4,16(sp)
	.loc 1 298 15
	li	a0,-35
.LVL58:
	.loc 1 295 10
	add	a5,a5,a4
	sw	a5,8(sp)
	.loc 1 296 2 is_stmt 1
.LVL59:
	.loc 1 297 2
	.loc 1 297 4 is_stmt 0
	lw	a5,12(sp)
.LVL60:
	bne	a5,s3,.L5
	.loc 1 298 58 is_stmt 1
	.loc 1 301 2
	.loc 1 301 14 is_stmt 0
	addi	a0,sp,8
.LVL61:
	call	aws_iot_mqtt_internal_read_char
.LVL62:
	.loc 1 302 2 is_stmt 1
	.loc 1 303 2
	.loc 1 303 20 is_stmt 0
	addi	a0,sp,8
	call	aws_iot_mqtt_internal_read_char
.LVL63:
	.loc 1 304 2 is_stmt 1
	li	a5,5
	bgtu	a0,a5,.L33
	lui	a5,%hi(.L35)
	addi	a5,a5,%lo(.L35)
	slli	a0,a0,2
.LVL64:
	add	a0,a0,a5
	lw	a5,0(a0)
	jr	a5
	.section	.rodata.aws_iot_mqtt_connect,"a",@progbits
	.align	2
	.align	2
.L35:
	.word	.L40
	.word	.L39
	.word	.L38
	.word	.L37
	.word	.L36
	.word	.L34
	.section	.text.aws_iot_mqtt_connect
.LVL65:
.L22:
.LBE35:
.LBE45:
.LBB46:
.LBB28:
	.loc 1 226 3
	lhu	a2,1120(s0)
	addi	a0,sp,16
	call	aws_iot_mqtt_internal_write_utf8_string
.LVL66:
	j	.L23
.LVL67:
.L40:
.LBE28:
.LBE46:
.LBB47:
.LBB36:
	.loc 1 328 30
.LBE36:
.LBE47:
	.loc 1 432 2
	.loc 1 433 26
	.loc 1 436 2
	.loc 1 437 34
	.loc 1 440 2
	.loc 1 441 2 is_stmt 0
	lhu	a1,44(s0)
	.loc 1 440 42
	sb	zero,28(s0)
	.loc 1 441 2 is_stmt 1
	mv	a0,s0
	call	countdown_sec
.LVL68:
	.loc 1 443 2
	.loc 1 443 7
	.loc 1 443 30
.LBE57:
.LBE67:
	.loc 1 479 2
.L41:
	.loc 1 487 3
	li	a2,3
.L85:
	li	a1,2
	mv	a0,s0
	call	aws_iot_mqtt_set_client_state
.LVL69:
.L1:
	.loc 1 491 1 is_stmt 0
	lw	ra,60(sp)
	.cfi_remember_state
	.cfi_restore 1
	lw	s0,56(sp)
	.cfi_restore 8
	lw	s1,52(sp)
	.cfi_restore 9
	lw	s3,44(sp)
	.cfi_restore 19
	lw	s4,40(sp)
	.cfi_restore 20
	mv	a0,s2
	lw	s2,48(sp)
	.cfi_restore 18
	addi	sp,sp,64
	.cfi_def_cfa_offset 0
	jr	ra
.LVL70:
.L39:
	.cfi_restore_state
.LBB68:
.LBB58:
.LBB48:
.LBB37:
	.loc 1 309 4 is_stmt 1
	.loc 1 310 4
	.loc 1 328 30
.LBE37:
.LBE48:
	.loc 1 432 2
	.loc 1 433 26
	.loc 1 436 2
	.loc 1 443 30
.LBE58:
.LBE68:
	.loc 1 479 2
.LBB69:
.LBB59:
.LBB49:
.LBB38:
	.loc 1 309 16 is_stmt 0
	li	s2,-37
.LVL71:
.L42:
.LBE38:
.LBE49:
.LBE59:
.LBE69:
	.loc 1 480 3 is_stmt 1
	lw	a5,1292(s0)
	mv	a0,s1
	jalr	a5
.LVL72:
	.loc 1 481 3
	.loc 1 481 14 is_stmt 0
	lw	a5,1300(s0)
	mv	a0,s1
	jalr	a5
.LVL73:
	.loc 1 482 3 is_stmt 1
	.loc 1 485 3 is_stmt 0
	li	a2,11
	.loc 1 482 6
	beq	a0,zero,.L85
	.loc 1 483 16
	li	s2,-13
	.loc 1 490 25 is_stmt 1
	j	.L1
.LVL74:
.L38:
.LBB70:
.LBB60:
.LBB50:
.LBB39:
	.loc 1 312 4
	.loc 1 313 4
	.loc 1 328 30
.LBE39:
.LBE50:
	.loc 1 432 2
	.loc 1 433 26
	.loc 1 436 2
	.loc 1 443 30
.LBE60:
.LBE70:
	.loc 1 479 2
.LBB71:
.LBB61:
.LBB51:
.LBB40:
	.loc 1 312 16 is_stmt 0
	li	s2,-38
	j	.L42
.LVL75:
.L37:
	.loc 1 315 4 is_stmt 1
	.loc 1 316 4
	.loc 1 328 30
.LBE40:
.LBE51:
	.loc 1 432 2
	.loc 1 433 26
	.loc 1 436 2
	.loc 1 443 30
.LBE61:
.LBE71:
	.loc 1 479 2
.LBB72:
.LBB62:
.LBB52:
.LBB41:
	.loc 1 315 16 is_stmt 0
	li	s2,-39
	j	.L42
.LVL76:
.L36:
	.loc 1 318 4 is_stmt 1
	.loc 1 319 4
	.loc 1 328 30
.LBE41:
.LBE52:
	.loc 1 432 2
	.loc 1 433 26
	.loc 1 436 2
	.loc 1 443 30
.LBE62:
.LBE72:
	.loc 1 479 2
.LBB73:
.LBB63:
.LBB53:
.LBB42:
	.loc 1 318 16 is_stmt 0
	li	s2,-40
	j	.L42
.LVL77:
.L34:
	.loc 1 321 4 is_stmt 1
	.loc 1 322 4
	.loc 1 328 30
.LBE42:
.LBE53:
	.loc 1 432 2
	.loc 1 433 26
	.loc 1 436 2
	.loc 1 443 30
.LBE63:
.LBE73:
	.loc 1 479 2
.LBB74:
.LBB64:
.LBB54:
.LBB43:
	.loc 1 321 16 is_stmt 0
	li	s2,-41
	j	.L42
.LVL78:
.L33:
	.loc 1 324 4 is_stmt 1
	.loc 1 325 4
	.loc 1 328 30
.LBE43:
.LBE54:
	.loc 1 432 2
	.loc 1 433 26
	.loc 1 436 2
	.loc 1 443 30
.LBE64:
.LBE74:
	.loc 1 479 2
.LBB75:
.LBB65:
.LBB55:
.LBB44:
	.loc 1 324 16 is_stmt 0
	li	s2,-36
	j	.L42
.LBE44:
.LBE55:
.LBE65:
.LBE75:
	.cfi_endproc
.LFE28:
	.size	aws_iot_mqtt_connect, .-aws_iot_mqtt_connect
	.section	.text._aws_iot_mqtt_internal_disconnect,"ax",@progbits
	.align	1
	.globl	_aws_iot_mqtt_internal_disconnect
	.type	_aws_iot_mqtt_internal_disconnect, @function
_aws_iot_mqtt_internal_disconnect:
.LFB29:
	.loc 1 504 72 is_stmt 1
	.cfi_startproc
.LVL79:
	.loc 1 506 2
	.loc 1 507 2
	.loc 1 504 72 is_stmt 0
	addi	sp,sp,-32
	.cfi_def_cfa_offset 32
	sw	s0,24(sp)
	sw	ra,28(sp)
	sw	s1,20(sp)
	.cfi_offset 8, -8
	.cfi_offset 1, -4
	.cfi_offset 9, -12
	.loc 1 512 7
	lw	a1,56(a0)
	.loc 1 504 72
	mv	s0,a0
	.loc 1 512 7
	mv	a3,sp
	li	a2,14
	addi	a0,a0,68
.LVL80:
	.loc 1 507 9
	sw	zero,0(sp)
	.loc 1 508 2 is_stmt 1
	.loc 1 510 2
	.loc 1 512 2
	.loc 1 512 7 is_stmt 0
	call	aws_iot_mqtt_internal_serialize_zero
.LVL81:
	.loc 1 515 2 is_stmt 1
	.loc 1 515 4 is_stmt 0
	bne	a0,zero,.L86
	.loc 1 516 26 is_stmt 1
	.loc 1 519 2
	addi	a0,sp,4
.LVL82:
	call	init_timer
.LVL83:
	.loc 1 520 2
	lw	a1,40(s0)
	addi	a0,sp,4
	call	countdown_ms
.LVL84:
	.loc 1 523 2
	.loc 1 523 20 is_stmt 0
	lw	a1,0(sp)
	.loc 1 523 4
	beq	a1,zero,.L88
	.loc 1 524 3 is_stmt 1
	.loc 1 524 9 is_stmt 0
	addi	a2,sp,4
	mv	a0,s0
	call	aws_iot_mqtt_internal_send_packet
.LVL85:
.L88:
	.loc 1 528 2 is_stmt 1
	lw	a5,1292(s0)
	addi	s1,s0,1280
	mv	a0,s1
	jalr	a5
.LVL86:
	.loc 1 529 2
	.loc 1 529 7 is_stmt 0
	lw	a5,1300(s0)
	mv	a0,s1
	jalr	a5
.LVL87:
	.loc 1 530 2 is_stmt 1
	.loc 1 530 4 is_stmt 0
	snez	a0,a0
.LVL88:
	neg	a0,a0
	.loc 1 535 30 is_stmt 1
.L86:
	.loc 1 536 1 is_stmt 0
	lw	ra,28(sp)
	.cfi_restore 1
	lw	s0,24(sp)
	.cfi_restore 8
.LVL89:
	lw	s1,20(sp)
	.cfi_restore 9
	addi	sp,sp,32
	.cfi_def_cfa_offset 0
	jr	ra
	.cfi_endproc
.LFE29:
	.size	_aws_iot_mqtt_internal_disconnect, .-_aws_iot_mqtt_internal_disconnect
	.section	.text.aws_iot_mqtt_disconnect,"ax",@progbits
	.align	1
	.globl	aws_iot_mqtt_disconnect
	.type	aws_iot_mqtt_disconnect, @function
aws_iot_mqtt_disconnect:
.LFB30:
	.loc 1 549 62 is_stmt 1
	.cfi_startproc
.LVL90:
	.loc 1 550 2
	.loc 1 551 2
	.loc 1 553 2
	.loc 1 555 2
	.loc 1 555 4 is_stmt 0
	beq	a0,zero,.L96
	.loc 1 549 62
	addi	sp,sp,-16
	.cfi_def_cfa_offset 16
	sw	ra,12(sp)
	sw	s0,8(sp)
	sw	s1,4(sp)
	.cfi_offset 1, -4
	.cfi_offset 8, -8
	.cfi_offset 9, -12
	mv	s0,a0
	.loc 1 556 40 is_stmt 1
	.loc 1 559 2
	.loc 1 559 16 is_stmt 0
	call	aws_iot_mqtt_get_client_state
.LVL91:
	mv	s1,a0
.LVL92:
	.loc 1 560 2 is_stmt 1
	.loc 1 560 6 is_stmt 0
	mv	a0,s0
	call	aws_iot_mqtt_is_client_connected
.LVL93:
	mv	a5,a0
	.loc 1 562 15
	li	a0,-13
	.loc 1 560 4
	beq	a5,zero,.L93
	.loc 1 562 50 is_stmt 1
	.loc 1 565 2
	.loc 1 565 7 is_stmt 0
	li	a2,10
	mv	a1,s1
	mv	a0,s0
	call	aws_iot_mqtt_set_client_state
.LVL94:
	.loc 1 566 2 is_stmt 1
	.loc 1 566 4 is_stmt 0
	bne	a0,zero,.L93
	.loc 1 567 26 is_stmt 1
	.loc 1 570 2
	.loc 1 570 7 is_stmt 0
	mv	a0,s0
.LVL95:
	call	_aws_iot_mqtt_internal_disconnect
.LVL96:
	.loc 1 572 2 is_stmt 1
	.loc 1 572 4 is_stmt 0
	beq	a0,zero,.L95
	.loc 1 573 3 is_stmt 1
	.loc 1 573 37 is_stmt 0
	sw	s1,24(s0)
.LVL97:
.L93:
	.loc 1 580 1
	lw	ra,12(sp)
	.cfi_remember_state
	.cfi_restore 1
	lw	s0,8(sp)
	.cfi_restore 8
.LVL98:
	lw	s1,4(sp)
	.cfi_restore 9
.LVL99:
	addi	sp,sp,16
	.cfi_def_cfa_offset 0
	jr	ra
.LVL100:
.L95:
	.cfi_restore_state
	.loc 1 576 3 is_stmt 1
	.loc 1 576 37 is_stmt 0
	li	a5,12
	sw	a5,24(s0)
	j	.L93
.LVL101:
.L96:
	.cfi_def_cfa_offset 0
	.cfi_restore 1
	.cfi_restore 8
	.cfi_restore 9
	.loc 1 556 15
	li	a0,-2
.LVL102:
	.loc 1 580 1
	ret
	.cfi_endproc
.LFE30:
	.size	aws_iot_mqtt_disconnect, .-aws_iot_mqtt_disconnect
	.section	.text.aws_iot_mqtt_attempt_reconnect,"ax",@progbits
	.align	1
	.globl	aws_iot_mqtt_attempt_reconnect
	.type	aws_iot_mqtt_attempt_reconnect, @function
aws_iot_mqtt_attempt_reconnect:
.LFB31:
	.loc 1 595 69 is_stmt 1
	.cfi_startproc
.LVL103:
	.loc 1 596 2
	.loc 1 598 2
	.loc 1 600 2
	.loc 1 600 4 is_stmt 0
	beq	a0,zero,.L105
	.loc 1 595 69
	addi	sp,sp,-16
	.cfi_def_cfa_offset 16
	sw	s0,8(sp)
	sw	ra,12(sp)
	.cfi_offset 8, -8
	.cfi_offset 1, -4
	mv	s0,a0
	.loc 1 601 40 is_stmt 1
	.loc 1 604 2
	.loc 1 604 5 is_stmt 0
	call	aws_iot_mqtt_is_client_connected
.LVL104:
	mv	a5,a0
	.loc 1 605 15
	li	a0,-15
	.loc 1 604 4
	bne	a5,zero,.L102
	.loc 1 605 55 is_stmt 1
	.loc 1 609 2
	.loc 1 609 7 is_stmt 0
	li	a1,0
	mv	a0,s0
	call	aws_iot_mqtt_connect
.LVL105:
	.loc 1 612 2 is_stmt 1
	.loc 1 612 36 is_stmt 0
	mv	a0,s0
	call	aws_iot_mqtt_get_client_state
.LVL106:
	.loc 1 612 4
	li	a5,3
	beq	a0,a5,.L104
	.loc 1 613 3 is_stmt 1
	li	a2,13
	li	a1,11
	mv	a0,s0
	call	aws_iot_mqtt_set_client_state
.LVL107:
	.loc 1 614 3
	.loc 1 614 8
	.loc 1 614 15 is_stmt 0
	li	a0,4
.L102:
	.loc 1 623 1
	lw	ra,12(sp)
	.cfi_remember_state
	.cfi_restore 1
	lw	s0,8(sp)
	.cfi_restore 8
.LVL108:
	addi	sp,sp,16
	.cfi_def_cfa_offset 0
	jr	ra
.LVL109:
.L104:
	.cfi_restore_state
	.loc 1 614 52 is_stmt 1
	.loc 1 617 2
	.loc 1 617 7 is_stmt 0
	mv	a0,s0
	call	aws_iot_mqtt_resubscribe
.LVL110:
	.loc 1 618 2 is_stmt 1
	.loc 1 618 4 is_stmt 0
	bne	a0,zero,.L102
	.loc 1 622 14
	li	a0,3
.LVL111:
	.loc 1 622 42 is_stmt 1
	j	.L102
.LVL112:
.L105:
	.cfi_def_cfa_offset 0
	.cfi_restore 1
	.cfi_restore 8
	.loc 1 601 15 is_stmt 0
	li	a0,-2
.LVL113:
	.loc 1 623 1
	ret
	.cfi_endproc
.LFE31:
	.size	aws_iot_mqtt_attempt_reconnect, .-aws_iot_mqtt_attempt_reconnect
	.text
.Letext0:
	.file 2 "/home/anh/Desktop/wb2/Ai-Thinker-WB2/toolchain/riscv/Linux/riscv64-unknown-elf/include/machine/_default_types.h"
	.file 3 "/home/anh/Desktop/wb2/Ai-Thinker-WB2/toolchain/riscv/Linux/lib/gcc/riscv64-unknown-elf/10.2.0/include/stddef.h"
	.file 4 "/home/anh/Desktop/wb2/Ai-Thinker-WB2/toolchain/riscv/Linux/riscv64-unknown-elf/include/sys/_stdint.h"
	.file 5 "/home/anh/Desktop/wb2/Ai-Thinker-WB2/components/3rdparty/aws-iot/aws-iot-device-sdk-embedded-C/include/aws_iot_error.h"
	.file 6 "/home/anh/Desktop/wb2/Ai-Thinker-WB2/components/3rdparty/aws-iot/port/include/timer_platform.h"
	.file 7 "/home/anh/Desktop/wb2/Ai-Thinker-WB2/components/3rdparty/aws-iot/aws-iot-device-sdk-embedded-C/include/timer_interface.h"
	.file 8 "/home/anh/Desktop/wb2/Ai-Thinker-WB2/components/security/mbedtls_lts/mbedtls/include/mbedtls/bignum.h"
	.file 9 "/home/anh/Desktop/wb2/Ai-Thinker-WB2/components/security/mbedtls_lts/mbedtls/include/mbedtls/ecp.h"
	.file 10 "/home/anh/Desktop/wb2/Ai-Thinker-WB2/components/security/mbedtls_lts/mbedtls/include/mbedtls/md.h"
	.file 11 "/home/anh/Desktop/wb2/Ai-Thinker-WB2/components/security/mbedtls_lts/mbedtls/include/mbedtls/pk.h"
	.file 12 "/home/anh/Desktop/wb2/Ai-Thinker-WB2/components/security/mbedtls_lts/mbedtls/include/mbedtls/asn1.h"
	.file 13 "/home/anh/Desktop/wb2/Ai-Thinker-WB2/components/security/mbedtls_lts/mbedtls/include/mbedtls/x509.h"
	.file 14 "/home/anh/Desktop/wb2/Ai-Thinker-WB2/components/security/mbedtls_lts/mbedtls/include/mbedtls/x509_crl.h"
	.file 15 "/home/anh/Desktop/wb2/Ai-Thinker-WB2/components/security/mbedtls_lts/mbedtls/include/mbedtls/x509_crt.h"
	.file 16 "/home/anh/Desktop/wb2/Ai-Thinker-WB2/components/security/mbedtls_lts/mbedtls/include/mbedtls/ssl.h"
	.file 17 "/home/anh/Desktop/wb2/Ai-Thinker-WB2/components/security/mbedtls_lts/mbedtls/include/mbedtls/net_sockets.h"
	.file 18 "/home/anh/Desktop/wb2/Ai-Thinker-WB2/components/security/mbedtls_lts/mbedtls/include/mbedtls/sha512.h"
	.file 19 "/home/anh/Desktop/wb2/Ai-Thinker-WB2/components/security/mbedtls_lts/mbedtls/include/mbedtls/entropy.h"
	.file 20 "/home/anh/Desktop/wb2/Ai-Thinker-WB2/components/security/mbedtls_lts/mbedtls/include/mbedtls/aes.h"
	.file 21 "/home/anh/Desktop/wb2/Ai-Thinker-WB2/components/security/mbedtls_lts/mbedtls/include/mbedtls/ctr_drbg.h"
	.file 22 "/home/anh/Desktop/wb2/Ai-Thinker-WB2/components/3rdparty/aws-iot/port/include/network_platform.h"
	.file 23 "/home/anh/Desktop/wb2/Ai-Thinker-WB2/components/3rdparty/aws-iot/aws-iot-device-sdk-embedded-C/include/network_interface.h"
	.file 24 "/home/anh/Desktop/wb2/Ai-Thinker-WB2/components/platform/soc/bl602/freertos_riscv_ram/config/queue.h"
	.file 25 "/home/anh/Desktop/wb2/Ai-Thinker-WB2/components/platform/soc/bl602/freertos_riscv_ram/config/semphr.h"
	.file 26 "/home/anh/Desktop/wb2/Ai-Thinker-WB2/components/3rdparty/aws-iot/port/include/threads_platform.h"
	.file 27 "/home/anh/Desktop/wb2/Ai-Thinker-WB2/components/3rdparty/aws-iot/aws-iot-device-sdk-embedded-C/include/threads_interface.h"
	.file 28 "/home/anh/Desktop/wb2/Ai-Thinker-WB2/components/3rdparty/aws-iot/aws-iot-device-sdk-embedded-C/include/aws_iot_mqtt_client.h"
	.file 29 "/home/anh/Desktop/wb2/Ai-Thinker-WB2/components/3rdparty/aws-iot/aws-iot-device-sdk-embedded-C/include/aws_iot_mqtt_client_common_internal.h"
	.file 30 "/home/anh/Desktop/wb2/Ai-Thinker-WB2/components/3rdparty/aws-iot/aws-iot-device-sdk-embedded-C/include/aws_iot_mqtt_client_interface.h"