	.file	"aws_iot_jobs_interface.c"
	.option nopic
	.attribute arch, "rv32i2p0_m2p0_f2p0_c2p0"
	.attribute unaligned_access, 0
	.attribute stack_align, 16
	.text
.Ltext0:
	.cfi_sections	.debug_frame
	.section	.text.aws_iot_jobs_subscribe_to_job_messages,"ax",@progbits
	.align	1
	.globl	aws_iot_jobs_subscribe_to_job_messages
	.type	aws_iot_jobs_subscribe_to_job_messages, @function
aws_iot_jobs_subscribe_to_job_messages:
.LFB23:
	.file 1 "/home/anh/Desktop/wb2/Ai-Thinker-WB2/components/3rdparty/aws-iot/aws-iot-device-sdk-embedded-C/src/aws_iot_jobs_interface.c"
	.loc 1 43 1
	.cfi_startproc
.LVL0:
	.loc 1 44 2
	.loc 1 43 1 is_stmt 0
	addi	sp,sp,-32
	.cfi_def_cfa_offset 32
	sw	s1,20(sp)
	sw	s5,4(sp)
	.cfi_offset 9, -12
	.cfi_offset 21, -28
	lw	s1,32(sp)
	lhu	s5,36(sp)
	sw	s0,24(sp)
	sw	s2,16(sp)
	.cfi_offset 8, -8
	.cfi_offset 18, -16
	mv	s0,a0
	mv	s2,a1
	mv	a0,a3
.LVL1:
	mv	a1,a2
.LVL2:
	mv	a3,a5
.LVL3:
	mv	a2,a4
.LVL4:
	.loc 1 44 21
	mv	a5,a0
.LVL5:
	mv	a4,a1
.LVL6:
	mv	a0,s1
.LVL7:
	mv	a1,s5
.LVL8:
	.loc 1 43 1
	sw	s3,12(sp)
	sw	s4,8(sp)
	sw	ra,28(sp)
	.cfi_offset 19, -20
	.cfi_offset 20, -24
	.cfi_offset 1, -4
	.loc 1 43 1
	mv	s3,a6
	mv	s4,a7
	.loc 1 44 21
	call	aws_iot_jobs_get_api_topic
.LVL9:
	.loc 1 45 2 is_stmt 1
	.loc 1 45 5 is_stmt 0
	blt	a0,zero,.L3
	.loc 1 45 49 is_stmt 1 discriminator 2
	.loc 1 45 52 is_stmt 0 discriminator 2
	bleu	s5,a0,.L4
	.loc 1 45 129 is_stmt 1 discriminator 4
	.loc 1 47 2 discriminator 4
	.loc 1 47 64 is_stmt 0 discriminator 4
	mv	a0,s1
.LVL10:
	call	strlen
.LVL11:
	.loc 1 47 9 discriminator 4
	slli	a2,a0,16
	mv	a0,s0
	.loc 1 48 1 discriminator 4
	lw	s0,24(sp)
	.cfi_remember_state
	.cfi_restore 8
.LVL12:
	lw	ra,28(sp)
	.cfi_restore 1
	lw	s5,4(sp)
	.cfi_restore 21
	.loc 1 47 9 discriminator 4
	mv	a5,s4
	mv	a4,s3
	.loc 1 48 1 discriminator 4
	lw	s4,8(sp)
	.cfi_restore 20
.LVL13:
	lw	s3,12(sp)
	.cfi_restore 19
.LVL14:
	.loc 1 47 9 discriminator 4
	mv	a3,s2
	mv	a1,s1
	.loc 1 48 1 discriminator 4
	lw	s2,16(sp)
	.cfi_restore 18
.LVL15:
	lw	s1,20(sp)
	.cfi_restore 9
	.loc 1 47 9 discriminator 4
	srli	a2,a2,16
	.loc 1 48 1 discriminator 4
	addi	sp,sp,32
	.cfi_def_cfa_offset 0
.LVL16:
	.loc 1 47 9 discriminator 4
	tail	aws_iot_mqtt_subscribe
.LVL17:
.L3:
	.cfi_restore_state
	.loc 1 45 33
	li	a0,-1
.LVL18:
.L1:
	.loc 1 48 1
	lw	ra,28(sp)
	.cfi_remember_state
	.cfi_restore 1
	lw	s0,24(sp)
	.cfi_restore 8
.LVL19:
	lw	s1,20(sp)
	.cfi_restore 9
	lw	s2,16(sp)
	.cfi_restore 18
.LVL20:
	lw	s3,12(sp)
	.cfi_restore 19
.LVL21:
	lw	s4,8(sp)
	.cfi_restore 20
.LVL22:
	lw	s5,4(sp)
	.cfi_restore 21
	addi	sp,sp,32
	.cfi_def_cfa_offset 0
.LVL23:
	jr	ra
.LVL24:
.L4:
	.cfi_restore_state
	.loc 1 45 106
	li	a0,-51
.LVL25:
	j	.L1
	.cfi_endproc
.LFE23:
	.size	aws_iot_jobs_subscribe_to_job_messages, .-aws_iot_jobs_subscribe_to_job_messages
	.section	.text.aws_iot_jobs_subscribe_to_all_job_messages,"ax",@progbits
	.align	1
	.globl	aws_iot_jobs_subscribe_to_all_job_messages
	.type	aws_iot_jobs_subscribe_to_all_job_messages, @function
aws_iot_jobs_subscribe_to_all_job_messages:
.LFB24:
	.loc 1 57 1 is_stmt 1
	.cfi_startproc
.LVL26:
	.loc 1 58 2
	.loc 1 57 1 is_stmt 0
	addi	sp,sp,-32
	.cfi_def_cfa_offset 32
	.loc 1 58 9
	sw	a6,4(sp)
	sw	a5,0(sp)
	mv	a7,a4
	mv	a6,a3
.LVL27:
	li	a5,4
.LVL28:
	li	a4,7
.LVL29:
	li	a3,0
.LVL30:
	.loc 1 57 1
	sw	ra,28(sp)
	.cfi_offset 1, -4
	.loc 1 58 9
	call	aws_iot_jobs_subscribe_to_job_messages
.LVL31:
	.loc 1 60 1
	lw	ra,28(sp)
	.cfi_restore 1
	addi	sp,sp,32
	.cfi_def_cfa_offset 0
	jr	ra
	.cfi_endproc
.LFE24:
	.size	aws_iot_jobs_subscribe_to_all_job_messages, .-aws_iot_jobs_subscribe_to_all_job_messages
	.section	.text.aws_iot_jobs_unsubscribe_from_job_messages,"ax",@progbits
	.align	1
	.globl	aws_iot_jobs_unsubscribe_from_job_messages
	.type	aws_iot_jobs_unsubscribe_from_job_messages, @function
aws_iot_jobs_unsubscribe_from_job_messages:
.LFB25:
	.loc 1 65 1 is_stmt 1
	.cfi_startproc
.LVL32:
	.loc 1 66 2
	.loc 1 65 1 is_stmt 0
	addi	sp,sp,-32
	.cfi_def_cfa_offset 32
	sw	s0,24(sp)
	.cfi_offset 8, -8
	mv	s0,a0
	.loc 1 66 66
	mv	a0,a1
.LVL33:
	.loc 1 65 1
	sw	ra,28(sp)
	.cfi_offset 1, -4
	.loc 1 66 66
	sw	a1,12(sp)
	call	strlen
.LVL34:
	.loc 1 66 9
	slli	a2,a0,16
	mv	a0,s0
	.loc 1 67 1
	lw	s0,24(sp)
	.cfi_restore 8
.LVL35:
	.loc 1 66 9
	lw	a1,12(sp)
	.loc 1 67 1
	lw	ra,28(sp)
	.cfi_restore 1
	.loc 1 66 9
	srli	a2,a2,16
	.loc 1 67 1
	addi	sp,sp,32
	.cfi_def_cfa_offset 0
.LVL36:
	.loc 1 66 9
	tail	aws_iot_mqtt_unsubscribe
.LVL37:
	.cfi_endproc
.LFE25:
	.size	aws_iot_jobs_unsubscribe_from_job_messages, .-aws_iot_jobs_unsubscribe_from_job_messages
	.section	.text.aws_iot_jobs_send_query,"ax",@progbits
	.align	1
	.globl	aws_iot_jobs_send_query
	.type	aws_iot_jobs_send_query, @function
aws_iot_jobs_send_query:
.LFB26:
	.loc 1 79 1 is_stmt 1
	.cfi_startproc
.LVL38:
	.loc 1 80 2
	.loc 1 79 1 is_stmt 0
	addi	sp,sp,-64
	.cfi_def_cfa_offset 64
	sw	s5,36(sp)
	sw	ra,60(sp)
	sw	s0,56(sp)
	sw	s1,52(sp)
	sw	s2,48(sp)
	sw	s3,44(sp)
	sw	s4,40(sp)
	sw	s6,32(sp)
	.cfi_offset 21, -28
	.cfi_offset 1, -4
	.cfi_offset 8, -8
	.cfi_offset 9, -12
	.cfi_offset 18, -16
	.cfi_offset 19, -20
	.cfi_offset 20, -24
	.cfi_offset 22, -32
	.loc 1 79 1
	lw	s5,64(sp)
	.loc 1 80 5
	beq	a2,zero,.L18
	mv	s3,a0
	mv	s2,a5
	.loc 1 81 10 discriminator 1
	li	a0,-2
.LVL39:
	.loc 1 80 23 discriminator 1
	beq	a5,zero,.L10
	mv	s4,a1
	mv	s6,a4
	mv	s0,a6
	mv	s1,a7
	.loc 1 80 46 discriminator 2
	beq	a4,zero,.L12
	.loc 1 80 70 discriminator 3
	beq	a7,zero,.L10
.L12:
	.loc 1 84 2 is_stmt 1
	.loc 1 84 19 is_stmt 0
	mv	a4,a2
.LVL40:
	lw	a2,68(sp)
.LVL41:
	mv	a5,a3
.LVL42:
	mv	a1,s0
.LVL43:
	li	a3,1
.LVL44:
	mv	a0,s2
	call	aws_iot_jobs_get_api_topic
.LVL45:
	.loc 1 85 2 is_stmt 1
	.loc 1 85 5 is_stmt 0
	bge	a0,zero,.L13
.LVL46:
.L16:
	.loc 1 85 31
	li	a0,-1
.LVL47:
.L10:
	.loc 1 108 1
	lw	ra,60(sp)
	.cfi_remember_state
	.cfi_restore 1
	lw	s0,56(sp)
	.cfi_restore 8
	lw	s1,52(sp)
	.cfi_restore 9
	lw	s2,48(sp)
	.cfi_restore 18
	lw	s3,44(sp)
	.cfi_restore 19
	lw	s4,40(sp)
	.cfi_restore 20
	lw	s5,36(sp)
	.cfi_restore 21
	lw	s6,32(sp)
	.cfi_restore 22
	addi	sp,sp,64
	.cfi_def_cfa_offset 0
.LVL48:
	jr	ra
.LVL49:
.L13:
	.cfi_restore_state
	.loc 1 85 47 is_stmt 1 discriminator 2
	.loc 1 85 50 is_stmt 0 discriminator 2
	bgtu	s0,a0,.L14
.LVL50:
.L17:
	.loc 1 85 102
	li	a0,-51
	j	.L10
.LVL51:
.L14:
	.loc 1 85 125 is_stmt 1 discriminator 4
	.loc 1 86 2 discriminator 4
	.loc 1 86 11 is_stmt 0 discriminator 4
	slli	s0,a0,16
	srli	s0,s0,16
.LVL52:
	.loc 1 88 2 is_stmt 1 discriminator 4
	.loc 1 89 2 discriminator 4
	.loc 1 90 2 discriminator 4
	.loc 1 90 5 is_stmt 0 discriminator 4
	beq	s6,zero,.L21
.LBB2:
	.loc 1 94 3 is_stmt 1
	.loc 1 94 25 is_stmt 0
	mv	a2,s6
	mv	a1,s5
	mv	a0,s1
.LVL53:
	call	aws_iot_jobs_json_serialize_client_token_only_request
.LVL54:
	mv	a4,a0
.LVL55:
	.loc 1 95 3 is_stmt 1
	.loc 1 95 6 is_stmt 0
	blt	a0,zero,.L16
	.loc 1 95 53 is_stmt 1 discriminator 2
	.loc 1 95 56 is_stmt 0 discriminator 2
	bgeu	a0,s5,.L17
.LVL56:
.L15:
.LBE2:
	.loc 1 99 2 is_stmt 1
	.loc 1 100 2
	.loc 1 107 9 is_stmt 0
	addi	a3,sp,16
	mv	a2,s0
	mv	a1,s2
	mv	a0,s3
	.loc 1 100 20
	sw	s4,16(sp)
	.loc 1 101 2 is_stmt 1
	.loc 1 102 2
	.loc 1 103 2
	.loc 1 101 27 is_stmt 0
	sw	zero,20(sp)
	.loc 1 104 2 is_stmt 1
	.loc 1 104 24 is_stmt 0
	sw	s1,24(sp)
	.loc 1 105 2 is_stmt 1
	.loc 1 105 27 is_stmt 0
	sw	a4,28(sp)
	.loc 1 107 2 is_stmt 1
	.loc 1 107 9 is_stmt 0
	call	aws_iot_mqtt_publish
.LVL57:
	j	.L10
.LVL58:
.L21:
	.loc 1 91 17
	li	a4,0
	.loc 1 92 17
	addi	s1,sp,12
.LVL59:
	j	.L15
.LVL60:
.L18:
	.loc 1 81 10
	li	a0,-2
.LVL61:
	j	.L10
	.cfi_endproc
.LFE26:
	.size	aws_iot_jobs_send_query, .-aws_iot_jobs_send_query
	.section	.text.aws_iot_jobs_start_next,"ax",@progbits
	.align	1
	.globl	aws_iot_jobs_start_next
	.type	aws_iot_jobs_start_next, @function
aws_iot_jobs_start_next:
.LFB27:
	.loc 1 118 1 is_stmt 1
	.cfi_startproc
.LVL62:
	.loc 1 119 2
	.loc 1 119 5 is_stmt 0
	beq	a2,zero,.L32
	.loc 1 118 1 discriminator 1
	addi	sp,sp,-48
	.cfi_def_cfa_offset 48
	sw	s1,36(sp)
	sw	s4,24(sp)
	sw	ra,44(sp)
	sw	s0,40(sp)
	sw	s2,32(sp)
	sw	s3,28(sp)
	sw	s5,20(sp)
	sw	s6,16(sp)
	.cfi_offset 9, -12
	.cfi_offset 20, -24
	.cfi_offset 1, -4
	.cfi_offset 8, -8
	.cfi_offset 18, -16
	.cfi_offset 19, -20
	.cfi_offset 21, -28
	.cfi_offset 22, -32
	mv	s4,a0
	mv	s1,a4
	.loc 1 120 10 discriminator 1
	li	a0,-2
.LVL63:
	.loc 1 119 23 discriminator 1
	beq	a4,zero,.L26
	mv	s6,a3
	.loc 1 119 46 discriminator 2
	beq	a3,zero,.L26
	mv	s0,a5
	mv	s5,a1
	.loc 1 123 19
	mv	a4,a2
.LVL64:
	li	a5,0
.LVL65:
	li	a3,1
.LVL66:
	li	a2,2
.LVL67:
	mv	a1,s0
.LVL68:
	mv	a0,s1
	mv	s2,a6
	mv	s3,a7
	.loc 1 123 2 is_stmt 1
	.loc 1 123 19 is_stmt 0
	call	aws_iot_jobs_get_api_topic
.LVL69:
	.loc 1 124 2 is_stmt 1
	.loc 1 124 5 is_stmt 0
	bge	a0,zero,.L28
.LVL70:
.L30:
	.loc 1 124 31
	li	a0,-1
.LVL71:
.L26:
	.loc 1 139 1
	lw	ra,44(sp)
	.cfi_remember_state
	.cfi_restore 1
	lw	s0,40(sp)
	.cfi_restore 8
	lw	s1,36(sp)
	.cfi_restore 9
.LVL72:
	lw	s2,32(sp)
	.cfi_restore 18
	lw	s3,28(sp)
	.cfi_restore 19
	lw	s4,24(sp)
	.cfi_restore 20
.LVL73:
	lw	s5,20(sp)
	.cfi_restore 21
	lw	s6,16(sp)
	.cfi_restore 22
	addi	sp,sp,48
	.cfi_def_cfa_offset 0
	jr	ra
.LVL74:
.L28:
	.cfi_restore_state
	.loc 1 124 47 is_stmt 1 discriminator 2
	.loc 1 124 50 is_stmt 0 discriminator 2
	bgtu	s0,a0,.L29
.LVL75:
.L31:
	.loc 1 124 102
	li	a0,-51
	j	.L26
.LVL76:
.L29:
	.loc 1 124 125 is_stmt 1 discriminator 4
	.loc 1 125 2 discriminator 4
	.loc 1 125 11 is_stmt 0 discriminator 4
	slli	s0,a0,16
	.loc 1 127 24 discriminator 4
	mv	a2,s6
	mv	a1,s3
	mv	a0,s2
.LVL77:
	.loc 1 125 11 discriminator 4
	srli	s0,s0,16
.LVL78:
	.loc 1 127 2 is_stmt 1 discriminator 4
	.loc 1 127 24 is_stmt 0 discriminator 4
	call	aws_iot_jobs_json_serialize_start_next_job_execution_request
.LVL79:
	.loc 1 128 2 is_stmt 1 discriminator 4
	.loc 1 128 5 is_stmt 0 discriminator 4
	blt	a0,zero,.L30
	.loc 1 128 52 is_stmt 1 discriminator 2
	.loc 1 128 55 is_stmt 0 discriminator 2
	bgeu	a0,s3,.L31
	.loc 1 128 137 is_stmt 1 discriminator 4
	.loc 1 130 2 discriminator 4
	.loc 1 131 2 discriminator 4
	.loc 1 136 27 is_stmt 0 discriminator 4
	sw	a0,12(sp)
	.loc 1 138 9 discriminator 4
	mv	a3,sp
	mv	a2,s0
	mv	a1,s1
	mv	a0,s4
.LVL80:
	.loc 1 131 20 discriminator 4
	sw	s5,0(sp)
	.loc 1 132 2 is_stmt 1 discriminator 4
	.loc 1 133 2 discriminator 4
	.loc 1 134 2 discriminator 4
	.loc 1 132 27 is_stmt 0 discriminator 4
	sw	zero,4(sp)
	.loc 1 135 2 is_stmt 1 discriminator 4
	.loc 1 135 24 is_stmt 0 discriminator 4
	sw	s2,8(sp)
	.loc 1 136 2 is_stmt 1 discriminator 4
	.loc 1 138 2 discriminator 4
	.loc 1 138 9 is_stmt 0 discriminator 4
	call	aws_iot_mqtt_publish
.LVL81:
	j	.L26
.LVL82:
.L32:
	.cfi_def_cfa_offset 0
	.cfi_restore 1
	.cfi_restore 8
	.cfi_restore 9
	.cfi_restore 18
	.cfi_restore 19
	.cfi_restore 20
	.cfi_restore 21
	.cfi_restore 22
	.loc 1 120 10
	li	a0,-2
.LVL83:
	.loc 1 139 1
	ret
	.cfi_endproc
.LFE27:
	.size	aws_iot_jobs_start_next, .-aws_iot_jobs_start_next
	.section	.text.aws_iot_jobs_describe,"ax",@progbits
	.align	1
	.globl	aws_iot_jobs_describe
	.type	aws_iot_jobs_describe, @function
aws_iot_jobs_describe:
.LFB28:
	.loc 1 150 1 is_stmt 1
	.cfi_startproc
.LVL84:
	.loc 1 151 2
	.loc 1 150 1 is_stmt 0
	addi	sp,sp,-64
	.cfi_def_cfa_offset 64
	sw	s5,36(sp)
	sw	ra,60(sp)
	sw	s0,56(sp)
	sw	s1,52(sp)
	sw	s2,48(sp)
	sw	s3,44(sp)
	sw	s4,40(sp)
	sw	s6,32(sp)
	.cfi_offset 21, -28
	.cfi_offset 1, -4
	.cfi_offset 8, -8
	.cfi_offset 9, -12
	.cfi_offset 18, -16
	.cfi_offset 19, -20
	.cfi_offset 20, -24
	.cfi_offset 22, -32
	.loc 1 150 1
	lw	s5,64(sp)
	.loc 1 151 5
	beq	a2,zero,.L46
	mv	s3,a0
	mv	s2,a5
	.loc 1 152 10 discriminator 1
	li	a0,-2
.LVL85:
	.loc 1 151 23 discriminator 1
	beq	a5,zero,.L39
	mv	s6,a4
	.loc 1 151 46 discriminator 2
	beq	a4,zero,.L39
	mv	s4,a1
	.loc 1 155 19
	mv	a5,a3
.LVL86:
	mv	a4,a2
.LVL87:
	li	a3,1
.LVL88:
	li	a2,3
.LVL89:
	mv	a1,a6
.LVL90:
	mv	a0,s2
	mv	s0,a6
	mv	s1,a7
	.loc 1 155 2 is_stmt 1
	.loc 1 155 19 is_stmt 0
	call	aws_iot_jobs_get_api_topic
.LVL91:
	.loc 1 156 2 is_stmt 1
	.loc 1 156 5 is_stmt 0
	bge	a0,zero,.L41
.LVL92:
.L44:
	.loc 1 156 31
	li	a0,-1
.LVL93:
.L39:
	.loc 1 179 1
	lw	ra,60(sp)
	.cfi_remember_state
	.cfi_restore 1
	lw	s0,56(sp)
	.cfi_restore 8
	lw	s1,52(sp)
	.cfi_restore 9
	lw	s2,48(sp)
	.cfi_restore 18
	lw	s3,44(sp)
	.cfi_restore 19
	lw	s4,40(sp)
	.cfi_restore 20
	lw	s5,36(sp)
	.cfi_restore 21
	lw	s6,32(sp)
	.cfi_restore 22
	addi	sp,sp,64
	.cfi_def_cfa_offset 0
.LVL94:
	jr	ra
.LVL95:
.L41:
	.cfi_restore_state
	.loc 1 156 47 is_stmt 1 discriminator 2
	.loc 1 156 50 is_stmt 0 discriminator 2
	bgtu	s0,a0,.L42
.LVL96:
.L45:
	.loc 1 156 102
	li	a0,-51
	j	.L39
.LVL97:
.L42:
	.loc 1 156 125 is_stmt 1 discriminator 4
	.loc 1 157 2 discriminator 4
	.loc 1 157 11 is_stmt 0 discriminator 4
	slli	s0,a0,16
	srli	s0,s0,16
.LVL98:
	.loc 1 159 2 is_stmt 1 discriminator 4
	.loc 1 160 2 discriminator 4
	.loc 1 161 2 discriminator 4
	.loc 1 161 5 is_stmt 0 discriminator 4
	beq	s1,zero,.L49
.LBB3:
	.loc 1 165 3 is_stmt 1
	.loc 1 165 25 is_stmt 0
	mv	a2,s6
	mv	a1,s5
	mv	a0,s1
.LVL99:
	call	aws_iot_jobs_json_serialize_describe_job_execution_request
.LVL100:
	mv	a4,a0
.LVL101:
	.loc 1 166 3 is_stmt 1
	.loc 1 166 6 is_stmt 0
	blt	a0,zero,.L44
	.loc 1 166 53 is_stmt 1 discriminator 2
	.loc 1 166 56 is_stmt 0 discriminator 2
	bgeu	a0,s5,.L45
.LVL102:
.L43:
.LBE3:
	.loc 1 170 2 is_stmt 1
	.loc 1 171 2
	.loc 1 178 9 is_stmt 0
	addi	a3,sp,16
	mv	a2,s0
	mv	a1,s2
	mv	a0,s3
	.loc 1 171 20
	sw	s4,16(sp)
	.loc 1 172 2 is_stmt 1
	.loc 1 173 2
	.loc 1 174 2
	.loc 1 172 27 is_stmt 0
	sw	zero,20(sp)
	.loc 1 175 2 is_stmt 1
	.loc 1 175 24 is_stmt 0
	sw	s1,24(sp)
	.loc 1 176 2 is_stmt 1
	.loc 1 176 27 is_stmt 0
	sw	a4,28(sp)
	.loc 1 178 2 is_stmt 1
	.loc 1 178 9 is_stmt 0
	call	aws_iot_mqtt_publish
.LVL103:
	j	.L39
.LVL104:
.L49:
	.loc 1 162 17
	li	a4,0
	.loc 1 163 17
	addi	s1,sp,12
.LVL105:
	j	.L43
.LVL106:
.L46:
	.loc 1 152 10
	li	a0,-2
.LVL107:
	j	.L39
	.cfi_endproc
.LFE28:
	.size	aws_iot_jobs_describe, .-aws_iot_jobs_describe
	.section	.text.aws_iot_jobs_send_update,"ax",@progbits
	.align	1
	.globl	aws_iot_jobs_send_update
	.type	aws_iot_jobs_send_update, @function
aws_iot_jobs_send_update:
.LFB29:
	.loc 1 190 1 is_stmt 1
	.cfi_startproc
.LVL108:
	.loc 1 191 2
	.loc 1 190 1 is_stmt 0
	addi	sp,sp,-48
	.cfi_def_cfa_offset 48
	sw	s6,16(sp)
	sw	ra,44(sp)
	sw	s0,40(sp)
	sw	s1,36(sp)
	sw	s2,32(sp)
	sw	s3,28(sp)
	sw	s4,24(sp)
	sw	s5,20(sp)
	.cfi_offset 22, -32
	.cfi_offset 1, -4
	.cfi_offset 8, -8
	.cfi_offset 9, -12
	.cfi_offset 18, -16
	.cfi_offset 19, -20
	.cfi_offset 20, -24
	.cfi_offset 21, -28
	.loc 1 190 1
	lw	s6,48(sp)
	.loc 1 191 5
	beq	a2,zero,.L57
	mv	s4,a0
	mv	s1,a5
	.loc 1 192 10 discriminator 1
	li	a0,-2
.LVL109:
	.loc 1 191 23 discriminator 1
	beq	a5,zero,.L51
	.loc 1 191 46 discriminator 2
	beq	a3,zero,.L51
	mv	s3,a4
	.loc 1 191 63 discriminator 3
	beq	a4,zero,.L51
	mv	s5,a1
	.loc 1 195 19
	mv	a5,a3
.LVL110:
	mv	a4,a2
.LVL111:
	li	a3,1
.LVL112:
	li	a2,4
.LVL113:
	mv	a1,a6
.LVL114:
	mv	a0,s1
	mv	s0,a6
	mv	s2,a7
	.loc 1 195 2 is_stmt 1
	.loc 1 195 19 is_stmt 0
	call	aws_iot_jobs_get_api_topic
.LVL115:
	.loc 1 196 2 is_stmt 1
	.loc 1 196 5 is_stmt 0
	bge	a0,zero,.L53
.LVL116:
.L55:
	.loc 1 196 31
	li	a0,-1
.LVL117:
.L51:
	.loc 1 211 1
	lw	ra,44(sp)
	.cfi_remember_state
	.cfi_restore 1
	lw	s0,40(sp)
	.cfi_restore 8
	lw	s1,36(sp)
	.cfi_restore 9
	lw	s2,32(sp)
	.cfi_restore 18
	lw	s3,28(sp)
	.cfi_restore 19
	lw	s4,24(sp)
	.cfi_restore 20
	lw	s5,20(sp)
	.cfi_restore 21
	lw	s6,16(sp)
	.cfi_restore 22
	addi	sp,sp,48
	.cfi_def_cfa_offset 0
.LVL118:
	jr	ra
.LVL119:
.L53:
	.cfi_restore_state
	.loc 1 196 47 is_stmt 1 discriminator 2
	.loc 1 196 50 is_stmt 0 discriminator 2
	bgtu	s0,a0,.L54
.LVL120:
.L56:
	.loc 1 196 102
	li	a0,-51
	j	.L51
.LVL121:
.L54:
	.loc 1 196 125 is_stmt 1 discriminator 4
	.loc 1 197 2 discriminator 4
	.loc 1 197 11 is_stmt 0 discriminator 4
	slli	s0,a0,16
	.loc 1 199 24 discriminator 4
	mv	a2,s3
	mv	a1,s6
	mv	a0,s2
.LVL122:
	.loc 1 197 11 discriminator 4
	srli	s0,s0,16
.LVL123:
	.loc 1 199 2 is_stmt 1 discriminator 4
	.loc 1 199 24 is_stmt 0 discriminator 4
	call	aws_iot_jobs_json_serialize_update_job_execution_request
.LVL124:
	.loc 1 200 2 is_stmt 1 discriminator 4
	.loc 1 200 5 is_stmt 0 discriminator 4
	blt	a0,zero,.L55
	.loc 1 200 52 is_stmt 1 discriminator 2
	.loc 1 200 55 is_stmt 0 discriminator 2
	bgeu	a0,s6,.L56
	.loc 1 200 137 is_stmt 1 discriminator 4
	.loc 1 202 2 discriminator 4
	.loc 1 203 2 discriminator 4
	.loc 1 208 27 is_stmt 0 discriminator 4
	sw	a0,12(sp)
	.loc 1 210 9 discriminator 4
	mv	a3,sp
	mv	a2,s0
	mv	a1,s1
	mv	a0,s4
.LVL125:
	.loc 1 203 20 discriminator 4
	sw	s5,0(sp)
	.loc 1 204 2 is_stmt 1 discriminator 4
	.loc 1 205 2 discriminator 4
	.loc 1 206 2 discriminator 4
	.loc 1 204 27 is_stmt 0 discriminator 4
	sw	zero,4(sp)
	.loc 1 207 2 is_stmt 1 discriminator 4
	.loc 1 207 24 is_stmt 0 discriminator 4
	sw	s2,8(sp)
	.loc 1 208 2 is_stmt 1 discriminator 4
	.loc 1 210 2 discriminator 4
	.loc 1 210 9 is_stmt 0 discriminator 4
	call	aws_iot_mqtt_publish
.LVL126:
	j	.L51
.LVL127:
.L57:
	.loc 1 192 10
	li	a0,-2
.LVL128:
	j	.L51
	.cfi_endproc
.LFE29:
	.size	aws_iot_jobs_send_update, .-aws_iot_jobs_send_update
	.text
.Letext0:
	.file 2 "/home/anh/Desktop/wb2/Ai-Thinker-WB2/toolchain/riscv/Linux/riscv64-unknown-elf/include/machine/_default_types.h"
	.file 3 "/home/anh/Desktop/wb2/Ai-Thinker-WB2/toolchain/riscv/Linux/lib/gcc/riscv64-unknown-elf/10.2.0/include/stddef.h"
	.file 4 "/home/anh/Desktop/wb2/Ai-Thinker-WB2/toolchain/riscv/Linux/riscv64-unknown-elf/include/sys/_stdint.h"
	.file 5 "/home/anh/Desktop/wb2/Ai-Thinker-WB2/components/3rdparty/aws-iot/aws-iot-device-sdk-embedded-C/include/aws_iot_error.h"
	.file 6 "/home/anh/Desktop/wb2/Ai-Thinker-WB2/components/3rdparty/aws-iot/port/include/timer_platform.h"
	.file 7 "/home/anh/Desktop/wb2/Ai-Thinker-WB2/components/3rdparty/aws-iot/aws-iot-device-sdk-embedded-C/include/timer_interface.h"
	.file 8 "/home/anh/Desktop/wb2/Ai-Thinker-WB2/components/security/mbedtls_lts/mbedtls/include/mbedtls/bignum.h"
	.file 9 "/home/anh/Desktop/wb2/Ai-Thinker-WB2/components/security/mbedtls_lts/mbedtls/include/mbedtls/ecp.h"
	.file 10 "/home/anh/Desktop/wb2/Ai-Thinker-WB2/components/security/mbedtls_lts/mbedtls/include/mbedtls/md.h"
	.file 11 "/home/anh/Desktop/wb2/Ai-Thinker-WB2/components/security/mbedtls_lts/mbedtls/include/mbedtls/pk.h"
	.file 12 "/home/anh/Desktop/wb2/Ai-Thinker-WB2/components/security/mbedtls_lts/mbedtls/include/mbedtls/asn1.h"
	.file 13 "/home/anh/Desktop/wb2/Ai-Thinker-WB2/components/security/mbedtls_lts/mbedtls/include/mbedtls/x509.h"
	.file 14 "/home/anh/Desktop/wb2/Ai-Thinker-WB2/components/security/mbedtls_lts/mbedtls/include/mbedtls/x509_crl.h"
	.file 15 "/home/anh/Desktop/wb2/Ai-Thinker-WB2/components/security/mbedtls_lts/mbedtls/include/mbedtls/x509_crt.h"
	.file 16 "/home/anh/Desktop/wb2/Ai-Thinker-WB2/components/security/mbedtls_lts/mbedtls/include/mbedtls/ssl.h"
	.file 17 "/home/anh/Desktop/wb2/Ai-Thinker-WB2/components/security/mbedtls_lts/mbedtls/include/mbedtls/net_sockets.h"
	.file 18 "/home/anh/Desktop/wb2/Ai-Thinker-WB2/components/security/mbedtls_lts/mbedtls/include/mbedtls/sha512.h"
	.file 19 "/home/anh/Desktop/wb2/Ai-Thinker-WB2/components/security/mbedtls_lts/mbedtls/include/mbedtls/entropy.h"
	.file 20 "/home/anh/Desktop/wb2/Ai-Thinker-WB2/components/security/mbedtls_lts/mbedtls/include/mbedtls/aes.h"
	.file 21 "/home/anh/Desktop/wb2/Ai-Thinker-WB2/components/security/mbedtls_lts/mbedtls/include/mbedtls/ctr_drbg.h"
	.file 22 "/home/anh/Desktop/wb2/Ai-Thinker-WB2/components/3rdparty/aws-iot/port/include/network_platform.h"
	.file 23 "/home/anh/Desktop/wb2/Ai-Thinker-WB2/components/3rdparty/aws-iot/aws-iot-device-sdk-embedded-C/include/network_interface.h"
	.file 24 "/home/anh/Desktop/wb2/Ai-Thinker-WB2/components/platform/soc/bl602/freertos_riscv_ram/config/queue.h"
	.file 25 "/home/anh/Desktop/wb2/Ai-Thinker-WB2/components/platform/soc/bl602/freertos_riscv_ram/config/semphr.h"
	.file 26 "/home/anh/Desktop/wb2/Ai-Thinker-WB2/components/3rdparty/aws-iot/port/include/threads_platform.h"
	.file 27 "/home/anh/Desktop/wb2/Ai-Thinker-WB2/components/3rdparty/aws-iot/aws-iot-device-sdk-embedded-C/include/threads_interface.h"
	.file 28 "/home/anh/Desktop/wb2/Ai-Thinker-WB2/components/3rdparty/aws-iot/aws-iot-device-sdk-embedded-C/include/aws_iot_mqtt_client.h"
	.file 29 "/home/anh/Desktop/wb2/Ai-Thinker-WB2/components/3rdparty/aws-iot/aws-iot-device-sdk-embedded-C/include/aws_iot_jobs_topics.h"
	.file 30 "/home/anh/Desktop/wb2/Ai-Thinker-WB2/components/3rdparty/aws-iot/aws-iot-device-sdk-embedded-C/include/aws_iot_jobs_types.h"
	.file 31 "/home/anh/Desktop/wb2/Ai-Thinker-WB2/components/3rdparty/aws-iot/aws-iot-device-sdk-embedded-C/include/aws_iot_jobs_json.h"
	.file 32 "/home/anh/Desktop/wb2/Ai-Thinker-WB2/components/3rdparty/aws-iot/aws-iot-device-sdk-embedded-C/include/aws_iot_mqtt_client_interface.h"
	.file 33 "/home/anh/Desktop/wb2/Ai-Thinker-WB2/toolchain/riscv/Linux/riscv64-unknown-elf/include/string.h"