	.file	"aws_iot_mqtt_client.c"
	.option nopic
	.attribute arch, "rv32i2p0_m2p0_f2p0_c2p0"
	.attribute unaligned_access, 0
	.attribute stack_align, 16
	.text
.Ltext0:
	.cfi_sections	.debug_frame
	.section	.text.aws_iot_mqtt_get_client_state,"ax",@progbits
	.align	1
	.globl	aws_iot_mqtt_get_client_state
	.type	aws_iot_mqtt_get_client_state, @function
aws_iot_mqtt_get_client_state:
.LFB23:
	.file 1 "/home/anh/Desktop/wb2/Ai-Thinker-WB2/components/3rdparty/aws-iot/aws-iot-device-sdk-embedded-C/src/aws_iot_mqtt_client.c"
	.loc 1 62 68
	.cfi_startproc
.LVL0:
	.loc 1 63 2
	.loc 1 64 2
	.loc 1 64 4 is_stmt 0
	beq	a0,zero,.L3
	.loc 1 68 2 is_stmt 1
	.loc 1 68 7
	.loc 1 68 35 is_stmt 0
	lw	a0,24(a0)
.LVL1:
	ret
.LVL2:
.L3:
	.loc 1 65 10
	li	a0,0
.LVL3:
	.loc 1 68 56 is_stmt 1
	.loc 1 69 1 is_stmt 0
	ret
	.cfi_endproc
.LFE23:
	.size	aws_iot_mqtt_get_client_state, .-aws_iot_mqtt_get_client_state
	.section	.text.aws_iot_mqtt_client_lock_mutex,"ax",@progbits
	.align	1
	.globl	aws_iot_mqtt_client_lock_mutex
	.type	aws_iot_mqtt_client_lock_mutex, @function
aws_iot_mqtt_client_lock_mutex:
.LFB24:
	.loc 1 72 90 is_stmt 1
	.cfi_startproc
.LVL4:
	.loc 1 73 2
	.loc 1 74 2
	.loc 1 76 2
	.loc 1 72 90 is_stmt 0
	mv	a5,a0
	mv	a0,a1
.LVL5:
	.loc 1 76 4
	beq	a5,zero,.L4
	.loc 1 76 20 discriminator 1
	beq	a1,zero,.L4
	.loc 1 77 40 is_stmt 1
	.loc 1 80 2
	.loc 1 80 4 is_stmt 0
	lbu	a5,1092(a5)
.LVL6:
	bne	a5,zero,.L6
	.loc 1 81 3 is_stmt 1
	.loc 1 81 14 is_stmt 0
	tail	aws_iot_thread_mutex_trylock
.LVL7:
.L6:
	.loc 1 83 3 is_stmt 1
	.loc 1 83 14 is_stmt 0
	tail	aws_iot_thread_mutex_lock
.LVL8:
.L4:
	.loc 1 92 1
	li	a0,-2
.LVL9:
	ret
	.cfi_endproc
.LFE24:
	.size	aws_iot_mqtt_client_lock_mutex, .-aws_iot_mqtt_client_lock_mutex
	.section	.text.aws_iot_mqtt_client_unlock_mutex,"ax",@progbits
	.align	1
	.globl	aws_iot_mqtt_client_unlock_mutex
	.type	aws_iot_mqtt_client_unlock_mutex, @function
aws_iot_mqtt_client_unlock_mutex:
.LFB25:
	.loc 1 94 92 is_stmt 1
	.cfi_startproc
.LVL10:
	.loc 1 95 2
	.loc 1 95 4 is_stmt 0
	beq	a0,zero,.L11
	.loc 1 95 20 discriminator 1
	beq	a1,zero,.L11
	.loc 1 98 2 is_stmt 1
	.loc 1 99 2
	.loc 1 99 9 is_stmt 0
	mv	a0,a1
.LVL11:
	tail	aws_iot_thread_mutex_unlock
.LVL12:
.L11:
	.loc 1 100 1
	li	a0,-2
.LVL13:
	ret
	.cfi_endproc
.LFE25:
	.size	aws_iot_mqtt_client_unlock_mutex, .-aws_iot_mqtt_client_unlock_mutex
	.section	.text.aws_iot_mqtt_set_client_state,"ax",@progbits
	.align	1
	.globl	aws_iot_mqtt_set_client_state
	.type	aws_iot_mqtt_set_client_state, @function
aws_iot_mqtt_set_client_state:
.LFB26:
	.loc 1 104 35 is_stmt 1
	.cfi_startproc
.LVL14:
	.loc 1 105 2
	.loc 1 107 2
	.loc 1 110 2
	.loc 1 111 2
	.loc 1 111 4 is_stmt 0
	beq	a0,zero,.L20
	.loc 1 104 35
	addi	sp,sp,-48
	.cfi_def_cfa_offset 48
	sw	s3,28(sp)
	.cfi_offset 19, -20
	mv	s3,a1
	.loc 1 116 7
	addi	a1,a0,1096
.LVL15:
	.loc 1 104 35
	sw	s0,40(sp)
	sw	s2,32(sp)
	sw	ra,44(sp)
	sw	s1,36(sp)
	.cfi_offset 8, -8
	.cfi_offset 18, -16
	.cfi_offset 1, -4
	.cfi_offset 9, -12
	mv	s0,a0
	mv	s2,a2
	.loc 1 112 40 is_stmt 1
	.loc 1 116 2
	.loc 1 116 7 is_stmt 0
	sw	a1,12(sp)
	call	aws_iot_mqtt_client_lock_mutex
.LVL16:
	.loc 1 117 2 is_stmt 1
	.loc 1 117 4 is_stmt 0
	bne	a0,zero,.L17
	.loc 1 121 2 is_stmt 1
.LVL17:
.LBB4:
.LBB5:
	.loc 1 63 2
	.loc 1 64 2
	.loc 1 68 2
	.loc 1 68 7
	.loc 1 68 56
.LBE5:
.LBE4:
	.loc 1 121 4 is_stmt 0
	lw	a5,24(s0)
	lw	a1,12(sp)
	.loc 1 125 6
	li	s1,-29
	.loc 1 121 4
	bne	a5,s3,.L19
	.loc 1 122 3 is_stmt 1
	.loc 1 122 37 is_stmt 0
	sw	s2,24(s0)
	.loc 1 123 3 is_stmt 1
.LVL18:
	.loc 1 123 6 is_stmt 0
	li	s1,0
.LVL19:
.L19:
	.loc 1 129 2 is_stmt 1
	.loc 1 129 13 is_stmt 0
	mv	a0,s0
	call	aws_iot_mqtt_client_unlock_mutex
.LVL20:
	.loc 1 130 2 is_stmt 1
	.loc 1 130 4 is_stmt 0
	beq	s1,zero,.L17
	mv	a0,s1
.LVL21:
.L17:
	.loc 1 136 1
	lw	ra,44(sp)
	.cfi_restore 1
	lw	s0,40(sp)
	.cfi_restore 8
.LVL22:
	lw	s1,36(sp)
	.cfi_restore 9
	lw	s2,32(sp)
	.cfi_restore 18
.LVL23:
	lw	s3,28(sp)
	.cfi_restore 19
.LVL24:
	addi	sp,sp,48
	.cfi_def_cfa_offset 0
.LVL25:
	jr	ra
.LVL26:
.L20:
	.loc 1 112 15
	li	a0,-2
.LVL27:
	.loc 1 135 25 is_stmt 1
	.loc 1 136 1 is_stmt 0
	ret
	.cfi_endproc
.LFE26:
	.size	aws_iot_mqtt_set_client_state, .-aws_iot_mqtt_set_client_state
	.section	.rodata.aws_iot_mqtt_set_connect_params.str1.4,"aMS",@progbits,1
	.align	2
.LC1:
	.string	"?SDK=C&Version=%d.%d.%d"
	.section	.text.aws_iot_mqtt_set_connect_params,"ax",@progbits
	.align	1
	.globl	aws_iot_mqtt_set_connect_params
	.type	aws_iot_mqtt_set_connect_params, @function
aws_iot_mqtt_set_connect_params:
.LFB27:
	.loc 1 138 122 is_stmt 1
	.cfi_startproc
.LVL28:
	.loc 1 139 2
	.loc 1 140 2
	.loc 1 140 4 is_stmt 0
	beq	a0,zero,.L32
	.loc 1 138 122 discriminator 1
	addi	sp,sp,-32
	.cfi_def_cfa_offset 32
	sw	s0,24(sp)
	sw	s1,20(sp)
	sw	ra,28(sp)
	sw	s2,16(sp)
	sw	s3,12(sp)
	.cfi_offset 8, -8
	.cfi_offset 9, -12
	.cfi_offset 1, -4
	.cfi_offset 18, -16
	.cfi_offset 19, -20
	mv	s1,a0
	mv	s0,a1
	.loc 1 141 15 discriminator 1
	li	a0,-2
.LVL29:
	.loc 1 140 20 discriminator 1
	beq	a1,zero,.L29
	.loc 1 141 40 is_stmt 1
	.loc 1 144 2
	.loc 1 144 66 is_stmt 0
	lbu	a5,17(a1)
	.loc 1 149 11
	lui	s2,%hi(.LANCHOR0)
	addi	a0,s2,%lo(.LANCHOR0)
	.loc 1 144 47
	sb	a5,1125(s1)
	.loc 1 145 2 is_stmt 1
	.loc 1 145 61 is_stmt 0
	lw	a5,4(a1)
	.loc 1 145 42
	sw	a5,1112(s1)
	.loc 1 146 2 is_stmt 1
	.loc 1 146 59 is_stmt 0
	lw	a5,8(a1)
	.loc 1 146 40
	sw	a5,1116(s1)
	.loc 1 147 2 is_stmt 1
	.loc 1 147 61 is_stmt 0
	lhu	a5,12(a1)
	.loc 1 147 42
	sh	a5,1120(s1)
	.loc 1 149 2 is_stmt 1
	.loc 1 149 11 is_stmt 0
	call	strlen
.LVL30:
	.loc 1 149 5
	bne	a0,zero,.L31
	.loc 1 150 3 is_stmt 1
	lui	a2,%hi(.LC1)
	li	a5,1
	li	a4,0
	li	a3,3
	addi	a2,a2,%lo(.LC1)
	li	a1,25
	addi	a0,s2,%lo(.LANCHOR0)
	call	snprintf
.LVL31:
.L31:
	.loc 1 152 2
	.loc 1 152 40 is_stmt 0
	addi	a5,s2,%lo(.LANCHOR0)
	sw	a5,1152(s1)
	.loc 1 153 2 is_stmt 1
	.loc 1 153 44 is_stmt 0
	addi	a0,s2,%lo(.LANCHOR0)
	call	strlen
.LVL32:
	.loc 1 153 42
	sh	a0,1156(s1)
	.loc 1 158 2 is_stmt 1
	.loc 1 158 59 is_stmt 0
	lw	a5,52(s0)
	.loc 1 169 14
	li	a0,0
	.loc 1 158 40
	sw	a5,1160(s1)
	.loc 1 159 2 is_stmt 1
	.loc 1 159 61 is_stmt 0
	lhu	a5,56(s0)
	.loc 1 159 42
	sh	a5,1164(s1)
	.loc 1 160 2 is_stmt 1
	.loc 1 160 71 is_stmt 0
	lw	a4,24(s0)
	.loc 1 160 46
	addi	a5,s1,1024
	sw	a4,108(a5)
	.loc 1 161 2 is_stmt 1
	.loc 1 161 73 is_stmt 0
	lhu	a4,28(s0)
	.loc 1 161 48
	sh	a4,1136(s1)
	.loc 1 162 2 is_stmt 1
	.loc 1 162 69 is_stmt 0
	lw	a4,32(s0)
	.loc 1 162 44
	sw	a4,116(a5)
	.loc 1 163 2 is_stmt 1
	.loc 1 163 67 is_stmt 0
	lhu	a4,36(s0)
	.loc 1 163 42
	sh	a4,1144(s1)
	.loc 1 164 2 is_stmt 1
	.loc 1 164 64 is_stmt 0
	lw	a4,40(s0)
	.loc 1 164 39
	sw	a4,124(a5)
	.loc 1 165 2 is_stmt 1
	.loc 1 165 71 is_stmt 0
	lbu	a5,38(s0)
	.loc 1 165 46
	sb	a5,1146(s1)
	.loc 1 166 2 is_stmt 1
	.loc 1 166 72 is_stmt 0
	lhu	a5,14(s0)
	.loc 1 166 53
	sh	a5,1122(s1)
	.loc 1 167 2 is_stmt 1
	.loc 1 167 64 is_stmt 0
	lbu	a5,16(s0)
	.loc 1 167 45
	sb	a5,1124(s1)
	.loc 1 169 2 is_stmt 1
	.loc 1 169 7
.L29:
	.loc 1 170 1 is_stmt 0
	lw	ra,28(sp)
	.cfi_restore 1
	lw	s0,24(sp)
	.cfi_restore 8
.LVL33:
	lw	s1,20(sp)
	.cfi_restore 9
.LVL34:
	lw	s2,16(sp)
	.cfi_restore 18
	lw	s3,12(sp)
	.cfi_restore 19
	addi	sp,sp,32
	.cfi_def_cfa_offset 0
	jr	ra
.LVL35:
.L32:
	.loc 1 141 15
	li	a0,-2
.LVL36:
	.loc 1 170 1
	ret
	.cfi_endproc
.LFE27:
	.size	aws_iot_mqtt_set_connect_params, .-aws_iot_mqtt_set_connect_params
	.section	.text.aws_iot_mqtt_free,"ax",@progbits
	.align	1
	.globl	aws_iot_mqtt_free
	.type	aws_iot_mqtt_free, @function
aws_iot_mqtt_free:
.LFB28:
	.loc 1 173 1 is_stmt 1
	.cfi_startproc
.LVL37:
	.loc 1 174 5
	.loc 1 176 5
	.loc 1 173 1 is_stmt 0
	addi	sp,sp,-16
	.cfi_def_cfa_offset 16
	sw	ra,12(sp)
	sw	s0,8(sp)
	sw	s1,4(sp)
	.cfi_offset 1, -4
	.cfi_offset 8, -8
	.cfi_offset 9, -12
	.loc 1 176 8
	beq	a0,zero,.L43
	mv	s1,a0
	.loc 1 181 3 is_stmt 1
	.loc 1 183 4
	.loc 1 183 9 is_stmt 0
	addi	a0,a0,1096
.LVL38:
	call	aws_iot_thread_mutex_destroy
.LVL39:
	mv	s0,a0
.LVL40:
	.loc 1 186 3 is_stmt 1
	.loc 1 188 9 is_stmt 0
	addi	a0,s1,1100
	.loc 1 195 9
	addi	s1,s1,1104
.LVL41:
	.loc 1 186 6
	bne	s0,zero,.L40
	.loc 1 188 4 is_stmt 1
	.loc 1 188 9 is_stmt 0
	call	aws_iot_thread_mutex_destroy
.LVL42:
	mv	s0,a0
.LVL43:
	.loc 1 193 3 is_stmt 1
	.loc 1 193 6 is_stmt 0
	beq	a0,zero,.L41
.L42:
	.loc 1 197 4 is_stmt 1
	.loc 1 197 10 is_stmt 0
	mv	a0,s1
	call	aws_iot_thread_mutex_destroy
.LVL44:
.L38:
	.loc 1 203 1
	lw	ra,12(sp)
	.cfi_remember_state
	.cfi_restore 1
	mv	a0,s0
	lw	s0,8(sp)
	.cfi_restore 8
	lw	s1,4(sp)
	.cfi_restore 9
	addi	sp,sp,16
	.cfi_def_cfa_offset 0
	jr	ra
.LVL45:
.L40:
	.cfi_restore_state
	.loc 1 190 4 is_stmt 1
	.loc 1 190 10 is_stmt 0
	call	aws_iot_thread_mutex_destroy
.LVL46:
	.loc 1 193 3 is_stmt 1
	j	.L42
.L41:
	.loc 1 195 4
	.loc 1 203 1 is_stmt 0
	lw	s0,8(sp)
	.cfi_remember_state
	.cfi_restore 8
.LVL47:
	lw	ra,12(sp)
	.cfi_restore 1
	.loc 1 195 9
	mv	a0,s1
.LVL48:
	.loc 1 203 1
	lw	s1,4(sp)
	.cfi_restore 9
	addi	sp,sp,16
	.cfi_def_cfa_offset 0
	.loc 1 195 9
	tail	aws_iot_thread_mutex_destroy
.LVL49:
.L43:
	.cfi_restore_state
	.loc 1 177 12
	li	s0,-2
.LVL50:
	.loc 1 202 5 is_stmt 1
	.loc 1 202 10
	.loc 1 202 28
	.loc 1 202 17 is_stmt 0
	j	.L38
	.cfi_endproc
.LFE28:
	.size	aws_iot_mqtt_free, .-aws_iot_mqtt_free
	.section	.text.aws_iot_mqtt_init,"ax",@progbits
	.align	1
	.globl	aws_iot_mqtt_init
	.type	aws_iot_mqtt_init, @function
aws_iot_mqtt_init:
.LFB29:
	.loc 1 205 99 is_stmt 1
	.cfi_startproc
.LVL51:
	.loc 1 206 2
	.loc 1 207 2
	.loc 1 208 2
	.loc 1 205 99 is_stmt 0
	addi	sp,sp,-96
	.cfi_def_cfa_offset 96
	sw	s2,80(sp)
	.cfi_offset 18, -16
	mv	s2,a1
	.loc 1 208 28
	lui	a1,%hi(.LANCHOR1)
.LVL52:
	.loc 1 205 99
	sw	s1,84(sp)
	.loc 1 208 28
	li	a2,60
	.cfi_offset 9, -12
	.loc 1 205 99
	mv	s1,a0
	.loc 1 208 28
	addi	a1,a1,%lo(.LANCHOR1)
	addi	a0,sp,4
.LVL53:
	.loc 1 205 99
	sw	s0,88(sp)
	sw	ra,92(sp)
	sw	s3,76(sp)
	sw	s4,72(sp)
	sw	s5,68(sp)
	sw	s6,64(sp)
	.cfi_offset 8, -8
	.cfi_offset 1, -4
	.cfi_offset 19, -20
	.cfi_offset 20, -24
	.cfi_offset 21, -28
	.cfi_offset 22, -32
	.loc 1 215 15
	li	s0,-2
	.loc 1 208 28
	call	memcpy
.LVL54:
	.loc 1 210 2 is_stmt 1
	.loc 1 212 2
	.loc 1 212 4 is_stmt 0
	beq	s1,zero,.L45
	.loc 1 212 20 discriminator 1
	beq	s2,zero,.L45
	.loc 1 212 43 discriminator 2
	lw	a5,4(s2)
	beq	a5,zero,.L45
	.loc 1 212 76 discriminator 3
	lhu	a5,8(s2)
	beq	a5,zero,.L45
	.loc 1 212 102 discriminator 4
	lw	a5,12(s2)
	beq	a5,zero,.L45
	.loc 1 213 41
	lw	a5,20(s2)
	beq	a5,zero,.L45
	.loc 1 213 91 discriminator 1
	lw	a5,16(s2)
	beq	a5,zero,.L45
	addi	a5,s1,1168
	addi	a4,s1,1268
.L47:
	.loc 1 219 3 is_stmt 1 discriminator 3
	.loc 1 219 52 is_stmt 0 discriminator 3
	sw	zero,0(a5)
	.loc 1 220 3 is_stmt 1 discriminator 3
	.loc 1 220 62 is_stmt 0 discriminator 3
	sw	zero,12(a5)
	.loc 1 221 3 is_stmt 1 discriminator 3
	.loc 1 221 66 is_stmt 0 discriminator 3
	sw	zero,16(a5)
	.loc 1 222 3 is_stmt 1 discriminator 3
	.loc 1 222 46 is_stmt 0 discriminator 3
	sw	zero,8(a5)
	.loc 1 218 20 is_stmt 1 discriminator 3
	.loc 1 218 13 discriminator 3
	.loc 1 218 2 is_stmt 0 discriminator 3
	addi	a5,a5,20
	bne	a5,a4,.L47
	.loc 1 225 2 is_stmt 1
	.loc 1 225 51 is_stmt 0
	lw	a5,24(s2)
	.loc 1 232 35
	li	s5,1
	.loc 1 235 7
	addi	a1,sp,4
	.loc 1 225 38
	sw	a5,36(s1)
	.loc 1 226 2 is_stmt 1
	.loc 1 226 52 is_stmt 0
	lw	a5,28(s2)
	.loc 1 229 49
	sw	zero,52(s1)
	.loc 1 235 7
	mv	a0,s1
	.loc 1 226 39
	sw	a5,40(s1)
	.loc 1 227 2 is_stmt 1
	.loc 1 227 35 is_stmt 0
	li	a5,512
	sw	a5,56(s1)
	.loc 1 228 2 is_stmt 1
	.loc 1 228 34 is_stmt 0
	sw	a5,60(s1)
	.loc 1 229 2 is_stmt 1
	.loc 1 230 2
	.loc 1 230 53 is_stmt 0
	lw	a4,40(s2)
	.loc 1 230 40
	addi	a5,s1,1152
	sw	a4,116(a5)
	.loc 1 231 2 is_stmt 1
	.loc 1 231 57 is_stmt 0
	lw	a4,44(s2)
	.loc 1 231 44
	sw	a4,120(a5)
	.loc 1 232 2 is_stmt 1
	.loc 1 232 35 is_stmt 0
	sh	s5,32(s1)
	.loc 1 235 2 is_stmt 1
	.loc 1 235 7 is_stmt 0
	call	aws_iot_mqtt_set_connect_params
.LVL55:
	mv	s0,a0
.LVL56:
	.loc 1 236 2 is_stmt 1
	.loc 1 236 4 is_stmt 0
	bne	a0,zero,.L45
	.loc 1 237 26 is_stmt 1
	.loc 1 241 2
	.loc 1 241 62 is_stmt 0
	lbu	a5,48(s2)
	.loc 1 242 7
	addi	s3,s1,1096
	mv	a0,s3
	.loc 1 241 49
	sb	a5,1092(s1)
	.loc 1 242 2 is_stmt 1
	.loc 1 242 7 is_stmt 0
	call	aws_iot_thread_mutex_init
.LVL57:
	mv	s0,a0
.LVL58:
	.loc 1 243 2 is_stmt 1
	.loc 1 243 4 is_stmt 0
	bne	a0,zero,.L45
	.loc 1 244 26 is_stmt 1
	.loc 1 246 2
	.loc 1 246 7 is_stmt 0
	addi	s4,s1,1100
	mv	a0,s4
	call	aws_iot_thread_mutex_init
.LVL59:
	mv	s0,a0
.LVL60:
	.loc 1 247 2 is_stmt 1
	.loc 1 247 4 is_stmt 0
	beq	a0,zero,.L48
.L60:
	.loc 1 254 3 is_stmt 1
	.loc 1 254 9 is_stmt 0
	mv	a0,s3
	call	aws_iot_thread_mutex_destroy
.LVL61:
	.loc 1 255 3 is_stmt 1
	.loc 1 255 8
.L45:
	.loc 1 282 1 is_stmt 0
	lw	ra,92(sp)
	.cfi_remember_state
	.cfi_restore 1
	mv	a0,s0
	lw	s0,88(sp)
	.cfi_restore 8
	lw	s1,84(sp)
	.cfi_restore 9
.LVL62:
	lw	s2,80(sp)
	.cfi_restore 18
.LVL63:
	lw	s3,76(sp)
	.cfi_restore 19
	lw	s4,72(sp)
	.cfi_restore 20
	lw	s5,68(sp)
	.cfi_restore 21
	lw	s6,64(sp)
	.cfi_restore 22
	addi	sp,sp,96
	.cfi_def_cfa_offset 0
	jr	ra
.LVL64:
.L48:
	.cfi_restore_state
	.loc 1 249 26 is_stmt 1
	.loc 1 251 2
	.loc 1 251 7 is_stmt 0
	addi	s6,s1,1104
	mv	a0,s6
	call	aws_iot_thread_mutex_init
.LVL65:
	mv	s0,a0
.LVL66:
	.loc 1 252 2 is_stmt 1
	.loc 1 252 4 is_stmt 0
	beq	a0,zero,.L49
	.loc 1 253 3 is_stmt 1
	.loc 1 253 9 is_stmt 0
	mv	a0,s4
	call	aws_iot_thread_mutex_destroy
.LVL67:
	j	.L60
.L49:
	.loc 1 255 26 is_stmt 1
	.loc 1 259 2
	.loc 1 259 42 is_stmt 0
	sb	zero,28(s1)
	.loc 1 260 2 is_stmt 1
	.loc 1 260 60 is_stmt 0
	lbu	a5,0(s2)
	.loc 1 262 7
	addi	a0,s1,1280
	.loc 1 260 47
	sb	a5,29(s1)
	.loc 1 262 2 is_stmt 1
	.loc 1 262 7 is_stmt 0
	lbu	a7,36(s2)
	lw	a6,32(s2)
	lhu	a5,8(s2)
	lw	a4,4(s2)
	lw	a3,20(s2)
	lw	a2,16(s2)
	lw	a1,12(s2)
	call	iot_tls_init
.LVL68:
	mv	s0,a0
.LVL69:
	.loc 1 266 2 is_stmt 1
	.loc 1 266 4 is_stmt 0
	beq	a0,zero,.L50
	.loc 1 268 3 is_stmt 1
	.loc 1 268 9 is_stmt 0
	mv	a0,s4
	call	aws_iot_thread_mutex_destroy
.LVL70:
	.loc 1 269 3 is_stmt 1
	.loc 1 269 9 is_stmt 0
	mv	a0,s3
	call	aws_iot_thread_mutex_destroy
.LVL71:
	.loc 1 270 3 is_stmt 1
	.loc 1 270 9 is_stmt 0
	mv	a0,s6
	call	aws_iot_thread_mutex_destroy
.LVL72:
	.loc 1 272 3 is_stmt 1
	.loc 1 272 37 is_stmt 0
	sw	zero,24(s1)
	.loc 1 273 3 is_stmt 1
	.loc 1 273 8
	.loc 1 273 15 is_stmt 0
	j	.L45
.L50:
	.loc 1 273 26 is_stmt 1
	.loc 1 276 2
	mv	a0,s1
	call	init_timer
.LVL73:
	.loc 1 277 2
	addi	a0,s1,12
	call	init_timer
.LVL74:
	.loc 1 279 2
	.loc 1 279 36 is_stmt 0
	sw	s5,24(s1)
	.loc 1 281 2 is_stmt 1
	.loc 1 281 7
	.loc 1 281 14 is_stmt 0
	j	.L45
	.cfi_endproc
.LFE29:
	.size	aws_iot_mqtt_init, .-aws_iot_mqtt_init
	.section	.text.aws_iot_mqtt_get_next_packet_id,"ax",@progbits
	.align	1
	.globl	aws_iot_mqtt_get_next_packet_id
	.type	aws_iot_mqtt_get_next_packet_id, @function
aws_iot_mqtt_get_next_packet_id:
.LFB30:
	.loc 1 284 67 is_stmt 1
	.cfi_startproc
.LVL75:
	.loc 1 285 2
	.loc 1 285 85 is_stmt 0
	lhu	a5,32(a0)
	.loc 1 285 44
	li	a3,65536
	addi	a3,a3,-1
	.loc 1 284 67
	mv	a4,a0
	.loc 1 285 44
	li	a0,1
.LVL76:
	beq	a5,a3,.L62
	.loc 1 285 44 discriminator 1
	addi	a5,a5,1
	slli	a0,a5,16
	srli	a0,a0,16
.L62:
	.loc 1 285 42 discriminator 4
	sh	a0,32(a4)
	.loc 1 287 1 discriminator 4
	ret
	.cfi_endproc
.LFE30:
	.size	aws_iot_mqtt_get_next_packet_id, .-aws_iot_mqtt_get_next_packet_id
	.section	.text.aws_iot_mqtt_is_client_connected,"ax",@progbits
	.align	1
	.globl	aws_iot_mqtt_is_client_connected
	.type	aws_iot_mqtt_is_client_connected, @function
aws_iot_mqtt_is_client_connected:
.LFB31:
	.loc 1 289 63 is_stmt 1
	.cfi_startproc
.LVL77:
	.loc 1 290 1
	.loc 1 292 2
	.loc 1 294 2
	.loc 1 294 4 is_stmt 0
	beq	a0,zero,.L66
	.loc 1 296 11 is_stmt 1
	.loc 1 299 2
	lw	a0,24(a0)
.LVL78:
	addi	a0,a0,-3
	sltiu	a0,a0,7
	ret
.LVL79:
.L66:
	.loc 1 296 2 is_stmt 0
	li	a0,0
.LVL80:
	.loc 1 323 34 is_stmt 1
	.loc 1 324 1 is_stmt 0
	ret
	.cfi_endproc
.LFE31:
	.size	aws_iot_mqtt_is_client_connected, .-aws_iot_mqtt_is_client_connected
	.section	.text.aws_iot_is_autoreconnect_enabled,"ax",@progbits
	.align	1
	.globl	aws_iot_is_autoreconnect_enabled
	.type	aws_iot_is_autoreconnect_enabled, @function
aws_iot_is_autoreconnect_enabled:
.LFB32:
	.loc 1 326 63 is_stmt 1
	.cfi_startproc
.LVL81:
	.loc 1 327 2
	.loc 1 328 2
	.loc 1 328 4 is_stmt 0
	beq	a0,zero,.L69
	.loc 1 330 11 is_stmt 1
	.loc 1 333 2
	.loc 1 333 7
	.loc 1 333 35 is_stmt 0
	lbu	a0,29(a0)
.LVL82:
	ret
.LVL83:
.L69:
	.loc 1 330 2
	li	a0,0
.LVL84:
	.loc 1 333 67 is_stmt 1
	.loc 1 334 1 is_stmt 0
	ret
	.cfi_endproc
.LFE32:
	.size	aws_iot_is_autoreconnect_enabled, .-aws_iot_is_autoreconnect_enabled
	.section	.text.aws_iot_mqtt_autoreconnect_set_status,"ax",@progbits
	.align	1
	.globl	aws_iot_mqtt_autoreconnect_set_status
	.type	aws_iot_mqtt_autoreconnect_set_status, @function
aws_iot_mqtt_autoreconnect_set_status:
.LFB33:
	.loc 1 336 91 is_stmt 1
	.cfi_startproc
.LVL85:
	.loc 1 337 2
	.loc 1 338 2
	.loc 1 338 4 is_stmt 0
	beq	a0,zero,.L72
	.loc 1 339 40 is_stmt 1
	.loc 1 341 2
	.loc 1 341 47 is_stmt 0
	sb	a1,29(a0)
	.loc 1 342 2 is_stmt 1
	.loc 1 342 7
	.loc 1 342 14 is_stmt 0
	li	a0,0
.LVL86:
	ret
.LVL87:
.L72:
	.loc 1 339 15
	li	a0,-2
.LVL88:
	.loc 1 342 30 is_stmt 1
	.loc 1 343 1 is_stmt 0
	ret
	.cfi_endproc
.LFE33:
	.size	aws_iot_mqtt_autoreconnect_set_status, .-aws_iot_mqtt_autoreconnect_set_status
	.section	.text.aws_iot_mqtt_set_disconnect_handler,"ax",@progbits
	.align	1
	.globl	aws_iot_mqtt_set_disconnect_handler
	.type	aws_iot_mqtt_set_disconnect_handler, @function
aws_iot_mqtt_set_disconnect_handler:
.LFB34:
	.loc 1 346 43 is_stmt 1
	.cfi_startproc
.LVL89:
	.loc 1 347 2
	.loc 1 348 2
	.loc 1 346 43 is_stmt 0
	mv	a5,a0
	.loc 1 349 15
	li	a0,-2
.LVL90:
	.loc 1 348 4
	beq	a5,zero,.L73
	.loc 1 348 20 discriminator 1
	beq	a1,zero,.L73
	.loc 1 349 40 is_stmt 1
	.loc 1 352 2
	.loc 1 352 40 is_stmt 0
	sw	a1,1268(a5)
	.loc 1 353 2 is_stmt 1
	.loc 1 353 44 is_stmt 0
	sw	a2,1272(a5)
	.loc 1 354 2 is_stmt 1
	.loc 1 354 7
	.loc 1 354 14 is_stmt 0
	li	a0,0
	ret
.L73:
	.loc 1 355 1
	ret
	.cfi_endproc
.LFE34:
	.size	aws_iot_mqtt_set_disconnect_handler, .-aws_iot_mqtt_set_disconnect_handler
	.section	.text.aws_iot_mqtt_get_network_disconnected_count,"ax",@progbits
	.align	1
	.globl	aws_iot_mqtt_get_network_disconnected_count
	.type	aws_iot_mqtt_get_network_disconnected_count, @function
aws_iot_mqtt_get_network_disconnected_count:
.LFB35:
	.loc 1 357 79 is_stmt 1
	.cfi_startproc
.LVL91:
	.loc 1 358 2
	.loc 1 359 1 is_stmt 0
	lw	a0,52(a0)
.LVL92:
	ret
	.cfi_endproc
.LFE35:
	.size	aws_iot_mqtt_get_network_disconnected_count, .-aws_iot_mqtt_get_network_disconnected_count
	.section	.text.aws_iot_mqtt_reset_network_disconnected_count,"ax",@progbits
	.align	1
	.globl	aws_iot_mqtt_reset_network_disconnected_count
	.type	aws_iot_mqtt_reset_network_disconnected_count, @function
aws_iot_mqtt_reset_network_disconnected_count:
.LFB36:
	.loc 1 361 77 is_stmt 1
	.cfi_startproc
.LVL93:
	.loc 1 362 2
	.loc 1 362 49 is_stmt 0
	sw	zero,52(a0)
	.loc 1 363 1
	ret
	.cfi_endproc
.LFE36:
	.size	aws_iot_mqtt_reset_network_disconnected_count, .-aws_iot_mqtt_reset_network_disconnected_count
	.globl	iotClientConnectParamsDefault
	.globl	iotMqttWillOptionsDefault
	.globl	iotClientInitParamsDefault
	.section	.rodata
	.align	2
	.set	.LANCHOR1,. + 0
.LC0:
	.ascii	"MQTC"
	.word	4
	.word	0
	.half	0
	.half	60
	.byte	1
	.byte	0
	.zero	2
	.ascii	"MQTW"
	.word	0
	.half	0
	.zero	2
	.word	0
	.half	0
	.byte	0
	.zero	1
	.word	0
	.word	0
	.half	0
	.zero	2
	.word	0
	.half	0
	.zero	2
	.section	.bss.pUsernameTemp,"aw",@nobits
	.align	2
	.set	.LANCHOR0,. + 0
	.type	pUsernameTemp, @object
	.size	pUsernameTemp, 25
pUsernameTemp:
	.zero	25
	.section	.rodata.iotClientConnectParamsDefault,"a"
	.align	2
	.type	iotClientConnectParamsDefault, @object
	.size	iotClientConnectParamsDefault, 60
iotClientConnectParamsDefault:
	.ascii	"MQTC"
	.word	4
	.word	0
	.half	0
	.half	60
	.byte	1
	.byte	0
	.zero	2
	.ascii	"MQTW"
	.word	0
	.half	0
	.zero	2
	.word	0
	.half	0
	.byte	0
	.zero	1
	.word	0
	.word	0
	.half	0
	.zero	2
	.word	0
	.half	0
	.zero	2
	.section	.rodata.iotClientInitParamsDefault,"a"
	.align	2
	.type	iotClientInitParamsDefault, @object
	.size	iotClientInitParamsDefault, 52
iotClientInitParamsDefault:
	.byte	1
	.zero	3
	.word	0
	.half	0
	.zero	2
	.word	0
	.word	0
	.word	0
	.word	2000
	.word	20000
	.word	5000
	.byte	1
	.zero	3
	.word	0
	.word	0
	.byte	0
	.zero	3
	.section	.rodata.iotMqttWillOptionsDefault,"a"
	.align	2
	.type	iotMqttWillOptionsDefault, @object
	.size	iotMqttWillOptionsDefault, 24
iotMqttWillOptionsDefault:
	.ascii	"MQTW"
	.word	0
	.half	0
	.zero	2
	.word	0
	.half	0
	.byte	0
	.zero	1
	.word	0
	.text
.Letext0:
	.file 2 "/home/anh/Desktop/wb2/Ai-Thinker-WB2/toolchain/riscv/Linux/lib/gcc/riscv64-unknown-elf/10.2.0/include/stddef.h"
	.file 3 "/home/anh/Desktop/wb2/Ai-Thinker-WB2/toolchain/riscv/Linux/riscv64-unknown-elf/include/machine/_default_types.h"
	.file 4 "/home/anh/Desktop/wb2/Ai-Thinker-WB2/toolchain/riscv/Linux/riscv64-unknown-elf/include/sys/_stdint.h"
	.file 5 "/home/anh/Desktop/wb2/Ai-Thinker-WB2/components/3rdparty/aws-iot/aws-iot-device-sdk-embedded-C/include/aws_iot_error.h"
	.file 6 "/home/anh/Desktop/wb2/Ai-Thinker-WB2/components/3rdparty/aws-iot/port/include/timer_platform.h"
	.file 7 "/home/anh/Desktop/wb2/Ai-Thinker-WB2/components/3rdparty/aws-iot/aws-iot-device-sdk-embedded-C/include/timer_interface.h"
	.file 8 "/home/anh/Desktop/wb2/Ai-Thinker-WB2/components/security/mbedtls_lts/mbedtls/include/mbedtls/bignum.h"
	.file 9 "/home/anh/Desktop/wb2/Ai-Thinker-WB2/components/security/mbedtls_lts/mbedtls/include/mbedtls/ecp.h"
	.file 10 "/home/anh/Desktop/wb2/Ai-Thinker-WB2/components/security/mbedtls_lts/mbedtls/include/mbedtls/md.h"
	.file 11 "/home/anh/Desktop/wb2/Ai-Thinker-WB2/components/security/mbedtls_lts/mbedtls/include/mbedtls/pk.h"
	.file 12 "/home/anh/Desktop/wb2/Ai-Thinker-WB2/components/security/mbedtls_lts/mbedtls/include/mbedtls/asn1.h"
	.file 13 "/home/anh/Desktop/wb2/Ai-Thinker-WB2/components/security/mbedtls_lts/mbedtls/include/mbedtls/x509.h"
	.file 14 "/home/anh/Desktop/wb2/Ai-Thinker-WB2/components/security/mbedtls_lts/mbedtls/include/mbedtls/x509_crl.h"
	.file 15 "/home/anh/Desktop/wb2/Ai-Thinker-WB2/components/security/mbedtls_lts/mbedtls/include/mbedtls/x509_crt.h"
	.file 16 "/home/anh/Desktop/wb2/Ai-Thinker-WB2/components/security/mbedtls_lts/mbedtls/include/mbedtls/ssl.h"
	.file 17 "/home/anh/Desktop/wb2/Ai-Thinker-WB2/components/security/mbedtls_lts/mbedtls/include/mbedtls/net_sockets.h"
	.file 18 "/home/anh/Desktop/wb2/Ai-Thinker-WB2/components/security/mbedtls_lts/mbedtls/include/mbedtls/sha512.h"
	.file 19 "/home/anh/Desktop/wb2/Ai-Thinker-WB2/components/security/mbedtls_lts/mbedtls/include/mbedtls/entropy.h"
	.file 20 "/home/anh/Desktop/wb2/Ai-Thinker-WB2/components/security/mbedtls_lts/mbedtls/include/mbedtls/aes.h"
	.file 21 "/home/anh/Desktop/wb2/Ai-Thinker-WB2/components/security/mbedtls_lts/mbedtls/include/mbedtls/ctr_drbg.h"
	.file 22 "/home/anh/Desktop/wb2/Ai-Thinker-WB2/components/3rdparty/aws-iot/port/include/network_platform.h"
	.file 23 "/home/anh/Desktop/wb2/Ai-Thinker-WB2/components/3rdparty/aws-iot/aws-iot-device-sdk-embedded-C/include/network_interface.h"
	.file 24 "/home/anh/Desktop/wb2/Ai-Thinker-WB2/components/platform/soc/bl602/freertos_riscv_ram/config/queue.h"
	.file 25 "/home/anh/Desktop/wb2/Ai-Thinker-WB2/components/platform/soc/bl602/freertos_riscv_ram/config/semphr.h"
	.file 26 "/home/anh/Desktop/wb2/Ai-Thinker-WB2/components/3rdparty/aws-iot/port/include/threads_platform.h"
	.file 27 "/home/anh/Desktop/wb2/Ai-Thinker-WB2/components/3rdparty/aws-iot/aws-iot-device-sdk-embedded-C/include/threads_interface.h"
	.file 28 "/home/anh/Desktop/wb2/Ai-Thinker-WB2/components/3rdparty/aws-iot/aws-iot-device-sdk-embedded-C/include/aws_iot_mqtt_client.h"
	.file 29 "/home/anh/Desktop/wb2/Ai-Thinker-WB2/toolchain/riscv/Linux/riscv64-unknown-elf/include/string.h"
	.file 30 "/home/anh/Desktop/wb2/Ai-Thinker-WB2/toolchain/riscv/Linux/riscv64-unknown-elf/include/stdio.h"
	.file 31 "<built-in>"