	.file	"ap.c"
	.option nopic
	.attribute arch, "rv32i2p0_m2p0_f2p0_c2p0"
	.attribute unaligned_access, 0
	.attribute stack_align, 16
	.text
.Ltext0:
	.cfi_sections	.debug_frame
	.section	.rodata.wifi_ap_start.str1.4,"aMS",@progbits,1
	.align	2
.LC1:
	.string	"12345678"
	.align	2
.LC2:
	.string	"ai-thinker"
	.align	2
.LC3:
	.string	"ap1"
	.align	2
.LC4:
	.string	"."
	.align	2
.LC5:
	.string	"192.168.169.1"
	.align	2
.LC6:
	.string	"255.255.255.0"
	.section	.text.wifi_ap_start,"ax",@progbits
	.align	1
	.globl	wifi_ap_start
	.type	wifi_ap_start, @function
wifi_ap_start:
.LFB30:
	.file 1 "/home/anh/Desktop/wb2/Ai-Thinker-WB2/applications/get-started/config_wifi/config_wifi/ap.c"
	.loc 1 67 1
	.cfi_startproc
	.loc 1 68 5
	.loc 1 67 1 is_stmt 0
	addi	sp,sp,-96
	.cfi_def_cfa_offset 96
	sw	ra,92(sp)
	sw	s0,88(sp)
	sw	s1,84(sp)
	sw	s3,76(sp)
	sw	s4,72(sp)
	sw	s5,68(sp)
	sw	s6,64(sp)
	sw	s2,80(sp)
	.cfi_offset 1, -4
	.cfi_offset 8, -8
	.cfi_offset 9, -12
	.cfi_offset 19, -20
	.cfi_offset 20, -24
	.cfi_offset 21, -28
	.cfi_offset 22, -32
	.cfi_offset 18, -16
	.loc 1 68 20
	call	wifi_mgmr_ap_enable
.LVL0:
	.loc 1 70 5
	lui	a3,%hi(.LC1)
	lui	a1,%hi(.LC2)
	.loc 1 68 18
	lui	a5,%hi(.LANCHOR0)
	.loc 1 70 5
	li	a4,6
	addi	a3,a3,%lo(.LC1)
	li	a2,0
	addi	a1,a1,%lo(.LC2)
	.loc 1 68 18
	sw	a0,%lo(.LANCHOR0)(a5)
	.loc 1 70 5 is_stmt 1
	call	wifi_mgmr_ap_start
.LVL1:
	.loc 1 71 5
.LBB6:
.LBB7:
	.loc 1 19 5
	.loc 1 19 30 is_stmt 0
	lui	a0,%hi(.LC3)
	addi	a0,a0,%lo(.LC3)
	call	netif_find
.LVL2:
	.loc 1 22 9
	lui	a1,%hi(.LANCHOR1)
	li	a2,16
	addi	a1,a1,%lo(.LANCHOR1)
	.loc 1 19 30
	mv	s0,a0
.LVL3:
	.loc 1 20 5 is_stmt 1
	.loc 1 21 5
	.loc 1 22 9 is_stmt 0
	addi	a0,sp,32
	.loc 1 21 9
	sw	zero,20(sp)
	sw	zero,24(sp)
	sw	zero,28(sp)
	.loc 1 22 5 is_stmt 1
	.loc 1 25 25 is_stmt 0
	lui	s4,%hi(.LC4)
	.loc 1 22 9
	call	memcpy
.LVL4:
	.loc 1 23 5 is_stmt 1
	.loc 1 25 25 is_stmt 0
	lui	s5,%hi(.LC5)
	addi	a1,s4,%lo(.LC4)
	addi	a0,s5,%lo(.LC5)
	.loc 1 23 9
	sw	zero,52(sp)
	sw	zero,56(sp)
	sw	zero,60(sp)
	.loc 1 25 5 is_stmt 1
	.loc 1 25 25 is_stmt 0
	call	strtok
.LVL5:
	.loc 1 25 20
	call	atoi
.LVL6:
	mv	s3,a0
	.loc 1 27 5 is_stmt 1
.LVL7:
	.loc 1 27 16
	addi	s1,sp,16
	addi	s6,sp,28
.LVL8:
.L2:
	.loc 1 28 9
	.loc 1 28 29 is_stmt 0
	addi	a1,s4,%lo(.LC4)
	li	a0,0
	call	strtok
.LVL9:
	.loc 1 28 24
	call	atoi
.LVL10:
	.loc 1 28 22
	sw	a0,4(s1)
	.loc 1 27 20 is_stmt 1
	.loc 1 27 16
	.loc 1 27 5 is_stmt 0
	addi	s1,s1,4
	bne	s1,s6,.L2
	.loc 1 30 5 is_stmt 1
	.loc 1 31 9
	.loc 1 31 30 is_stmt 0
	lui	a0,%hi(.LC6)
	addi	a1,s4,%lo(.LC4)
	addi	a0,a0,%lo(.LC6)
	call	strtok
.LVL11:
	.loc 1 31 25
	call	atoi
.LVL12:
	mv	s1,a0
	.loc 1 32 9 is_stmt 1
.LVL13:
	.loc 1 32 20
	addi	s2,sp,32
	addi	s6,sp,44
.LVL14:
.L3:
	.loc 1 33 13
	.loc 1 33 34 is_stmt 0
	addi	a1,s4,%lo(.LC4)
	li	a0,0
	call	strtok
.LVL15:
	.loc 1 33 29
	call	atoi
.LVL16:
	.loc 1 33 27
	sw	a0,4(s2)
	.loc 1 32 24 is_stmt 1
	.loc 1 32 20
	.loc 1 32 9 is_stmt 0
	addi	s2,s2,4
	bne	s6,s2,.L3
	.loc 1 35 5 is_stmt 1
	.loc 1 36 9
	.loc 1 36 30 is_stmt 0
	addi	a1,s4,%lo(.LC4)
	addi	a0,s5,%lo(.LC5)
	call	strtok
.LVL17:
	.loc 1 36 25
	call	atoi
.LVL18:
	mv	s2,a0
	.loc 1 37 9 is_stmt 1
.LVL19:
	.loc 1 37 20
	addi	s5,sp,48
	addi	s6,sp,60
.LVL20:
.L4:
	.loc 1 38 13
	.loc 1 38 34 is_stmt 0
	addi	a1,s4,%lo(.LC4)
	li	a0,0
	call	strtok
.LVL21:
	.loc 1 38 29
	call	atoi
.LVL22:
	.loc 1 38 27
	sw	a0,4(s5)
	.loc 1 37 24 is_stmt 1
	.loc 1 37 20
	.loc 1 37 9 is_stmt 0
	addi	s5,s5,4
	bne	s5,s6,.L4
	.loc 1 41 5 is_stmt 1
	.loc 1 41 8 is_stmt 0
	beq	s0,zero,.L1
.LBB8:
	.loc 1 43 9 is_stmt 1
	.loc 1 44 9
	.loc 1 45 9
	.loc 1 46 9
	.loc 1 46 104 is_stmt 0
	lw	a4,20(sp)
	.loc 1 46 145
	lw	a0,24(sp)
	li	a2,65536
	.loc 1 46 104
	li	a3,16711680
	.loc 1 46 145
	addi	a1,a2,-1
	.loc 1 46 153
	lbu	a5,28(sp)
	.loc 1 46 104
	slli	a4,a4,16
	.loc 1 46 145
	slli	a0,a0,8
	and	a0,a0,a1
	.loc 1 46 104
	and	a4,a4,a3
	.loc 1 46 151
	or	a4,a4,a0
	or	a4,a4,a5
	.loc 1 46 63
	slli	a0,s3,24
	.loc 1 46 151
	or	a0,a4,a0
	.loc 1 46 780
	srli	a5,a0,24
	.loc 1 46 400
	slli	a6,a0,8
	.loc 1 46 209
	slli	a4,a4,24
	.loc 1 46 590
	addi	a2,a2,-256
	.loc 1 46 400
	and	a6,a6,a3
	.loc 1 46 596
	or	a4,a4,a5
	.loc 1 46 590
	srli	a0,a0,8
	and	a0,a0,a2
	.loc 1 46 596
	or	a4,a4,a6
	or	a4,a4,a0
	.loc 1 47 150
	lw	a5,40(sp)
	.loc 1 46 24
	sw	a4,4(sp)
	.loc 1 47 9 is_stmt 1
	.loc 1 47 108 is_stmt 0
	lw	a4,36(sp)
	.loc 1 47 150
	slli	a5,a5,8
	and	a5,a5,a1
	.loc 1 47 108
	slli	a4,a4,16
	and	a4,a4,a3
	.loc 1 47 156
	or	a4,a4,a5
	.loc 1 47 158
	lbu	a5,44(sp)
	.loc 1 47 66
	slli	s1,s1,24
	.loc 1 48 64
	slli	s2,s2,24
	.loc 1 47 156
	or	a4,a4,a5
	or	s1,a4,s1
	.loc 1 47 798
	srli	a5,s1,24
	.loc 1 47 215
	slli	a4,a4,24
	.loc 1 47 610
	or	a4,a4,a5
	.loc 1 47 410
	slli	a5,s1,8
	and	a5,a5,a3
	.loc 1 47 604
	srli	s1,s1,8
	and	s1,s1,a2
	.loc 1 47 610
	or	a4,a4,a5
	or	a4,a4,s1
	.loc 1 47 26
	sw	a4,8(sp)
	.loc 1 48 9 is_stmt 1
	.loc 1 48 148 is_stmt 0
	lw	a4,56(sp)
	.loc 1 48 106
	lw	a5,52(sp)
	.loc 1 50 9
	mv	a0,s0
	.loc 1 48 148
	slli	a4,a4,8
	and	a1,a4,a1
	.loc 1 48 106
	slli	a5,a5,16
	.loc 1 48 156
	lbu	a4,60(sp)
	.loc 1 48 106
	and	a5,a5,a3
	.loc 1 48 154
	or	a5,a5,a1
	or	a5,a5,a4
	or	s2,a5,s2
	.loc 1 48 796
	srli	a4,s2,24
	.loc 1 48 213
	slli	a5,a5,24
	.loc 1 48 608
	or	a5,a5,a4
	.loc 1 48 408
	slli	a4,s2,8
	and	a3,a4,a3
	.loc 1 48 602
	srli	s2,s2,8
	.loc 1 48 608
	or	a5,a5,a3
	.loc 1 48 602
	and	s2,s2,a2
	.loc 1 48 608
	or	a5,a5,s2
	.loc 1 48 24
	sw	a5,12(sp)
	.loc 1 50 9 is_stmt 1
	call	netif_set_down
.LVL23:
	.loc 1 51 9
	addi	a1,sp,4
	mv	a0,s0
	call	netif_set_ipaddr
.LVL24:
	.loc 1 52 9
	addi	a1,sp,8
	mv	a0,s0
	call	netif_set_netmask
.LVL25:
	.loc 1 53 9
	mv	a0,s0
	addi	a1,sp,12
	call	netif_set_gw
.LVL26:
	.loc 1 54 9
	mv	a0,s0
	call	netif_set_up
.LVL27:
	.loc 1 55 9
.L1:
.LBE8:
.LBE7:
.LBE6:
	.loc 1 75 1 is_stmt 0
	lw	ra,92(sp)
	.cfi_restore 1
	lw	s0,88(sp)
	.cfi_restore 8
	lw	s1,84(sp)
	.cfi_restore 9
	lw	s2,80(sp)
	.cfi_restore 18
	lw	s3,76(sp)
	.cfi_restore 19
	lw	s4,72(sp)
	.cfi_restore 20
	lw	s5,68(sp)
	.cfi_restore 21
	lw	s6,64(sp)
	.cfi_restore 22
	addi	sp,sp,96
	.cfi_def_cfa_offset 0
	jr	ra
	.cfi_endproc
.LFE30:
	.size	wifi_ap_start, .-wifi_ap_start
	.section	.text.wifi_ap_stop,"ax",@progbits
	.align	1
	.globl	wifi_ap_stop
	.type	wifi_ap_stop, @function
wifi_ap_stop:
.LFB31:
	.loc 1 78 1 is_stmt 1
	.cfi_startproc
	.loc 1 79 5
	.loc 1 78 1 is_stmt 0
	addi	sp,sp,-16
	.cfi_def_cfa_offset 16
	sw	s0,8(sp)
	.cfi_offset 8, -8
	.loc 1 79 22
	lui	s0,%hi(.LANCHOR0)
	addi	s0,s0,%lo(.LANCHOR0)
	lw	a0,0(s0)
	.loc 1 78 1
	sw	ra,12(sp)
	.cfi_offset 1, -4
	.loc 1 79 8
	beq	a0,zero,.L13
	.loc 1 81 9 is_stmt 1
	call	wifi_mgmr_ap_stop
.LVL28:
	.loc 1 82 9
	.loc 1 82 22 is_stmt 0
	sw	zero,0(s0)
.L13:
	.loc 1 84 1
	lw	ra,12(sp)
	.cfi_restore 1
	lw	s0,8(sp)
	.cfi_restore 8
	addi	sp,sp,16
	.cfi_def_cfa_offset 0
	jr	ra
	.cfi_endproc
.LFE31:
	.size	wifi_ap_stop, .-wifi_ap_stop
	.section	.rodata.event_ap_wifi_event.str1.4,"aMS",@progbits,1
	.align	2
.LC7:
	.string	"\r\n<<<<<<<<<<<<<<<<<<<<<<<< START SOFT AP OK <<<<<<<<<<<<<<<<<<<<\r\n"
	.align	2
.LC8:
	.string	"\r\n<<<<<<<<<<<<<<<<<<<<<<<< STOP SOFT AP <<<<<<<<<<<<<<<<<<<<\r\n"
	.align	2
.LC9:
	.string	"\r\n<<<<<<<<<<<<<<<<<<<<<<<< CONNECT AP <<<<<<<<<<<<<<<<<<<<\r\n"
	.align	2
.LC10:
	.string	"http server"
	.align	2
.LC11:
	.string	"\r\n<<<<<<<<<<<<<<<<<<<<<<<< DISCONNECT AP <<<<<<<<<<<<<<<<<<<<\r\n"
	.section	.text.event_ap_wifi_event,"ax",@progbits
	.align	1
	.globl	event_ap_wifi_event
	.type	event_ap_wifi_event, @function
event_ap_wifi_event:
.LFB32:
	.loc 1 87 1 is_stmt 1
	.cfi_startproc
.LVL29:
	.loc 1 88 5
	.loc 1 88 18 is_stmt 0
	lhu	a5,6(a0)
	.loc 1 88 5
	li	a4,12
	beq	a5,a4,.L20
	bgtu	a5,a4,.L21
	li	a4,2
	beq	a5,a4,.L22
	li	a4,11
	beq	a5,a4,.L23
	li	a4,1
	beq	a5,a4,.L24
	ret
.L21:
	li	a4,21
	beq	a5,a4,.L26
	li	a4,22
	beq	a5,a4,.L27
	ret
.L24:
	.loc 1 90 13 is_stmt 1
	.loc 1 91 13
	lui	a0,%hi(.LANCHOR2)
.LVL30:
	addi	a0,a0,%lo(.LANCHOR2)
	tail	wifi_mgmr_start_background
.LVL31:
.L22:
	.loc 1 94 13
	.loc 1 95 13
	tail	wifi_ap_start
.LVL32:
.L23:
	.loc 1 98 13
	.loc 1 99 13
	lui	a0,%hi(.LC7)
.LVL33:
	addi	a0,a0,%lo(.LC7)
.L30:
	.loc 1 113 13 is_stmt 0
	tail	printf
.LVL34:
.L20:
	.loc 1 103 13 is_stmt 1
	lui	a0,%hi(.LC8)
.LVL35:
	addi	a0,a0,%lo(.LC8)
	j	.L30
.LVL36:
.L26:
	.loc 1 106 13
	.loc 1 107 13
	lui	a0,%hi(.LC9)
.LVL37:
	.loc 1 87 1 is_stmt 0
	addi	sp,sp,-16
	.cfi_def_cfa_offset 16
	.loc 1 107 13
	addi	a0,a0,%lo(.LC9)
	.loc 1 87 1
	sw	ra,12(sp)
	.cfi_offset 1, -4
	.loc 1 107 13
	call	printf
.LVL38:
	.loc 1 108 13 is_stmt 1
	.loc 1 121 1 is_stmt 0
	lw	ra,12(sp)
	.cfi_restore 1
	.loc 1 108 13
	lui	a1,%hi(.LC10)
	lui	a0,%hi(http_server_start)
	.loc 1 121 1
	.loc 1 108 13
	li	a5,0
	li	a4,15
	li	a3,0
	li	a2,4096
	addi	a1,a1,%lo(.LC10)
	addi	a0,a0,%lo(http_server_start)
	.loc 1 121 1
	addi	sp,sp,16
	.cfi_def_cfa_offset 0
	.loc 1 108 13
	tail	xTaskCreate
.LVL39:
.L27:
	.loc 1 112 13 is_stmt 1
	.loc 1 113 13
	lui	a0,%hi(.LC11)
.LVL40:
	addi	a0,a0,%lo(.LC11)
	j	.L30
	.cfi_endproc
.LFE32:
	.size	event_ap_wifi_event, .-event_ap_wifi_event
	.section	.rodata
	.align	2
	.set	.LANCHOR1,. + 0
.LC0:
	.word	255
	.word	255
	.word	255
	.word	0
	.section	.sbss.ap_interface,"aw",@nobits
	.align	2
	.set	.LANCHOR0,. + 0
	.type	ap_interface, @object
	.size	ap_interface, 4
ap_interface:
	.zero	4
	.section	.sdata.ap_conf,"aw"
	.align	2
	.set	.LANCHOR2,. + 0
	.type	ap_conf, @object
	.size	ap_conf, 8
ap_conf:
	.string	"CN"
	.zero	5
	.text
.Letext0:
	.file 2 "/home/anh/Desktop/wb2/Ai-Thinker-WB2/toolchain/riscv/Linux/lib/gcc/riscv64-unknown-elf/10.2.0/include/stdint-gcc.h"
	.file 3 "/home/anh/Desktop/wb2/Ai-Thinker-WB2/components/stage/yloop/include/aos/yloop.h"
	.file 4 "/home/anh/Desktop/wb2/Ai-Thinker-WB2/components/network/lwip/src/include/lwip/arch.h"
	.file 5 "/home/anh/Desktop/wb2/Ai-Thinker-WB2/components/network/lwip/src/include/lwip/err.h"
	.file 6 "/home/anh/Desktop/wb2/Ai-Thinker-WB2/components/network/lwip/src/include/lwip/ip4_addr.h"
	.file 7 "/home/anh/Desktop/wb2/Ai-Thinker-WB2/components/network/lwip/src/include/lwip/ip_addr.h"
	.file 8 "/home/anh/Desktop/wb2/Ai-Thinker-WB2/components/network/lwip/src/include/lwip/pbuf.h"
	.file 9 "/home/anh/Desktop/wb2/Ai-Thinker-WB2/components/network/lwip/src/include/lwip/netif.h"
	.file 10 "/home/anh/Desktop/wb2/Ai-Thinker-WB2/components/platform/hosal/bl602_hal/bl_pm.h"
	.file 11 "/home/anh/Desktop/wb2/Ai-Thinker-WB2/components/network/wifi/include/bl60x_fw_api.h"
	.file 12 "/home/anh/Desktop/wb2/Ai-Thinker-WB2/components/network/wifi_manager/bl60x_wifi_driver/include/wifi_mgmr_ext.h"
	.file 13 "/home/anh/Desktop/wb2/Ai-Thinker-WB2/toolchain/riscv/Linux/riscv64-unknown-elf/include/stdio.h"
	.file 14 "/home/anh/Desktop/wb2/Ai-Thinker-WB2/components/platform/soc/bl602/freertos_riscv_ram/config/task.h"
	.file 15 "/home/anh/Desktop/wb2/Ai-Thinker-WB2/toolchain/riscv/Linux/riscv64-unknown-elf/include/string.h"
	.file 16 "/home/anh/Desktop/wb2/Ai-Thinker-WB2/toolchain/riscv/Linux/riscv64-unknown-elf/include/stdlib.h"
	.file 17 "/home/anh/Desktop/wb2/Ai-Thinker-WB2/components/network/lwip/src/include/lwip/memp.h"
	.file 18 "<built-in>"