	.file	"http_server.c"
	.option nopic
	.attribute arch, "rv32i2p0_m2p0_f2p0_c2p0"
	.attribute unaligned_access, 0
	.attribute stack_align, 16
	.text
.Ltext0:
	.cfi_sections	.debug_frame
	.section	.rodata.web_http_server.str1.4,"aMS",@progbits,1
	.align	2
.LC0:
	.string	"the received data:\n%s\n"
	.align	2
.LC1:
	.string	"POST /?Wifi_Config=send HTTP/1.1"
	.align	2
.LC2:
	.string	"\r\n\r\n"
	.align	2
.LC3:
	.string	"ssid"
	.align	2
.LC4:
	.string	"password"
	.align	2
.LC5:
	.string	"Received SSID: %s\r\n"
	.align	2
.LC6:
	.string	"Received Password: %s\r\n"
	.section	.text.web_http_server,"ax",@progbits
	.align	1
	.globl	web_http_server
	.type	web_http_server, @function
web_http_server:
.LFB29:
	.file 1 "/home/anh/Desktop/wb2/Ai-Thinker-WB2/applications/get-started/config_wifi/config_wifi/http_server.c"
	.loc 1 25 43
	.cfi_startproc
.LVL0:
	.loc 1 27 5
	.loc 1 28 5
	.loc 1 29 5
	.loc 1 30 5
	.loc 1 32 5
	.loc 1 25 43 is_stmt 0
	addi	sp,sp,-48
	.cfi_def_cfa_offset 48
	.loc 1 32 11
	addi	a1,sp,8
	.loc 1 25 43
	sw	s1,36(sp)
	sw	ra,44(sp)
	sw	s0,40(sp)
	sw	s2,32(sp)
	sw	s3,28(sp)
	.cfi_offset 9, -12
	.cfi_offset 1, -4
	.cfi_offset 8, -8
	.cfi_offset 18, -16
	.cfi_offset 19, -20
	.loc 1 25 43
	mv	s1,a0
	.loc 1 32 11
	call	netconn_recv
.LVL1:
	.loc 1 33 5 is_stmt 1
	.loc 1 33 8 is_stmt 0
	bne	a0,zero,.L3
	.loc 1 35 9 is_stmt 1
	lw	a0,8(sp)
.LVL2:
	addi	a2,sp,6
	addi	a1,sp,12
	call	netbuf_data
.LVL3:
	.loc 1 36 9
	lw	a1,12(sp)
	lui	a0,%hi(.LC0)
	addi	a0,a0,%lo(.LC0)
	call	printf
.LVL4:
	.loc 1 38 9
	.loc 1 38 12 is_stmt 0
	lhu	a4,6(sp)
	li	a5,4
	bleu	a4,a5,.L4
	.loc 1 38 31 discriminator 1
	lw	a5,12(sp)
	.loc 1 38 25 discriminator 1
	li	a4,71
	lbu	a3,0(a5)
	bne	a3,a4,.L4
	.loc 1 38 42 discriminator 2
	lbu	a3,1(a5)
	li	a4,69
	bne	a3,a4,.L4
	.loc 1 38 59 discriminator 3
	lbu	a3,2(a5)
	li	a4,84
	bne	a3,a4,.L4
	.loc 1 38 76 discriminator 4
	lbu	a3,3(a5)
	li	a4,32
	bne	a3,a4,.L4
	.loc 1 38 93 discriminator 5
	lbu	a4,4(a5)
	li	a5,47
	bne	a4,a5,.L4
	.loc 1 40 13 is_stmt 1
	lui	a1,%hi(.LANCHOR0)
	li	a4,0
	li	a3,0
	li	a2,44
	addi	a1,a1,%lo(.LANCHOR0)
	mv	a0,s1
	call	netconn_write_partly
.LVL5:
	.loc 1 42 13
	.loc 1 44 17
	lui	a1,%hi(.LANCHOR1)
	li	a4,0
	li	a3,0
	li	a2,366
	addi	a1,a1,%lo(.LANCHOR1)
	mv	a0,s1
	call	netconn_write_partly
.LVL6:
.L4:
	.loc 1 57 9
	.loc 1 57 12 is_stmt 0
	lhu	a4,6(sp)
	li	a5,5
	bleu	a4,a5,.L3
	.loc 1 57 31 discriminator 1
	lw	a0,12(sp)
	.loc 1 57 25 discriminator 1
	li	a5,80
	lbu	a4,0(a0)
	bne	a4,a5,.L3
	.loc 1 57 42 discriminator 2
	lbu	a4,1(a0)
	li	a5,79
	bne	a4,a5,.L3
	.loc 1 57 59 discriminator 3
	lbu	a4,2(a0)
	li	a5,83
	bne	a4,a5,.L3
	.loc 1 57 76 discriminator 4
	lbu	a4,3(a0)
	li	a5,84
	bne	a4,a5,.L3
	.loc 1 57 93 discriminator 5
	lbu	a4,4(a0)
	li	a5,32
	bne	a4,a5,.L3
	.loc 1 57 110 discriminator 6
	lbu	a4,5(a0)
	li	a5,47
	bne	a4,a5,.L3
	.loc 1 59 13 is_stmt 1
	.loc 1 59 17 is_stmt 0
	lui	a1,%hi(.LC1)
	addi	a1,a1,%lo(.LC1)
	call	strstr
.LVL7:
	.loc 1 59 16
	beq	a0,zero,.L3
.LBB2:
	.loc 1 61 17 is_stmt 1
	.loc 1 61 36 is_stmt 0
	lw	a0,12(sp)
	lui	a1,%hi(.LC2)
	addi	a1,a1,%lo(.LC2)
	call	strstr
.LVL8:
	.loc 1 62 17 is_stmt 1
	.loc 1 62 20 is_stmt 0
	beq	a0,zero,.L3
.LBB3:
	.loc 1 63 21 is_stmt 1
.LVL9:
	.loc 1 65 21
	.loc 1 65 35 is_stmt 0
	addi	a0,a0,4
.LVL10:
	call	cJSON_Parse
.LVL11:
	mv	s0,a0
.LVL12:
	.loc 1 66 21 is_stmt 1
	.loc 1 66 24 is_stmt 0
	beq	a0,zero,.L3
.LBB4:
	.loc 1 68 25 is_stmt 1
	.loc 1 68 39 is_stmt 0
	lui	a1,%hi(.LC3)
	addi	a1,a1,%lo(.LC3)
	call	cJSON_GetObjectItem
.LVL13:
	.loc 1 69 43
	lui	a1,%hi(.LC4)
	.loc 1 68 39
	mv	s2,a0
.LVL14:
	.loc 1 69 25 is_stmt 1
	.loc 1 69 43 is_stmt 0
	addi	a1,a1,%lo(.LC4)
	mv	a0,s0
.LVL15:
	call	cJSON_GetObjectItem
.LVL16:
	mv	s3,a0
.LVL17:
	.loc 1 71 25 is_stmt 1
	.loc 1 71 28 is_stmt 0
	beq	s2,zero,.L6
	.loc 1 71 34 discriminator 1
	beq	a0,zero,.L6
	.loc 1 72 29 is_stmt 1
	lw	a1,16(s2)
	lui	a0,%hi(.LC5)
.LVL18:
	addi	a0,a0,%lo(.LC5)
	call	printf
.LVL19:
	.loc 1 73 29
	lw	a1,16(s3)
	lui	a0,%hi(.LC6)
	addi	a0,a0,%lo(.LC6)
	call	printf
.LVL20:
	.loc 1 74 29
	call	wifi_ap_stop
.LVL21:
	.loc 1 75 29
	lw	a1,16(s3)
	lw	a0,16(s2)
	call	wifi_sta_connect
.LVL22:
	.loc 1 87 29
	.loc 1 87 42 is_stmt 0
	lui	a5,%hi(.LANCHOR2)
	li	a4,1
	sb	a4,%lo(.LANCHOR2)(a5)
.L6:
	.loc 1 90 25 is_stmt 1
	mv	a0,s0
	call	cJSON_Delete
.LVL23:
.L3:
.LBE4:
.LBE3:
.LBE2:
	.loc 1 98 5
	mv	a0,s1
	call	netconn_close
.LVL24:
	.loc 1 99 5
	lw	a0,8(sp)
	call	netbuf_delete
.LVL25:
	.loc 1 100 1 is_stmt 0
	lw	ra,44(sp)
	.cfi_restore 1
	lw	s0,40(sp)
	.cfi_restore 8
	lw	s1,36(sp)
	.cfi_restore 9
.LVL26:
	lw	s2,32(sp)
	.cfi_restore 18
	lw	s3,28(sp)
	.cfi_restore 19
	addi	sp,sp,48
	.cfi_def_cfa_offset 0
	jr	ra
	.cfi_endproc
.LFE29:
	.size	web_http_server, .-web_http_server
	.section	.text.http_server_start,"ax",@progbits
	.align	1
	.globl	http_server_start
	.type	http_server_start, @function
http_server_start:
.LFB30:
	.loc 1 103 36 is_stmt 1
	.cfi_startproc
.LVL27:
	.loc 1 105 5
	.loc 1 106 5
	.loc 1 107 5
	.loc 1 103 36 is_stmt 0
	addi	sp,sp,-32
	.cfi_def_cfa_offset 32
	.loc 1 107 12
	li	a2,0
	li	a1,0
	li	a0,16
.LVL28:
	.loc 1 103 36
	sw	ra,28(sp)
	sw	s0,24(sp)
	sw	s1,20(sp)
	sw	s2,16(sp)
	.cfi_offset 1, -4
	.cfi_offset 8, -8
	.cfi_offset 9, -12
	.cfi_offset 18, -16
	.loc 1 107 12
	call	netconn_new_with_proto_and_callback
.LVL29:
	.loc 1 108 5
	li	a2,80
	li	a1,0
	.loc 1 107 12
	mv	s0,a0
.LVL30:
	.loc 1 108 5 is_stmt 1
	call	netconn_bind
.LVL31:
	.loc 1 109 5
	li	a1,255
	mv	a0,s0
	call	netconn_listen_with_backlog
.LVL32:
	.loc 1 117 29 is_stmt 0
	lui	s1,%hi(.LANCHOR2)
	.loc 1 117 15
	li	s2,1
.L25:
	.loc 1 110 5 is_stmt 1
	.loc 1 112 9
	.loc 1 112 15 is_stmt 0
	addi	a1,sp,12
	mv	a0,s0
	call	netconn_accept
.LVL33:
	.loc 1 113 9 is_stmt 1
	.loc 1 113 12 is_stmt 0
	bne	a0,zero,.L24
	.loc 1 115 13 is_stmt 1
	lw	a0,12(sp)
.LVL34:
	call	web_http_server
.LVL35:
	.loc 1 116 13
	lw	a0,12(sp)
	call	netconn_delete
.LVL36:
	.loc 1 117 13
	.loc 1 117 15 is_stmt 0
	lbu	a5,%lo(.LANCHOR2)(s1)
	bne	a5,s2,.L25
	.loc 1 118 17 is_stmt 1
	li	a0,0
	call	vTaskDelete
.LVL37:
	j	.L25
.LVL38:
.L24:
	.loc 1 123 13
	mv	a0,s0
.LVL39:
	call	netconn_close
.LVL40:
	.loc 1 124 13
	mv	a0,s0
	call	netconn_delete
.LVL41:
	.loc 1 125 13
	.loc 1 129 1 is_stmt 0
	lw	ra,28(sp)
	.cfi_restore 1
	lw	s0,24(sp)
	.cfi_restore 8
.LVL42:
	lw	s1,20(sp)
	.cfi_restore 9
	lw	s2,16(sp)
	.cfi_restore 18
	addi	sp,sp,32
	.cfi_def_cfa_offset 0
	jr	ra
	.cfi_endproc
.LFE30:
	.size	http_server_start, .-http_server_start
	.section	.rodata.http_html_hdr,"a"
	.align	2
	.set	.LANCHOR0,. + 0
	.type	http_html_hdr, @object
	.size	http_html_hdr, 45
http_html_hdr:
	.string	"HTTP/1.1 200 OK\r\nContent-type: text/html\r\n\r\n"
	.section	.rodata.http_index_hml,"a"
	.align	2
	.set	.LANCHOR1,. + 0
	.type	http_index_hml, @object
	.size	http_index_hml, 367
http_index_hml:
	.ascii	"<!DOCTYPE html><html>\n<head>\n  <meta name=\"viewport\" con"
	.ascii	"tent=\"width=device-width, initial-scale=1\">\n  <style t"
	.string	"ype=\"text/css\">\n    html, body, iframe { margin: 0; padding: 0; height: 100%; }\n    iframe { display: block; width: 100%; border: none; }\n  </style>\n<title>HELLO Ai-WB2 module</title>\n</head>\n<body>\n<h1>Hello World, from Ai-WB2 module</h1>\n</body>\n</html>\n"
	.section	.sbss.IS_HTTP_DONE,"aw",@nobits
	.set	.LANCHOR2,. + 0
	.type	IS_HTTP_DONE, @object
	.size	IS_HTTP_DONE, 1
IS_HTTP_DONE:
	.zero	1
	.text
.Letext0:
	.file 2 "/home/anh/Desktop/wb2/Ai-Thinker-WB2/toolchain/riscv/Linux/lib/gcc/riscv64-unknown-elf/10.2.0/include/stdint-gcc.h"
	.file 3 "/home/anh/Desktop/wb2/Ai-Thinker-WB2/components/network/lwip/src/include/lwip/arch.h"
	.file 4 "/home/anh/Desktop/wb2/Ai-Thinker-WB2/components/network/lwip/src/include/lwip/err.h"
	.file 5 "/home/anh/Desktop/wb2/Ai-Thinker-WB2/components/platform/soc/bl602/freertos_riscv_ram/config/queue.h"
	.file 6 "/home/anh/Desktop/wb2/Ai-Thinker-WB2/components/network/lwip/lwip-port/arch/sys_arch.h"
	.file 7 "/home/anh/Desktop/wb2/Ai-Thinker-WB2/components/network/lwip/src/include/lwip/ip4_addr.h"
	.file 8 "/home/anh/Desktop/wb2/Ai-Thinker-WB2/components/network/lwip/src/include/lwip/ip_addr.h"
	.file 9 "/home/anh/Desktop/wb2/Ai-Thinker-WB2/components/network/lwip/src/include/lwip/pbuf.h"
	.file 10 "/home/anh/Desktop/wb2/Ai-Thinker-WB2/components/network/lwip/src/include/lwip/memp.h"
	.file 11 "/home/anh/Desktop/wb2/Ai-Thinker-WB2/components/network/lwip/src/include/lwip/netbuf.h"
	.file 12 "/home/anh/Desktop/wb2/Ai-Thinker-WB2/components/network/lwip/src/include/lwip/netif.h"
	.file 13 "/home/anh/Desktop/wb2/Ai-Thinker-WB2/components/network/lwip/src/include/lwip/api.h"
	.file 14 "/home/anh/Desktop/wb2/Ai-Thinker-WB2/components/stage/cjson/cJSON.h"
	.file 15 "/home/anh/Desktop/wb2/Ai-Thinker-WB2/components/platform/hosal/bl602_hal/bl_pm.h"
	.file 16 "/home/anh/Desktop/wb2/Ai-Thinker-WB2/components/network/wifi/include/bl60x_fw_api.h"
	.file 17 "/home/anh/Desktop/wb2/Ai-Thinker-WB2/components/platform/soc/bl602/freertos_riscv_ram/config/task.h"
	.file 18 "/home/anh/Desktop/wb2/Ai-Thinker-WB2/toolchain/riscv/Linux/riscv64-unknown-elf/include/stdio.h"
	.file 19 "/home/anh/Desktop/wb2/Ai-Thinker-WB2/applications/get-started/config_wifi/config_wifi/ap.h"
	.file 20 "/home/anh/Desktop/wb2/Ai-Thinker-WB2/applications/get-started/config_wifi/config_wifi/wifi.h"
	.file 21 "/home/anh/Desktop/wb2/Ai-Thinker-WB2/toolchain/riscv/Linux/riscv64-unknown-elf/include/string.h"