	.file	"main.c"
	.option nopic
	.attribute arch, "rv32i2p0_m2p0_f2p0_c2p0"
	.attribute unaligned_access, 0
	.attribute stack_align, 16
	.text
.Ltext0:
	.cfi_sections	.debug_frame
	.section	.rodata.main.str1.4,"aMS",@progbits,1
	.align	2
.LC0:
	.string	"tcp"
	.align	2
.LC1:
	.string	"axk_mqtt"
	.align	2
.LC2:
	.string	"tcp_transport"
	.align	2
.LC3:
	.string	"[OS] Starting TCP/IP Stack..."
	.align	2
.LC4:
	.string	"[OS] button_manual_task ..."
	.align	2
.LC5:
	.string	"button_manual_task"
	.align	2
.LC6:
	.string	"wifi execute"
	.section	.text.startup.main,"ax",@progbits
	.align	1
	.globl	main
	.type	main, @function
main:
.LFB29:
	.file 1 "/home/anh/Desktop/wb2/Ai-Thinker-WB2/applications/get-started/config_wifi/config_wifi/main.c"
	.loc 1 10 1
	.cfi_startproc
	.loc 1 11 5
	lui	a1,%hi(.LC0)
	.loc 1 10 1 is_stmt 0
	addi	sp,sp,-16
	.cfi_def_cfa_offset 16
	.loc 1 11 5
	addi	a1,a1,%lo(.LC0)
	li	a0,3
	.loc 1 10 1
	sw	ra,12(sp)
	sw	s0,8(sp)
	.cfi_offset 1, -4
	.cfi_offset 8, -8
	.loc 1 11 5
	call	blog_set_level_log_component
.LVL0:
	.loc 1 12 5 is_stmt 1
	lui	a1,%hi(.LC1)
	addi	a1,a1,%lo(.LC1)
	li	a0,3
	call	blog_set_level_log_component
.LVL1:
	.loc 1 13 5
	lui	a1,%hi(.LC2)
	addi	a1,a1,%lo(.LC2)
	li	a0,3
	call	blog_set_level_log_component
.LVL2:
	.loc 1 14 5
	lui	a0,%hi(.LC3)
	addi	a0,a0,%lo(.LC3)
	call	puts
.LVL3:
	.loc 1 15 5
	li	a1,0
	li	a0,0
	call	tcpip_init
.LVL4:
	.loc 1 17 5
	lui	a0,%hi(.LC4)
	addi	a0,a0,%lo(.LC4)
	call	puts
.LVL5:
	.loc 1 19 5
	li	s0,4096
	lui	a1,%hi(.LC5)
	lui	a0,%hi(button_manual_task)
	addi	a2,s0,-2048
	li	a5,0
	li	a4,15
	li	a3,0
	addi	a1,a1,%lo(.LC5)
	addi	a0,a0,%lo(button_manual_task)
	call	xTaskCreate
.LVL6:
	.loc 1 20 5
	addi	a2,s0,-1024
	.loc 1 21 1 is_stmt 0
	lw	s0,8(sp)
	.cfi_restore 8
	lw	ra,12(sp)
	.cfi_restore 1
	.loc 1 20 5
	lui	a1,%hi(.LC6)
	lui	a0,%hi(wifi_execute)
	.loc 1 21 1
	.loc 1 20 5
	li	a5,0
	li	a4,15
	li	a3,0
	addi	a1,a1,%lo(.LC6)
	addi	a0,a0,%lo(wifi_execute)
	.loc 1 21 1
	addi	sp,sp,16
	.cfi_def_cfa_offset 0
	.loc 1 20 5
	tail	xTaskCreate
.LVL7:
	.cfi_endproc
.LFE29:
	.size	main, .-main
	.text
.Letext0:
	.file 2 "/home/anh/Desktop/wb2/Ai-Thinker-WB2/components/stage/blog/blog.h"
	.file 3 "/home/anh/Desktop/wb2/Ai-Thinker-WB2/toolchain/riscv/Linux/riscv64-unknown-elf/include/stdio.h"
	.file 4 "/home/anh/Desktop/wb2/Ai-Thinker-WB2/components/network/lwip/src/include/lwip/tcpip.h"
	.file 5 "/home/anh/Desktop/wb2/Ai-Thinker-WB2/components/platform/soc/bl602/freertos_riscv_ram/config/task.h"
	.file 6 "/home/anh/Desktop/wb2/Ai-Thinker-WB2/components/stage/blog/blog_type.h"