	.file	"wifi.c"
	.option nopic
	.attribute arch, "rv32i2p0_m2p0_f2p0_c2p0"
	.attribute unaligned_access, 0
	.attribute stack_align, 16
	.text
.Ltext0:
	.cfi_sections	.debug_frame
	.section	.rodata.event_cb_wifi_event.str1.4,"aMS",@progbits,1
	.align	2
.LC0:
	.string	"UNKNOWN"
	.align	2
.LC1:
	.string	"[APP] [EVT] event->code %d\r\n"
	.align	2
.LC2:
	.string	"[SYS] Memory left is %d Bytes\r\n"
	.align	2
.LC3:
	.string	"[APP] [EVT] AP INIT DONE %lld\r\n"
	.align	2
.LC4:
	.string	"\r\n<<<<<<<<<<<<<<<<<<<<<<<< START SOFT AP OK <<<<<<<<<<<<<<<<<<<<\r\n"
	.align	2
.LC5:
	.string	"[APP] [EVT] AP STOP DONE %lld\r\n"
	.align	2
.LC6:
	.string	"\r\n<<<<<<<<<<<<<<<<<<<<<<<< STOP SOFT AP OK <<<<<<<<<<<<<<<<<<<<<\r\n"
	.align	2
.LC7:
	.string	"\r\n<<<<<<<<<<<<<<<<<<<<<<<< CONNECT AP <<<<<<<<<<<<<<<<<<<<\r\n"
	.align	2
.LC8:
	.string	"http server"
	.align	2
.LC9:
	.string	"\r\n<<<<<<<<<<<<<<<<<<<<<<<< DISCONNECT AP <<<<<<<<<<<<<<<<<<<<\r\n"
	.align	2
.LC10:
	.string	"[APP] [EVT] INIT DONE %lld\r\n"
	.align	2
.LC11:
	.string	"[APP] [EVT] MGMR DONE %lld\r\n"
	.align	2
.LC12:
	.string	"[APP] [EVT] SCAN Done %lld\r\n"
	.align	2
.LC13:
	.string	"wifi sta disconnected\n"
	.align	2
.LC14:
	.string	"[APP] [EVT] disconnect %lld\r\n"
	.align	2
.LC15:
	.string	"[APP] [EVT] Connecting %lld\r\n"
	.align	2
.LC16:
	.string	"[APP] [EVT] Reconnect %lld\r\n"
	.align	2
.LC17:
	.string	"wifi sta connected\n"
	.align	2
.LC18:
	.string	"[APP] [EVT] connected %lld\r\n"
	.align	2
.LC19:
	.string	"WIFI STA GOT IP\n"
	.align	2
.LC20:
	.string	"[APP] [EVT] GOT IP %lld\r\n"
	.align	2
.LC21:
	.string	"[APP] [EVT] [PROV] [BSSID] %lld: %s\r\n"
	.align	2
.LC22:
	.string	"connecting to %s:%s...\r\n"
	.align	2
.LC23:
	.string	"[APP] [EVT] [PROV] [DISCONNECT] %lld\r\n"
	.align	2
.LC24:
	.string	"[APP] [EVT] Unknown code %u, %lld\r\n"
	.section	.text.event_cb_wifi_event,"ax",@progbits
	.align	1
	.globl	event_cb_wifi_event
	.type	event_cb_wifi_event, @function
event_cb_wifi_event:
.LFB30:
	.file 1 "/home/anh/Desktop/wb2/Ai-Thinker-WB2/applications/get-started/config_wifi/config_wifi/wifi.c"
	.loc 1 41 1
	.cfi_startproc
.LVL0:
	.loc 1 42 5
	.loc 1 43 5
	.loc 1 45 5
	.loc 1 41 1 is_stmt 0
	addi	sp,sp,-16
	.cfi_def_cfa_offset 16
	sw	ra,12(sp)
	sw	s0,8(sp)
	sw	s1,4(sp)
	.cfi_offset 1, -4
	.cfi_offset 8, -8
	.cfi_offset 9, -12
	.loc 1 45 5
	lhu	a1,6(a0)
.LVL1:
	.loc 1 41 1
	mv	s0,a0
	.loc 1 45 5
	lui	a0,%hi(.LC1)
.LVL2:
	addi	a0,a0,%lo(.LC1)
	call	printf
.LVL3:
	.loc 1 47 5 is_stmt 1
	call	xPortGetFreeHeapSize
.LVL4:
	mv	a1,a0
	lui	a0,%hi(.LC2)
	addi	a0,a0,%lo(.LC2)
	call	printf
.LVL5:
	.loc 1 49 5
	.loc 1 49 18 is_stmt 0
	lhu	s1,6(s0)
	li	a4,21
	addi	a5,s1,-1
	slli	a5,a5,16
	srli	a5,a5,16
	bgtu	a5,a4,.L2
	lui	a4,%hi(.L4)
	slli	a5,a5,2
	addi	a4,a4,%lo(.L4)
	add	a5,a5,a4
	lw	a5,0(a5)
	jr	a5
	.section	.rodata.event_cb_wifi_event,"a",@progbits
	.align	2
	.align	2
.L4:
	.word	.L20
	.word	.L19
	.word	.L18
	.word	.L17
	.word	.L16
	.word	.L15
	.word	.L14
	.word	.L13
	.word	.L12
	.word	.L2
	.word	.L11
	.word	.L10
	.word	.L1
	.word	.L9
	.word	.L1
	.word	.L7
	.word	.L6
	.word	.L2
	.word	.L2
	.word	.L2
	.word	.L5
	.word	.L3
	.section	.text.event_cb_wifi_event
.L11:
	.loc 1 53 9 is_stmt 1
	call	aos_now_ms
.LVL6:
	mv	a2,a0
	lui	a0,%hi(.LC3)
	mv	a3,a1
	addi	a0,a0,%lo(.LC3)
	call	printf
.LVL7:
	.loc 1 54 9
	lui	a0,%hi(.LC4)
	addi	a0,a0,%lo(.LC4)
.L27:
	.loc 1 198 1 is_stmt 0
	lw	s0,8(sp)
	.cfi_remember_state
	.cfi_restore 8
.LVL8:
	lw	ra,12(sp)
	.cfi_restore 1
	lw	s1,4(sp)
	.cfi_restore 9
	addi	sp,sp,16
	.cfi_def_cfa_offset 0
	.loc 1 79 9
	tail	printf
.LVL9:
.L10:
	.cfi_restore_state
	.loc 1 61 9 is_stmt 1
	call	aos_now_ms
.LVL10:
	mv	a2,a0
	lui	a0,%hi(.LC5)
	mv	a3,a1
	addi	a0,a0,%lo(.LC5)
	call	printf
.LVL11:
	.loc 1 62 9
	lui	a0,%hi(.LC6)
	addi	a0,a0,%lo(.LC6)
	call	printf
.LVL12:
	.loc 1 63 9
	li	a0,0
	call	set_is_config
.LVL13:
	.loc 1 64 9
	.loc 1 198 1 is_stmt 0
	lw	s0,8(sp)
	.cfi_remember_state
	.cfi_restore 8
.LVL14:
	lw	ra,12(sp)
	.cfi_restore 1
	lw	s1,4(sp)
	.cfi_restore 9
	.loc 1 64 9
	li	a0,0
	.loc 1 198 1
	addi	sp,sp,16
	.cfi_def_cfa_offset 0
	.loc 1 64 9
	tail	reset_flag
.LVL15:
.L5:
	.cfi_restore_state
	.loc 1 70 9 is_stmt 1
	.loc 1 71 9
	lui	a0,%hi(.LC7)
	addi	a0,a0,%lo(.LC7)
	call	printf
.LVL16:
	.loc 1 72 9
	.loc 1 198 1 is_stmt 0
	lw	s0,8(sp)
	.cfi_remember_state
	.cfi_restore 8
.LVL17:
	lw	ra,12(sp)
	.cfi_restore 1
	lw	s1,4(sp)
	.cfi_restore 9
	.loc 1 72 9
	lui	a1,%hi(.LC8)
	lui	a0,%hi(http_server_start)
	.loc 1 198 1
	.loc 1 72 9
	li	a5,0
	li	a4,15
	li	a3,0
	li	a2,4096
	addi	a1,a1,%lo(.LC8)
	addi	a0,a0,%lo(http_server_start)
	.loc 1 198 1
	addi	sp,sp,16
	.cfi_def_cfa_offset 0
	.loc 1 72 9
	tail	xTaskCreate
.LVL18:
.L3:
	.cfi_restore_state
	.loc 1 78 9 is_stmt 1
	.loc 1 79 9
	lui	a0,%hi(.LC9)
	addi	a0,a0,%lo(.LC9)
	j	.L27
.L20:
	.loc 1 85 9
	call	aos_now_ms
.LVL19:
	mv	a2,a0
	lui	a0,%hi(.LC10)
	mv	a3,a1
	addi	a0,a0,%lo(.LC10)
	call	printf
.LVL20:
	.loc 1 86 9
	.loc 1 198 1 is_stmt 0
	lw	s0,8(sp)
	.cfi_remember_state
	.cfi_restore 8
.LVL21:
	lw	ra,12(sp)
	.cfi_restore 1
	lw	s1,4(sp)
	.cfi_restore 9
	.loc 1 86 9
	lui	a0,%hi(.LANCHOR0)
	.loc 1 198 1
	.loc 1 86 9
	addi	a0,a0,%lo(.LANCHOR0)
	.loc 1 198 1
	addi	sp,sp,16
	.cfi_def_cfa_offset 0
	.loc 1 86 9
	tail	wifi_mgmr_start_background
.LVL22:
.L19:
	.cfi_restore_state
	.loc 1 93 9 is_stmt 1
	call	aos_now_ms
.LVL23:
	mv	a2,a0
	lui	a0,%hi(.LC11)
	mv	a3,a1
	addi	a0,a0,%lo(.LC11)
.L28:
	.loc 1 198 1 is_stmt 0
	lw	s0,8(sp)
	.cfi_remember_state
	.cfi_restore 8
.LVL24:
	lw	ra,12(sp)
	.cfi_restore 1
	lw	s1,4(sp)
	.cfi_restore 9
	addi	sp,sp,16
	.cfi_def_cfa_offset 0
	.loc 1 98 9
	tail	printf
.LVL25:
.L12:
	.cfi_restore_state
	.loc 1 98 9 is_stmt 1
	call	aos_now_ms
.LVL26:
	mv	a2,a0
	lui	a0,%hi(.LC12)
	mv	a3,a1
	addi	a0,a0,%lo(.LC12)
	j	.L28
.L16:
	.loc 1 105 9
	lui	a0,%hi(.LC13)
	addi	a0,a0,%lo(.LC13)
	call	printf
.LVL27:
	.loc 1 106 9
	call	aos_now_ms
.LVL28:
	mv	a2,a0
	lui	a0,%hi(.LC14)
	mv	a3,a1
	addi	a0,a0,%lo(.LC14)
	j	.L28
.L13:
	.loc 1 112 9
	call	aos_now_ms
.LVL29:
	mv	a2,a0
	lui	a0,%hi(.LC15)
	mv	a3,a1
	addi	a0,a0,%lo(.LC15)
	j	.L28
.L18:
	.loc 1 118 9
	call	aos_now_ms
.LVL30:
	mv	a2,a0
	lui	a0,%hi(.LC16)
	mv	a3,a1
	addi	a0,a0,%lo(.LC16)
	j	.L28
.L17:
	.loc 1 124 9
	lui	a0,%hi(.LC17)
	addi	a0,a0,%lo(.LC17)
	call	printf
.LVL31:
	.loc 1 125 9
.L15:
	.loc 1 131 9
	call	aos_now_ms
.LVL32:
	mv	a2,a0
	lui	a0,%hi(.LC18)
	mv	a3,a1
	addi	a0,a0,%lo(.LC18)
	j	.L28
.L14:
	.loc 1 137 9
	lui	a0,%hi(.LC19)
	addi	a0,a0,%lo(.LC19)
	call	printf
.LVL33:
	.loc 1 138 9
	call	aos_now_ms
.LVL34:
	mv	a2,a0
	lui	a0,%hi(.LC20)
	mv	a3,a1
	addi	a0,a0,%lo(.LC20)
	call	printf
.LVL35:
	.loc 1 142 9
	.loc 1 198 1 is_stmt 0
	lw	s0,8(sp)
	.cfi_remember_state
	.cfi_restore 8
.LVL36:
	lw	ra,12(sp)
	.cfi_restore 1
	lw	s1,4(sp)
	.cfi_restore 9
	addi	sp,sp,16
	.cfi_def_cfa_offset 0
	.loc 1 142 9
	tail	mqtt_start
.LVL37:
.L9:
	.cfi_restore_state
	.loc 1 161 9 is_stmt 1
	call	aos_now_ms
.LVL38:
	.loc 1 163 21 is_stmt 0
	lw	a4,8(s0)
	.loc 1 161 9
	mv	a2,a0
	mv	a3,a1
	bne	a4,zero,.L21
	lui	a4,%hi(.LC0)
	addi	a4,a4,%lo(.LC0)
.L21:
	.loc 1 161 9 discriminator 4
	lui	a0,%hi(.LC21)
	addi	a0,a0,%lo(.LC21)
	call	printf
.LVL39:
	.loc 1 164 9 is_stmt 1 discriminator 4
	.loc 1 164 18 is_stmt 0 discriminator 4
	lw	a0,8(s0)
	.loc 1 164 12 discriminator 4
	beq	a0,zero,.L1
	.loc 1 166 13 is_stmt 1
	.loc 1 198 1 is_stmt 0
	lw	s0,8(sp)
	.cfi_remember_state
	.cfi_restore 8
.LVL40:
	lw	ra,12(sp)
	.cfi_restore 1
	lw	s1,4(sp)
	.cfi_restore 9
	addi	sp,sp,16
	.cfi_def_cfa_offset 0
	.loc 1 166 13
	tail	vPortFree
.LVL41:
.L7:
	.cfi_restore_state
	.loc 1 183 9 is_stmt 1
	.loc 1 198 1 is_stmt 0
	lw	s0,8(sp)
	.cfi_remember_state
	.cfi_restore 8
.LVL42:
	lw	ra,12(sp)
	.cfi_restore 1
	lw	s1,4(sp)
	.cfi_restore 9
	.loc 1 183 9
	lui	a0,%hi(.LC22)
	.loc 1 198 1
	.loc 1 183 9
	li	a2,0
	li	a1,0
	addi	a0,a0,%lo(.LC22)
	.loc 1 198 1
	addi	sp,sp,16
	.cfi_def_cfa_offset 0
	.loc 1 183 9
	tail	printf
.LVL43:
.L6:
	.cfi_restore_state
	.loc 1 189 9 is_stmt 1
	call	aos_now_ms
.LVL44:
	mv	a2,a0
	lui	a0,%hi(.LC23)
	mv	a3,a1
	addi	a0,a0,%lo(.LC23)
	j	.L28
.L2:
	.loc 1 194 9
	call	aos_now_ms
.LVL45:
	.loc 1 198 1 is_stmt 0
	lw	s0,8(sp)
	.cfi_remember_state
	.cfi_restore 8
.LVL46:
	lw	ra,12(sp)
	.cfi_restore 1
	.loc 1 194 9
	mv	a3,a1
	mv	a1,s1
	.loc 1 198 1
	lw	s1,4(sp)
	.cfi_restore 9
	.loc 1 194 9
	mv	a2,a0
	lui	a0,%hi(.LC24)
	.loc 1 198 1
	.loc 1 194 9
	addi	a0,a0,%lo(.LC24)
	.loc 1 198 1
	addi	sp,sp,16
	.cfi_def_cfa_offset 0
	.loc 1 194 9
	tail	printf
.LVL47:
.L1:
	.cfi_restore_state
	.loc 1 198 1
	lw	ra,12(sp)
	.cfi_restore 1
	lw	s0,8(sp)
	.cfi_restore 8
.LVL48:
	lw	s1,4(sp)
	.cfi_restore 9
	addi	sp,sp,16
	.cfi_def_cfa_offset 0
	jr	ra
	.cfi_endproc
.LFE30:
	.size	event_cb_wifi_event, .-event_cb_wifi_event
	.section	.text.wifi_sta_connect,"ax",@progbits
	.align	1
	.globl	wifi_sta_connect
	.type	wifi_sta_connect, @function
wifi_sta_connect:
.LFB29:
	.loc 1 17 49 is_stmt 1
	.cfi_startproc
.LVL49:
	.loc 1 32 5
	.loc 1 33 5
	.loc 1 17 49 is_stmt 0
	addi	sp,sp,-32
	.cfi_def_cfa_offset 32
	sw	ra,28(sp)
	sw	s0,24(sp)
	.cfi_offset 1, -4
	.cfi_offset 8, -8
	.loc 1 17 49
	sw	a1,12(sp)
	mv	s0,a0
	.loc 1 33 22
	call	wifi_mgmr_sta_enable
.LVL50:
	.loc 1 34 5 is_stmt 1
	lw	a2,12(sp)
	mv	a1,s0
	li	a6,0
	li	a5,0
	li	a4,0
	li	a3,0
	call	wifi_mgmr_sta_connect
.LVL51:
	.loc 1 35 5
	.loc 1 36 1 is_stmt 0
	lw	ra,28(sp)
	.cfi_restore 1
	lw	s0,24(sp)
	.cfi_restore 8
.LVL52:
	li	a0,0
	addi	sp,sp,32
	.cfi_def_cfa_offset 0
.LVL53:
	jr	ra
	.cfi_endproc
.LFE29:
	.size	wifi_sta_connect, .-wifi_sta_connect
	.section	.rodata.wifi_execute.str1.4,"aMS",@progbits,1
	.align	2
.LC25:
	.string	"Wi-Fi init successful\r\n"
	.section	.text.wifi_execute,"ax",@progbits
	.align	1
	.globl	wifi_execute
	.type	wifi_execute, @function
wifi_execute:
.LFB31:
	.loc 1 209 1 is_stmt 1
	.cfi_startproc
.LVL54:
	.loc 1 210 5
	lui	a1,%hi(event_cb_wifi_event)
	.loc 1 209 1 is_stmt 0
	addi	sp,sp,-16
	.cfi_def_cfa_offset 16
	.loc 1 210 5
	li	a2,0
	addi	a1,a1,%lo(event_cb_wifi_event)
	li	a0,2
.LVL55:
	.loc 1 209 1
	sw	ra,12(sp)
	.cfi_offset 1, -4
	.loc 1 210 5
	call	aos_register_event_filter
.LVL56:
	.loc 1 219 5 is_stmt 1
	lui	a0,%hi(.LC25)
	addi	a0,a0,%lo(.LC25)
	call	printf
.LVL57:
	.loc 1 220 5
	call	hal_wifi_start_firmware_task
.LVL58:
	.loc 1 222 5
	li	a2,0
	li	a1,1
	li	a0,2
	call	aos_post_event
.LVL59:
	.loc 1 224 5
	.loc 1 225 1 is_stmt 0
	lw	ra,12(sp)
	.cfi_restore 1
	.loc 1 224 5
	li	a0,0
	.loc 1 225 1
	addi	sp,sp,16
	.cfi_def_cfa_offset 0
	.loc 1 224 5
	tail	vTaskDelete
.LVL60:
	.cfi_endproc
.LFE31:
	.size	wifi_execute, .-wifi_execute
	.section	.sdata.conf,"aw"
	.align	2
	.set	.LANCHOR0,. + 0
	.type	conf, @object
	.size	conf, 8
conf:
	.string	"CN"
	.zero	5
	.text
.Letext0:
	.file 2 "/home/anh/Desktop/wb2/Ai-Thinker-WB2/toolchain/riscv/Linux/lib/gcc/riscv64-unknown-elf/10.2.0/include/stdint-gcc.h"
	.file 3 "/home/anh/Desktop/wb2/Ai-Thinker-WB2/components/stage/yloop/include/aos/yloop.h"
	.file 4 "/home/anh/Desktop/wb2/Ai-Thinker-WB2/components/network/lwip/src/include/lwip/netif.h"
	.file 5 "/home/anh/Desktop/wb2/Ai-Thinker-WB2/components/platform/hosal/bl602_hal/bl_pm.h"
	.file 6 "/home/anh/Desktop/wb2/Ai-Thinker-WB2/components/network/wifi/include/bl60x_fw_api.h"
	.file 7 "/home/anh/Desktop/wb2/Ai-Thinker-WB2/components/network/wifi_manager/bl60x_wifi_driver/include/wifi_mgmr_ext.h"
	.file 8 "/home/anh/Desktop/wb2/Ai-Thinker-WB2/toolchain/riscv/Linux/riscv64-unknown-elf/include/stdio.h"
	.file 9 "/home/anh/Desktop/wb2/Ai-Thinker-WB2/components/platform/hosal/bl602_hal/hal_wifi.h"
	.file 10 "/home/anh/Desktop/wb2/Ai-Thinker-WB2/components/platform/soc/bl602/freertos_riscv_ram/config/task.h"
	.file 11 "/home/anh/Desktop/wb2/Ai-Thinker-WB2/components/platform/soc/bl602/freertos_riscv_ram/config/portable.h"
	.file 12 "/home/anh/Desktop/wb2/Ai-Thinker-WB2/components/stage/yloop/include/aos/kernel.h"
	.file 13 "/home/anh/Desktop/wb2/Ai-Thinker-WB2/applications/get-started/config_wifi/config_wifi/button.h"
	.file 14 "/home/anh/Desktop/wb2/Ai-Thinker-WB2/applications/get-started/config_wifi/config_wifi/mqtt.h"
	.file 15 "/home/anh/Desktop/wb2/Ai-Thinker-WB2/components/network/lwip/src/include/lwip/memp.h"