	.file	"aes.c"
	.option nopic
	.attribute arch, "rv32i2p0_m2p0_f2p0_c2p0"
	.attribute unaligned_access, 0
	.attribute stack_align, 16
	.text
.Ltext0:
	.cfi_sections	.debug_frame
	.section	.text.mbedtls_aes_init,"ax",@progbits
	.align	1
	.globl	mbedtls_aes_init
	.type	mbedtls_aes_init, @function
mbedtls_aes_init:
.LFB5:
	.file 1 "/home/anh/Desktop/wb2/Ai-Thinker-WB2/components/security/mbedtls_lts/mbedtls/library/aes.c"
	.loc 1 491 1
	.cfi_startproc
.LVL0:
	.loc 1 492 5
	.loc 1 492 10
	.loc 1 492 17
	.loc 1 494 5
	li	a2,280
	li	a1,0
	tail	memset
.LVL1:
	.cfi_endproc
.LFE5:
	.size	mbedtls_aes_init, .-mbedtls_aes_init
	.section	.text.mbedtls_aes_free,"ax",@progbits
	.align	1
	.globl	mbedtls_aes_free
	.type	mbedtls_aes_free, @function
mbedtls_aes_free:
.LFB6:
	.loc 1 498 1
	.cfi_startproc
.LVL2:
	.loc 1 499 5
	.loc 1 499 7 is_stmt 0
	beq	a0,zero,.L2
	.loc 1 502 5 is_stmt 1
	li	a1,280
	tail	mbedtls_platform_zeroize
.LVL3:
.L2:
	.loc 1 503 1 is_stmt 0
	ret
	.cfi_endproc
.LFE6:
	.size	mbedtls_aes_free, .-mbedtls_aes_free
	.section	.text.mbedtls_aes_setkey_enc,"ax",@progbits
	.align	1
	.globl	mbedtls_aes_setkey_enc
	.type	mbedtls_aes_setkey_enc, @function
mbedtls_aes_setkey_enc:
.LFB7:
	.loc 1 530 1 is_stmt 1
	.cfi_startproc
.LVL4:
	.loc 1 531 5
	.loc 1 532 5
	.loc 1 534 5
	.loc 1 534 10
	.loc 1 534 17
	.loc 1 535 5
	.loc 1 535 10
	.loc 1 535 17
	.loc 1 537 5
	li	a5,192
	.loc 1 530 1 is_stmt 0
	mv	a4,a0
	.loc 1 537 5
	beq	a2,a5,.L5
	li	a5,256
	beq	a2,a5,.L6
	li	a5,128
	li	a0,-32
.LVL5:
	bne	a2,a5,.L4
	.loc 1 539 19 is_stmt 1
	.loc 1 539 27 is_stmt 0
	li	a5,10
.L22:
	.loc 1 568 31
	srli	a2,a2,5
.LVL6:
	.loc 1 541 27
	sw	a5,0(a4)
	.loc 1 541 33 is_stmt 1
	.loc 1 561 5
	slli	a2,a2,2
	.loc 1 561 18 is_stmt 0
	addi	a5,a4,8
.LVL7:
	.loc 1 561 13
	sw	a5,4(a4)
	.loc 1 568 5 is_stmt 1
.LVL8:
	mv	a0,a5
	add	a2,a1,a2
.LVL9:
.L9:
	.loc 1 568 17 discriminator 1
	.loc 1 568 5 is_stmt 0 discriminator 1
	bne	a2,a1,.L10
	.loc 1 573 5 is_stmt 1
	.loc 1 573 16 is_stmt 0
	lw	a3,0(a4)
	.loc 1 573 5
	li	a2,12
	beq	a3,a2,.L11
	li	a2,14
	beq	a3,a2,.L12
	li	a2,10
	li	a0,0
	bne	a3,a2,.L4
	lui	a1,%hi(.LANCHOR0)
	.loc 1 580 33
	lui	a2,%hi(.LANCHOR1)
	addi	a1,a1,%lo(.LANCHOR0)
	addi	a0,a4,168
	addi	a2,a2,%lo(.LANCHOR1)
.LVL10:
.L13:
	.loc 1 579 17 is_stmt 1 discriminator 3
	.loc 1 580 55 is_stmt 0 discriminator 3
	lw	a3,12(a5)
	.loc 1 582 90 discriminator 3
	lw	a7,0(a1)
	lw	a6,0(a5)
	.loc 1 580 61 discriminator 3
	srli	a4,a3,8
	.loc 1 580 37 discriminator 3
	andi	a4,a4,255
	.loc 1 580 33 discriminator 3
	add	a4,a2,a4
	.loc 1 580 19 discriminator 3
	lbu	a4,0(a4)
	.loc 1 582 90 discriminator 3
	xor	a6,a6,a7
	.loc 1 577 13 discriminator 3
	addi	a1,a1,4
	.loc 1 582 90 discriminator 3
	xor	a4,a4,a6
	.loc 1 582 61 discriminator 3
	srli	a6,a3,24
	.loc 1 582 33 discriminator 3
	add	a6,a2,a6
	.loc 1 582 19 discriminator 3
	lbu	a6,0(a6)
	.loc 1 582 82 discriminator 3
	slli	a6,a6,16
	.loc 1 582 90 discriminator 3
	xor	a4,a4,a6
	.loc 1 583 37 discriminator 3
	andi	a6,a3,255
	.loc 1 583 33 discriminator 3
	add	a6,a2,a6
	.loc 1 583 19 discriminator 3
	lbu	a6,0(a6)
	.loc 1 583 72 discriminator 3
	slli	a6,a6,24
	.loc 1 582 90 discriminator 3
	xor	a4,a4,a6
	.loc 1 581 61 discriminator 3
	srli	a6,a3,16
	.loc 1 581 37 discriminator 3
	andi	a6,a6,255
	.loc 1 581 33 discriminator 3
	add	a6,a2,a6
	.loc 1 581 19 discriminator 3
	lbu	a6,0(a6)
	.loc 1 581 82 discriminator 3
	slli	a6,a6,8
	.loc 1 582 90 discriminator 3
	xor	a4,a4,a6
	.loc 1 585 31 discriminator 3
	lw	a6,4(a5)
	.loc 1 579 23 discriminator 3
	sw	a4,16(a5)
	.loc 1 585 17 is_stmt 1 discriminator 3
	.loc 1 585 31 is_stmt 0 discriminator 3
	xor	a4,a4,a6
	.loc 1 586 31 discriminator 3
	lw	a6,8(a5)
	.loc 1 585 23 discriminator 3
	sw	a4,20(a5)
	.loc 1 586 17 is_stmt 1 discriminator 3
	.loc 1 577 41 is_stmt 0 discriminator 3
	addi	a5,a5,16
.LVL11:
	.loc 1 586 31 discriminator 3
	xor	a4,a4,a6
	.loc 1 586 23 discriminator 3
	sw	a4,8(a5)
	.loc 1 587 17 is_stmt 1 discriminator 3
	.loc 1 587 31 is_stmt 0 discriminator 3
	xor	a4,a3,a4
	.loc 1 587 23 discriminator 3
	sw	a4,12(a5)
	.loc 1 577 33 is_stmt 1 discriminator 3
.LVL12:
	.loc 1 577 25 discriminator 3
	.loc 1 577 13 is_stmt 0 discriminator 3
	bne	a5,a0,.L13
.LVL13:
.L15:
	.loc 1 636 11
	li	a0,0
	ret
.LVL14:
.L5:
	.loc 1 540 19 is_stmt 1
	.loc 1 540 27 is_stmt 0
	li	a5,12
	j	.L22
.L6:
	.loc 1 541 19 is_stmt 1
	.loc 1 541 27 is_stmt 0
	li	a5,14
	j	.L22
.LVL15:
.L10:
	.loc 1 570 9 is_stmt 1 discriminator 3
	.loc 1 570 59 is_stmt 0 discriminator 3
	lbu	a3,1(a1)
	.loc 1 570 105 discriminator 3
	lbu	a6,2(a1)
	addi	a1,a1,4
	.loc 1 570 94 discriminator 3
	slli	a3,a3,8
	.loc 1 570 140 discriminator 3
	slli	a6,a6,16
	.loc 1 570 101 discriminator 3
	or	a3,a3,a6
	.loc 1 570 21 discriminator 3
	lbu	a6,-4(a1)
	.loc 1 570 101 discriminator 3
	or	a3,a3,a6
	.loc 1 570 152 discriminator 3
	lbu	a6,-1(a1)
	.loc 1 570 187 discriminator 3
	slli	a6,a6,24
	.loc 1 570 148 discriminator 3
	or	a3,a3,a6
	.loc 1 570 15 discriminator 3
	sw	a3,0(a0)
	.loc 1 568 39 is_stmt 1 discriminator 3
	addi	a0,a0,4
	j	.L9
.L11:
	lui	a1,%hi(.LANCHOR0)
	.loc 1 596 33 is_stmt 0
	lui	a2,%hi(.LANCHOR1)
	addi	a1,a1,%lo(.LANCHOR0)
	addi	a0,a4,200
	addi	a2,a2,%lo(.LANCHOR1)
.LVL16:
.L14:
	.loc 1 595 17 is_stmt 1 discriminator 3
	.loc 1 596 55 is_stmt 0 discriminator 3
	lw	a3,20(a5)
	.loc 1 598 90 discriminator 3
	lw	a7,0(a1)
	lw	a6,0(a5)
	.loc 1 596 61 discriminator 3
	srli	a4,a3,8
	.loc 1 596 37 discriminator 3
	andi	a4,a4,255
	.loc 1 596 33 discriminator 3
	add	a4,a2,a4
	.loc 1 596 19 discriminator 3
	lbu	a4,0(a4)
	.loc 1 598 90 discriminator 3
	xor	a6,a6,a7
	.loc 1 593 13 discriminator 3
	addi	a1,a1,4
	.loc 1 598 90 discriminator 3
	xor	a4,a4,a6
	.loc 1 598 61 discriminator 3
	srli	a6,a3,24
	.loc 1 598 33 discriminator 3
	add	a6,a2,a6
	.loc 1 598 19 discriminator 3
	lbu	a6,0(a6)
	.loc 1 598 82 discriminator 3
	slli	a6,a6,16
	.loc 1 598 90 discriminator 3
	xor	a4,a4,a6
	.loc 1 599 37 discriminator 3
	andi	a6,a3,255
	.loc 1 599 33 discriminator 3
	add	a6,a2,a6
	.loc 1 599 19 discriminator 3
	lbu	a6,0(a6)
	.loc 1 599 72 discriminator 3
	slli	a6,a6,24
	.loc 1 598 90 discriminator 3
	xor	a4,a4,a6
	.loc 1 597 61 discriminator 3
	srli	a6,a3,16
	.loc 1 597 37 discriminator 3
	andi	a6,a6,255
	.loc 1 597 33 discriminator 3
	add	a6,a2,a6
	.loc 1 597 19 discriminator 3
	lbu	a6,0(a6)
	.loc 1 597 82 discriminator 3
	slli	a6,a6,8
	.loc 1 598 90 discriminator 3
	xor	a4,a4,a6
	.loc 1 601 31 discriminator 3
	lw	a6,4(a5)
	.loc 1 595 23 discriminator 3
	sw	a4,24(a5)
	.loc 1 601 17 is_stmt 1 discriminator 3
	.loc 1 601 31 is_stmt 0 discriminator 3
	xor	a4,a4,a6
	.loc 1 602 31 discriminator 3
	lw	a6,8(a5)
	.loc 1 601 23 discriminator 3
	sw	a4,28(a5)
	.loc 1 602 17 is_stmt 1 discriminator 3
	.loc 1 602 31 is_stmt 0 discriminator 3
	xor	a4,a4,a6
	.loc 1 603 31 discriminator 3
	lw	a6,12(a5)
	.loc 1 602 23 discriminator 3
	sw	a4,32(a5)
	.loc 1 603 17 is_stmt 1 discriminator 3
	.loc 1 603 31 is_stmt 0 discriminator 3
	xor	a4,a4,a6
	.loc 1 604 32 discriminator 3
	lw	a6,16(a5)
	.loc 1 603 23 discriminator 3
	sw	a4,36(a5)
	.loc 1 604 17 is_stmt 1 discriminator 3
	.loc 1 593 40 is_stmt 0 discriminator 3
	addi	a5,a5,24
.LVL17:
	.loc 1 604 32 discriminator 3
	xor	a4,a4,a6
	.loc 1 604 24 discriminator 3
	sw	a4,16(a5)
	.loc 1 605 17 is_stmt 1 discriminator 3
	.loc 1 605 32 is_stmt 0 discriminator 3
	xor	a4,a3,a4
	.loc 1 605 24 discriminator 3
	sw	a4,20(a5)
	.loc 1 593 32 is_stmt 1 discriminator 3
.LVL18:
	.loc 1 593 25 discriminator 3
	.loc 1 593 13 is_stmt 0 discriminator 3
	bne	a5,a0,.L14
	j	.L15
.LVL19:
.L12:
	lui	a6,%hi(.LANCHOR0)
	.loc 1 614 33
	lui	a2,%hi(.LANCHOR1)
	addi	a6,a6,%lo(.LANCHOR0)
	addi	a0,a4,232
	addi	a2,a2,%lo(.LANCHOR1)
.LVL20:
.L16:
	.loc 1 613 17 is_stmt 1 discriminator 3
	.loc 1 614 55 is_stmt 0 discriminator 3
	lw	a1,28(a5)
	.loc 1 616 90 discriminator 3
	lw	a7,0(a6)
	lw	a3,0(a5)
	.loc 1 614 61 discriminator 3
	srli	a4,a1,8
	.loc 1 614 37 discriminator 3
	andi	a4,a4,255
	.loc 1 614 33 discriminator 3
	add	a4,a2,a4
	.loc 1 614 19 discriminator 3
	lbu	a4,0(a4)
	.loc 1 616 90 discriminator 3
	xor	a3,a3,a7
	.loc 1 626 91 discriminator 3
	lw	a7,16(a5)
	.loc 1 616 90 discriminator 3
	xor	a4,a4,a3
	.loc 1 616 61 discriminator 3
	srli	a3,a1,24
	.loc 1 616 33 discriminator 3
	add	a3,a2,a3
	.loc 1 616 19 discriminator 3
	lbu	a3,0(a3)
	.loc 1 611 13 discriminator 3
	addi	a6,a6,4
	.loc 1 616 82 discriminator 3
	slli	a3,a3,16
	.loc 1 616 90 discriminator 3
	xor	a4,a4,a3
	.loc 1 617 37 discriminator 3
	andi	a3,a1,255
	.loc 1 617 33 discriminator 3
	add	a3,a2,a3
	.loc 1 617 19 discriminator 3
	lbu	a3,0(a3)
	.loc 1 617 72 discriminator 3
	slli	a3,a3,24
	.loc 1 616 90 discriminator 3
	xor	a4,a4,a3
	.loc 1 615 61 discriminator 3
	srli	a3,a1,16
	.loc 1 615 37 discriminator 3
	andi	a3,a3,255
	.loc 1 615 33 discriminator 3
	add	a3,a2,a3
	.loc 1 615 19 discriminator 3
	lbu	a3,0(a3)
	.loc 1 615 82 discriminator 3
	slli	a3,a3,8
	.loc 1 616 90 discriminator 3
	xor	a4,a4,a3
	.loc 1 619 31 discriminator 3
	lw	a3,4(a5)
	.loc 1 613 23 discriminator 3
	sw	a4,32(a5)
	.loc 1 619 17 is_stmt 1 discriminator 3
	.loc 1 619 31 is_stmt 0 discriminator 3
	xor	a4,a4,a3
	.loc 1 620 32 discriminator 3
	lw	a3,8(a5)
	.loc 1 619 23 discriminator 3
	sw	a4,36(a5)
	.loc 1 620 17 is_stmt 1 discriminator 3
	.loc 1 620 32 is_stmt 0 discriminator 3
	xor	a4,a4,a3
	.loc 1 621 32 discriminator 3
	lw	a3,12(a5)
	.loc 1 620 24 discriminator 3
	sw	a4,40(a5)
	.loc 1 621 17 is_stmt 1 discriminator 3
	.loc 1 621 32 is_stmt 0 discriminator 3
	xor	a4,a4,a3
	.loc 1 624 37 discriminator 3
	andi	a3,a4,255
	.loc 1 624 33 discriminator 3
	add	a3,a2,a3
	.loc 1 624 19 discriminator 3
	lbu	a3,0(a3)
	.loc 1 621 24 discriminator 3
	sw	a4,44(a5)
	.loc 1 623 17 is_stmt 1 discriminator 3
	.loc 1 626 91 is_stmt 0 discriminator 3
	xor	a3,a3,a7
	.loc 1 627 62 discriminator 3
	srli	a7,a4,24
	.loc 1 627 33 discriminator 3
	add	a7,a2,a7
	.loc 1 627 19 discriminator 3
	lbu	a7,0(a7)
	.loc 1 627 83 discriminator 3
	slli	a7,a7,24
	.loc 1 626 91 discriminator 3
	xor	a3,a3,a7
	.loc 1 625 62 discriminator 3
	srli	a7,a4,8
	.loc 1 625 37 discriminator 3
	andi	a7,a7,255
	.loc 1 626 62 discriminator 3
	srli	a4,a4,16
	.loc 1 625 33 discriminator 3
	add	a7,a2,a7
	.loc 1 626 37 discriminator 3
	andi	a4,a4,255
	.loc 1 625 19 discriminator 3
	lbu	a7,0(a7)
	.loc 1 626 33 discriminator 3
	add	a4,a2,a4
	.loc 1 626 19 discriminator 3
	lbu	a4,0(a4)
	.loc 1 625 82 discriminator 3
	slli	a7,a7,8
	.loc 1 626 91 discriminator 3
	xor	a3,a3,a7
	.loc 1 626 83 discriminator 3
	slli	a4,a4,16
	.loc 1 626 91 discriminator 3
	xor	a4,a3,a4
	.loc 1 629 32 discriminator 3
	lw	a3,20(a5)
	.loc 1 623 24 discriminator 3
	sw	a4,48(a5)
	.loc 1 629 17 is_stmt 1 discriminator 3
	.loc 1 629 32 is_stmt 0 discriminator 3
	xor	a4,a4,a3
	.loc 1 630 32 discriminator 3
	lw	a3,24(a5)
	.loc 1 629 24 discriminator 3
	sw	a4,52(a5)
	.loc 1 630 17 is_stmt 1 discriminator 3
	.loc 1 611 40 is_stmt 0 discriminator 3
	addi	a5,a5,32
.LVL21:
	.loc 1 630 32 discriminator 3
	xor	a4,a4,a3
	.loc 1 630 24 discriminator 3
	sw	a4,24(a5)
	.loc 1 631 17 is_stmt 1 discriminator 3
	.loc 1 631 32 is_stmt 0 discriminator 3
	xor	a4,a1,a4
	.loc 1 631 24 discriminator 3
	sw	a4,28(a5)
	.loc 1 611 32 is_stmt 1 discriminator 3
.LVL22:
	.loc 1 611 25 discriminator 3
	.loc 1 611 13 is_stmt 0 discriminator 3
	bne	a5,a0,.L16
	j	.L15
.LVL23:
.L4:
	.loc 1 637 1
	ret
	.cfi_endproc
.LFE7:
	.size	mbedtls_aes_setkey_enc, .-mbedtls_aes_setkey_enc
	.section	.text.mbedtls_aes_setkey_dec,"ax",@progbits
	.align	1
	.globl	mbedtls_aes_setkey_dec
	.type	mbedtls_aes_setkey_dec, @function
mbedtls_aes_setkey_dec:
.LFB8:
	.loc 1 646 1 is_stmt 1
	.cfi_startproc
.LVL24:
	.loc 1 647 5
	.loc 1 648 5
	.loc 1 649 5
	.loc 1 650 5
	.loc 1 652 5
	.loc 1 652 10
	.loc 1 652 17
	.loc 1 653 5
	.loc 1 653 10
	.loc 1 653 17
	.loc 1 655 5
	.loc 1 646 1 is_stmt 0
	addi	sp,sp,-336
	.cfi_def_cfa_offset 336
	sw	s0,328(sp)
	.cfi_offset 8, -8
	mv	s0,a0
	.loc 1 655 5
	addi	a0,sp,24
.LVL25:
	.loc 1 646 1
	sw	ra,332(sp)
	sw	s1,324(sp)
	sw	a1,12(sp)
	sw	a2,8(sp)
	sw	s2,320(sp)
	sw	s3,316(sp)
	.cfi_offset 1, -4
	.cfi_offset 9, -12
	.cfi_offset 18, -16
	.cfi_offset 19, -20
	.loc 1 655 5
	call	mbedtls_aes_init
.LVL26:
	.loc 1 665 5 is_stmt 1
	.loc 1 668 17 is_stmt 0
	lw	a2,8(sp)
	lw	a1,12(sp)
	.loc 1 665 18
	addi	a5,s0,8
.LVL27:
	.loc 1 665 13
	sw	a5,4(s0)
	.loc 1 668 5 is_stmt 1
	.loc 1 668 17 is_stmt 0
	addi	a0,sp,24
	call	mbedtls_aes_setkey_enc
.LVL28:
	mv	s1,a0
.LVL29:
	.loc 1 668 7
	bne	a0,zero,.L24
	.loc 1 671 5 is_stmt 1
	.loc 1 671 18 is_stmt 0
	lw	a6,24(sp)
	.loc 1 682 8
	lw	a4,28(sp)
	.loc 1 687 8
	addi	a2,s0,24
	.loc 1 682 17
	slli	t2,a6,4
	.loc 1 671 13
	sw	a6,0(s0)
	.loc 1 682 5 is_stmt 1
	.loc 1 682 8 is_stmt 0
	add	a4,a4,t2
.LVL30:
	.loc 1 684 5 is_stmt 1
	.loc 1 684 13 is_stmt 0
	lw	a5,0(a4)
	.loc 1 693 24
	lui	t4,%hi(.LANCHOR2)
	.loc 1 689 30
	addi	a4,a4,-16
.LVL31:
	.loc 1 684 11
	sw	a5,8(s0)
	.loc 1 685 5 is_stmt 1
.LVL32:
	.loc 1 685 13 is_stmt 0
	lw	a5,20(a4)
	.loc 1 693 28
	lui	a1,%hi(.LANCHOR1)
	.loc 1 696 24
	lui	t5,%hi(.LANCHOR3)
	.loc 1 685 11
	sw	a5,12(s0)
	.loc 1 686 5 is_stmt 1
.LVL33:
	.loc 1 686 13 is_stmt 0
	lw	a5,24(a4)
	.loc 1 694 24
	lui	t6,%hi(.LANCHOR4)
	.loc 1 695 24
	lui	t0,%hi(.LANCHOR5)
	.loc 1 686 11
	sw	a5,16(s0)
	.loc 1 687 5 is_stmt 1
.LVL34:
	.loc 1 687 13 is_stmt 0
	lw	a5,28(a4)
	.loc 1 687 8
	mv	t1,a2
	.loc 1 689 30
	mv	t3,a4
	.loc 1 687 11
	sw	a5,20(s0)
	.loc 1 689 5 is_stmt 1
	.loc 1 689 12 is_stmt 0
	addi	s0,a6,-1
.LVL35:
	mv	a0,s0
	.loc 1 693 24
	addi	t4,t4,%lo(.LANCHOR2)
	.loc 1 693 28
	addi	a1,a1,%lo(.LANCHOR1)
	.loc 1 696 24
	addi	t5,t5,%lo(.LANCHOR3)
	.loc 1 694 24
	addi	t6,t6,%lo(.LANCHOR4)
	.loc 1 695 24
	addi	t0,t0,%lo(.LANCHOR5)
	.loc 1 691 9
	li	ra,16
.LVL36:
.L25:
	.loc 1 689 36 is_stmt 1 discriminator 1
	.loc 1 689 5 is_stmt 0 discriminator 1
	bgt	a0,zero,.L31
	li	a5,0
	ble	a6,zero,.L28
	addi	a5,t2,-16
.L28:
	add	a5,a2,a5
	li	a3,0
	ble	a6,zero,.L30
	li	a3,-16
	mul	a3,s0,a3
.L30:
	add	a4,a4,a3
	.loc 1 700 5 is_stmt 1
.LVL37:
	.loc 1 700 13 is_stmt 0
	lw	a3,0(a4)
	.loc 1 700 11
	sw	a3,0(a5)
	.loc 1 701 5 is_stmt 1
.LVL38:
	.loc 1 701 13 is_stmt 0
	lw	a3,4(a4)
	.loc 1 701 11
	sw	a3,4(a5)
	.loc 1 702 5 is_stmt 1
.LVL39:
	.loc 1 702 13 is_stmt 0
	lw	a3,8(a4)
	.loc 1 702 11
	sw	a3,8(a5)
	.loc 1 703 5 is_stmt 1
.LVL40:
	.loc 1 703 13 is_stmt 0
	lw	a4,12(a4)
.LVL41:
	.loc 1 703 11
	sw	a4,12(a5)
.LVL42:
.L24:
	.loc 1 706 5 is_stmt 1
	addi	a0,sp,24
	call	mbedtls_aes_free
.LVL43:
	.loc 1 708 5
	.loc 1 709 1 is_stmt 0
	lw	ra,332(sp)
	.cfi_remember_state
	.cfi_restore 1
	lw	s0,328(sp)
	.cfi_restore 8
	lw	s2,320(sp)
	.cfi_restore 18
	lw	s3,316(sp)
	.cfi_restore 19
	mv	a0,s1
	lw	s1,324(sp)
	.cfi_restore 9
.LVL44:
	addi	sp,sp,336
	.cfi_def_cfa_offset 0
.LVL45:
	jr	ra
.LVL46:
.L31:
	.cfi_restore_state
	li	a7,0
.LVL47:
.L26:
	.loc 1 693 13 is_stmt 1 discriminator 3
	.loc 1 693 46 is_stmt 0 discriminator 3
	add	a5,t3,a7
.LVL48:
	lw	a5,0(a5)
.LVL49:
	.loc 1 693 19 discriminator 3
	add	s2,t1,a7
	.loc 1 691 9 discriminator 3
	addi	a7,a7,4
.LVL50:
	.loc 1 693 32 discriminator 3
	andi	a3,a5,255
	.loc 1 696 54 discriminator 3
	srli	s3,a5,24
	.loc 1 693 28 discriminator 3
	add	a3,a1,a3
	.loc 1 696 28 discriminator 3
	add	s3,a1,s3
	.loc 1 693 28 discriminator 3
	lbu	a3,0(a3)
	.loc 1 696 28 discriminator 3
	lbu	s3,0(s3)
	.loc 1 693 24 discriminator 3
	slli	a3,a3,2
	.loc 1 696 24 discriminator 3
	slli	s3,s3,2
	.loc 1 693 24 discriminator 3
	add	a3,t4,a3
	.loc 1 696 24 discriminator 3
	add	s3,t5,s3
	.loc 1 695 76 discriminator 3
	lw	s3,0(s3)
	lw	a3,0(a3)
	xor	a3,a3,s3
	.loc 1 694 54 discriminator 3
	srli	s3,a5,8
	.loc 1 694 32 discriminator 3
	andi	s3,s3,255
	.loc 1 695 54 discriminator 3
	srli	a5,a5,16
	.loc 1 694 28 discriminator 3
	add	s3,a1,s3
	.loc 1 695 32 discriminator 3
	andi	a5,a5,255
	.loc 1 694 28 discriminator 3
	lbu	s3,0(s3)
	.loc 1 695 28 discriminator 3
	add	a5,a1,a5
	lbu	a5,0(a5)
	.loc 1 694 24 discriminator 3
	slli	s3,s3,2
	add	s3,t6,s3
	.loc 1 695 24 discriminator 3
	slli	a5,a5,2
	.loc 1 695 76 discriminator 3
	lw	s3,0(s3)
	.loc 1 695 24 discriminator 3
	add	a5,t0,a5
	.loc 1 695 76 discriminator 3
	lw	a5,0(a5)
	xor	a3,a3,s3
	xor	a3,a3,a5
	.loc 1 693 19 discriminator 3
	sw	a3,0(s2)
	.loc 1 691 28 is_stmt 1 discriminator 3
.LVL51:
	.loc 1 691 21 discriminator 3
	.loc 1 691 9 is_stmt 0 discriminator 3
	bne	a7,ra,.L26
	.loc 1 693 16 discriminator 2
	addi	t1,t1,16
.LVL52:
	.loc 1 689 43 is_stmt 1 discriminator 2
	.loc 1 689 44 is_stmt 0 discriminator 2
	addi	a0,a0,-1
.LVL53:
	addi	t3,t3,-16
.LVL54:
	j	.L25
	.cfi_endproc
.LFE8:
	.size	mbedtls_aes_setkey_dec, .-mbedtls_aes_setkey_dec
	.section	.text.mbedtls_internal_aes_encrypt,"ax",@progbits
	.align	1
	.globl	mbedtls_internal_aes_encrypt
	.type	mbedtls_internal_aes_encrypt, @function
mbedtls_internal_aes_encrypt:
.LFB9:
	.loc 1 844 1 is_stmt 1
	.cfi_startproc
.LVL55:
	.loc 1 845 5
	.loc 1 846 5
	.loc 1 844 1 is_stmt 0
	addi	sp,sp,-64
	.cfi_def_cfa_offset 64
	sw	ra,60(sp)
	sw	s0,56(sp)
	sw	s1,52(sp)
	sw	s2,48(sp)
	sw	s3,44(sp)
	sw	s4,40(sp)
	sw	s5,36(sp)
	.cfi_offset 1, -4
	.cfi_offset 8, -8
	.cfi_offset 9, -12
	.cfi_offset 18, -16
	.cfi_offset 19, -20
	.cfi_offset 20, -24
	.cfi_offset 21, -28
	.loc 1 853 136
	lbu	a3,1(a1)
	lbu	a5,0(a1)
	.loc 1 846 15
	lw	a4,4(a0)
.LVL56:
	.loc 1 847 5 is_stmt 1
	.loc 1 853 5
	.loc 1 853 136 is_stmt 0
	slli	a3,a3,8
	or	a3,a3,a5
	lbu	a5,2(a1)
	.loc 1 856 200
	addi	t2,a4,16
	.loc 1 860 36
	lui	t4,%hi(.LANCHOR7)
	.loc 1 853 136
	slli	a5,a5,16
	or	a3,a5,a3
	lbu	a5,3(a1)
	.loc 1 860 184
	lui	t3,%hi(.LANCHOR6)
	.loc 1 860 79
	lui	t1,%hi(.LANCHOR8)
	.loc 1 853 136
	slli	a5,a5,24
	or	a5,a5,a3
	.loc 1 853 12
	sw	a5,0(sp)
	.loc 1 853 183 is_stmt 1
.LVL57:
	.loc 1 853 190 is_stmt 0
	lw	a3,0(a4)
	.loc 1 860 131
	lui	a7,%hi(.LANCHOR9)
	.loc 1 856 200
	mv	t5,t2
	.loc 1 853 190
	xor	a5,a3,a5
	.loc 1 854 136
	lbu	a3,5(a1)
	.loc 1 853 190
	sw	a5,0(sp)
	.loc 1 854 5 is_stmt 1
	.loc 1 854 136 is_stmt 0
	lbu	a5,4(a1)
	slli	a3,a3,8
	.loc 1 860 36
	addi	t4,t4,%lo(.LANCHOR7)
	.loc 1 854 136
	or	a3,a3,a5
	lbu	a5,6(a1)
	.loc 1 860 184
	addi	t3,t3,%lo(.LANCHOR6)
	.loc 1 860 79
	addi	t1,t1,%lo(.LANCHOR8)
	.loc 1 854 136
	slli	a5,a5,16
	or	a3,a5,a3
	lbu	a5,7(a1)
	.loc 1 860 131
	addi	a7,a7,%lo(.LANCHOR9)
	.loc 1 854 136
	slli	a5,a5,24
	or	a5,a5,a3
	.loc 1 854 12
	sw	a5,4(sp)
	.loc 1 854 183 is_stmt 1
.LVL58:
	.loc 1 854 190 is_stmt 0
	lw	a3,4(a4)
	xor	a5,a3,a5
	.loc 1 855 136
	lbu	a3,9(a1)
	.loc 1 854 190
	sw	a5,4(sp)
	.loc 1 855 5 is_stmt 1
	.loc 1 855 136 is_stmt 0
	lbu	a5,8(a1)
	slli	a3,a3,8
	or	a3,a3,a5
	lbu	a5,10(a1)
	slli	a5,a5,16
	or	a3,a5,a3
	lbu	a5,11(a1)
	slli	a5,a5,24
	or	a5,a5,a3
	.loc 1 855 12
	sw	a5,8(sp)
	.loc 1 855 183 is_stmt 1
.LVL59:
	.loc 1 855 190 is_stmt 0
	lw	a3,8(a4)
	xor	a5,a3,a5
	.loc 1 856 139
	lbu	a3,13(a1)
	.loc 1 855 190
	sw	a5,8(sp)
	.loc 1 856 5 is_stmt 1
	.loc 1 856 139 is_stmt 0
	lbu	a5,12(a1)
	slli	a3,a3,8
	or	a3,a3,a5
	lbu	a5,14(a1)
	slli	a5,a5,16
	or	a3,a5,a3
	lbu	a5,15(a1)
	.loc 1 858 24
	lw	t6,0(a0)
	.loc 1 856 139
	slli	a5,a5,24
	or	a5,a5,a3
	.loc 1 856 12
	sw	a5,12(sp)
	.loc 1 856 187 is_stmt 1
.LVL60:
	.loc 1 856 194 is_stmt 0
	lw	a4,12(a4)
	.loc 1 858 24
	srai	t6,t6,1
	.loc 1 858 12
	addi	ra,t6,-1
	.loc 1 856 194
	xor	a5,a4,a5
	sw	a5,12(sp)
	.loc 1 858 5 is_stmt 1
.LVL61:
	.loc 1 858 12 is_stmt 0
	mv	t0,ra
.LVL62:
.L35:
	.loc 1 858 36 is_stmt 1 discriminator 1
	.loc 1 860 56 is_stmt 0 discriminator 1
	lw	s4,0(sp)
	.loc 1 860 206 discriminator 1
	lw	a6,12(sp)
	.loc 1 860 101 discriminator 1
	lw	a5,4(sp)
	.loc 1 860 39 discriminator 1
	andi	a4,s4,255
	.loc 1 860 212 discriminator 1
	srli	a3,a6,24
	.loc 1 860 36 discriminator 1
	slli	a4,a4,2
	.loc 1 860 184 discriminator 1
	slli	a3,a3,2
	.loc 1 860 36 discriminator 1
	add	a4,t4,a4
	.loc 1 860 184 discriminator 1
	add	a3,t3,a3
	.loc 1 860 179 discriminator 1
	lw	a3,0(a3)
	lw	a4,0(a4)
	.loc 1 860 153 discriminator 1
	lw	s0,8(sp)
	.loc 1 860 696 discriminator 1
	andi	s3,a6,255
	.loc 1 860 179 discriminator 1
	xor	a4,a4,a3
	.loc 1 860 82 discriminator 1
	srli	a3,a5,6
	.loc 1 860 79 discriminator 1
	andi	a3,a3,1020
	add	a3,t1,a3
	.loc 1 860 179 discriminator 1
	lw	a3,0(a3)
	.loc 1 860 693 discriminator 1
	slli	s3,s3,2
	add	s3,t4,s3
	.loc 1 860 179 discriminator 1
	xor	a4,a4,a3
	.loc 1 860 134 discriminator 1
	srli	a3,s0,14
	.loc 1 860 131 discriminator 1
	andi	a3,a3,1020
	add	a3,a7,a3
	.loc 1 860 179 discriminator 1
	lw	a3,0(a3)
	lw	s3,0(s3)
	.loc 1 860 650 discriminator 1
	srli	s5,a5,24
	.loc 1 860 179 discriminator 1
	xor	a4,a4,a3
	lw	a3,0(t5)
	.loc 1 860 622 discriminator 1
	slli	s5,s5,2
	add	s5,t3,s5
	.loc 1 860 179 discriminator 1
	xor	a4,a4,a3
	.loc 1 860 869 discriminator 1
	srli	a3,s0,24
	.loc 1 860 841 discriminator 1
	slli	a3,a3,2
	add	a3,t3,a3
	lw	a3,0(a3)
	lw	s5,0(s5)
	.loc 1 861 597 discriminator 1
	srli	a1,a4,16
	xor	s3,s3,a3
	.loc 1 860 739 discriminator 1
	srli	a3,s4,6
	.loc 1 860 736 discriminator 1
	andi	a3,a3,1020
	add	a3,t1,a3
	lw	a3,0(a3)
	.loc 1 861 764 discriminator 1
	srli	a0,a4,8
	.loc 1 861 39 discriminator 1
	andi	s2,a4,255
	xor	s3,s3,a3
	.loc 1 860 791 discriminator 1
	srli	a3,a5,14
	.loc 1 860 788 discriminator 1
	andi	a3,a3,1020
	add	a3,a7,a3
	lw	a3,0(a3)
	.loc 1 860 258 discriminator 1
	andi	a5,a5,255
	.loc 1 860 255 discriminator 1
	slli	a5,a5,2
	xor	s3,s3,a3
	.loc 1 860 477 discriminator 1
	andi	a3,s0,255
	.loc 1 860 474 discriminator 1
	slli	a3,a3,2
	add	a3,t4,a3
	lw	a3,0(a3)
	.loc 1 860 301 discriminator 1
	srli	s0,s0,6
	.loc 1 860 255 discriminator 1
	add	a5,t4,a5
	xor	a3,a3,s5
	.loc 1 860 520 discriminator 1
	srli	s5,a6,6
	.loc 1 860 517 discriminator 1
	andi	s5,s5,1020
	add	s5,t1,s5
	lw	s5,0(s5)
	.loc 1 860 298 discriminator 1
	andi	s0,s0,1020
	.loc 1 860 353 discriminator 1
	srli	a6,a6,14
	xor	a3,a3,s5
	.loc 1 860 572 discriminator 1
	srli	s5,s4,14
	.loc 1 860 431 discriminator 1
	srli	s4,s4,24
	.loc 1 860 403 discriminator 1
	slli	s4,s4,2
	add	s4,t3,s4
	lw	a5,0(a5)
	lw	s4,0(s4)
	.loc 1 860 569 discriminator 1
	andi	s5,s5,1020
	.loc 1 860 298 discriminator 1
	add	s0,t1,s0
	.loc 1 860 350 discriminator 1
	andi	a6,a6,1020
	lw	s0,0(s0)
	.loc 1 860 569 discriminator 1
	add	s5,a7,s5
	.loc 1 860 350 discriminator 1
	add	a6,a7,a6
	lw	s5,0(s5)
	lw	a6,0(a6)
	xor	a5,a5,s4
	xor	a5,a5,s0
	.loc 1 861 431 discriminator 1
	srli	s1,a4,24
	.loc 1 861 572 discriminator 1
	andi	a1,a1,255
	.loc 1 861 739 discriminator 1
	andi	a0,a0,255
	xor	a3,a3,s5
	xor	a5,a5,a6
	.loc 1 858 5 discriminator 1
	bgt	t0,zero,.L36
	li	a6,0
	ble	t6,zero,.L38
	slli	a6,ra,5
.L38:
	add	t2,t2,a6
	.loc 1 864 5 is_stmt 1
	.loc 1 864 10
.LVL63:
	.loc 1 864 19 is_stmt 0
	sw	a4,16(sp)
	.loc 1 864 229 is_stmt 1
.LVL64:
	.loc 1 864 394 is_stmt 0
	lw	a4,4(t2)
	xor	a5,a5,a4
	.loc 1 864 238
	sw	a5,20(sp)
	.loc 1 864 448 is_stmt 1
.LVL65:
	.loc 1 864 613 is_stmt 0
	lw	t1,8(t2)
	.loc 1 870 29
	lui	a4,%hi(.LANCHOR1)
	addi	a4,a4,%lo(.LANCHOR1)
	.loc 1 864 613
	xor	t1,a3,t1
	.loc 1 864 457
	sw	t1,24(sp)
	.loc 1 864 667 is_stmt 1
.LVL66:
	.loc 1 864 832 is_stmt 0
	lw	a3,12(t2)
	.loc 1 867 29
	add	s2,a4,s2
	.loc 1 876 29
	add	s1,a4,s1
	.loc 1 864 832
	xor	s3,s3,a3
	.loc 1 870 58
	srli	a3,s3,24
	.loc 1 864 676
	sw	s3,28(sp)
	.loc 1 864 893 is_stmt 1
	.loc 1 866 5
.LVL67:
	.loc 1 870 29 is_stmt 0
	add	a3,a4,a3
	.loc 1 869 87
	lw	a6,16(t2)
	.loc 1 870 15
	lbu	a7,0(a3)
	.loc 1 867 15
	lbu	a3,0(s2)
	.loc 1 881 29
	add	a1,a4,a1
	.loc 1 870 79
	slli	a7,a7,24
	.loc 1 869 87
	xor	a3,a3,a6
	xor	a7,a7,a3
	.loc 1 868 58
	srli	a3,a5,8
	.loc 1 868 33
	andi	a3,a3,255
	.loc 1 868 29
	add	a3,a4,a3
	.loc 1 868 15
	lbu	a3,0(a3)
	.loc 1 876 15
	lbu	a6,0(s1)
	.loc 1 881 15
	lbu	a1,0(a1)
	.loc 1 868 78
	slli	a3,a3,8
	.loc 1 869 87
	xor	a7,a7,a3
	.loc 1 869 58
	srli	a3,t1,16
	.loc 1 869 33
	andi	a3,a3,255
	.loc 1 869 29
	add	a3,a4,a3
	.loc 1 869 15
	lbu	a3,0(a3)
	.loc 1 876 79
	slli	a6,a6,24
	.loc 1 881 79
	slli	a1,a1,16
	.loc 1 869 79
	slli	a3,a3,16
	.loc 1 869 87
	xor	a7,a7,a3
	.loc 1 875 87
	lw	a3,20(t2)
	.loc 1 886 29
	add	a0,a4,a0
	.loc 1 866 12
	sw	a7,0(sp)
	.loc 1 872 5 is_stmt 1
.LVL68:
	.loc 1 875 87 is_stmt 0
	xor	a6,a6,a3
	.loc 1 873 33
	andi	a3,a5,255
	.loc 1 873 29
	add	a3,a4,a3
	.loc 1 873 15
	lbu	a3,0(a3)
	.loc 1 875 87
	xor	a6,a6,a3
	.loc 1 874 58
	srli	a3,t1,8
	.loc 1 874 33
	andi	a3,a3,255
	.loc 1 874 29
	add	a3,a4,a3
	.loc 1 874 15
	lbu	a3,0(a3)
	.loc 1 874 78
	slli	a3,a3,8
	.loc 1 875 87
	xor	a6,a6,a3
	.loc 1 875 58
	srli	a3,s3,16
	.loc 1 875 33
	andi	a3,a3,255
	.loc 1 875 29
	add	a3,a4,a3
	.loc 1 875 15
	lbu	a3,0(a3)
	.loc 1 875 79
	slli	a3,a3,16
	.loc 1 875 87
	xor	a6,a6,a3
	.loc 1 881 87
	lw	a3,24(t2)
	.loc 1 872 12
	sw	a6,4(sp)
	.loc 1 878 5 is_stmt 1
.LVL69:
	.loc 1 881 87 is_stmt 0
	xor	a1,a1,a3
	.loc 1 879 33
	andi	a3,t1,255
	.loc 1 879 29
	add	a3,a4,a3
	.loc 1 879 15
	lbu	a3,0(a3)
	.loc 1 881 87
	xor	a1,a1,a3
	.loc 1 882 58
	srli	a3,a5,24
	.loc 1 882 29
	add	a3,a4,a3
	.loc 1 882 15
	lbu	a3,0(a3)
	.loc 1 887 58
	srli	a5,a5,16
	.loc 1 887 33
	andi	a5,a5,255
	.loc 1 882 79
	slli	a3,a3,24
	.loc 1 881 87
	xor	a1,a1,a3
	.loc 1 880 58
	srli	a3,s3,8
	.loc 1 880 33
	andi	a3,a3,255
	.loc 1 880 29
	add	a3,a4,a3
	.loc 1 880 15
	lbu	a3,0(a3)
	.loc 1 885 33
	andi	s3,s3,255
	.loc 1 885 29
	add	s3,a4,s3
	.loc 1 880 78
	slli	a3,a3,8
	.loc 1 881 87
	xor	a1,a1,a3
	.loc 1 886 15
	lbu	a3,0(a0)
	.loc 1 887 87
	lw	a0,28(t2)
	.loc 1 878 12
	sw	a1,8(sp)
	.loc 1 884 5 is_stmt 1
.LVL70:
	.loc 1 886 78 is_stmt 0
	slli	a3,a3,8
	.loc 1 887 87
	xor	a3,a3,a0
	.loc 1 885 15
	lbu	a0,0(s3)
	.loc 1 890 30
	sb	a7,0(a2)
	.loc 1 887 87
	xor	a3,a3,a0
	.loc 1 888 58
	srli	a0,t1,24
	.loc 1 888 29
	add	a0,a4,a0
	.loc 1 888 15
	lbu	a0,0(a0)
	.loc 1 887 29
	add	a4,a4,a5
	.loc 1 887 15
	lbu	a5,0(a4)
	.loc 1 888 79
	slli	a0,a0,24
	.loc 1 887 87
	xor	a3,a3,a0
	.loc 1 887 79
	slli	a5,a5,16
	.loc 1 887 87
	xor	a5,a3,a5
	.loc 1 884 12
	sw	a5,12(sp)
	.loc 1 890 7 is_stmt 1
	.loc 1 890 65
	.loc 1 890 116 is_stmt 0
	srli	a4,a7,8
	.loc 1 890 91
	sb	a4,1(a2)
	.loc 1 890 135 is_stmt 1
	.loc 1 890 186 is_stmt 0
	srli	a4,a7,16
	.loc 1 890 161
	sb	a4,2(a2)
	.loc 1 890 206 is_stmt 1
	.loc 1 891 116 is_stmt 0
	srli	a4,a6,8
	.loc 1 891 91
	sb	a4,5(a2)
	.loc 1 891 186
	srli	a4,a6,16
	.loc 1 891 161
	sb	a4,6(a2)
	.loc 1 892 116
	srli	a4,a1,8
	.loc 1 892 91
	sb	a4,9(a2)
	.loc 1 892 186
	srli	a4,a1,16
	.loc 1 892 161
	sb	a4,10(a2)
	.loc 1 893 118
	srli	a4,a5,8
	.loc 1 890 257
	srli	a7,a7,24
	.loc 1 891 30
	sb	a6,4(a2)
	.loc 1 892 30
	sb	a1,8(a2)
	.loc 1 891 257
	srli	a6,a6,24
	.loc 1 892 257
	srli	a1,a1,24
	.loc 1 893 31
	sb	a5,12(a2)
	.loc 1 893 93
	sb	a4,13(a2)
	.loc 1 893 189
	srli	a4,a5,16
	.loc 1 893 261
	srli	a5,a5,24
	.loc 1 895 5
	mv	a0,sp
	.loc 1 892 232
	sb	a1,11(a2)
	.loc 1 890 232
	sb	a7,3(a2)
	.loc 1 890 278 is_stmt 1
	.loc 1 891 7
	.loc 1 891 65
	.loc 1 891 135
	.loc 1 891 206
	.loc 1 891 232 is_stmt 0
	sb	a6,7(a2)
	.loc 1 891 278 is_stmt 1
	.loc 1 892 7
	.loc 1 892 65
	.loc 1 892 135
	.loc 1 892 206
	.loc 1 892 278
	.loc 1 893 7
	.loc 1 893 66
	.loc 1 893 137
	.loc 1 893 164 is_stmt 0
	sb	a4,14(a2)
	.loc 1 893 209 is_stmt 1
	.loc 1 893 236 is_stmt 0
	sb	a5,15(a2)
	.loc 1 893 282 is_stmt 1
	.loc 1 895 5
	li	a1,32
	call	mbedtls_platform_zeroize
.LVL71:
	.loc 1 897 5
	.loc 1 898 1 is_stmt 0
	lw	ra,60(sp)
	.cfi_remember_state
	.cfi_restore 1
	lw	s0,56(sp)
	.cfi_restore 8
	lw	s1,52(sp)
	.cfi_restore 9
	lw	s2,48(sp)
	.cfi_restore 18
	lw	s3,44(sp)
	.cfi_restore 19
	lw	s4,40(sp)
	.cfi_restore 20
	lw	s5,36(sp)
	.cfi_restore 21
	li	a0,0
	addi	sp,sp,64
	.cfi_def_cfa_offset 0
	jr	ra
.LVL72:
.L36:
	.cfi_restore_state
	.loc 1 860 9 is_stmt 1 discriminator 3
	.loc 1 860 14 discriminator 3
	.loc 1 860 23 is_stmt 0 discriminator 3
	sw	a4,16(sp)
	.loc 1 860 233 is_stmt 1 discriminator 3
.LVL73:
	.loc 1 860 398 is_stmt 0 discriminator 3
	lw	a4,4(t5)
	.loc 1 861 36 discriminator 3
	slli	s2,s2,2
	add	s2,t4,s2
	.loc 1 860 398 discriminator 3
	xor	a5,a5,a4
	.loc 1 860 242 discriminator 3
	sw	a5,20(sp)
	.loc 1 860 452 is_stmt 1 discriminator 3
.LVL74:
	.loc 1 860 617 is_stmt 0 discriminator 3
	lw	a4,8(t5)
	.loc 1 861 179 discriminator 3
	lw	s0,0(s2)
	.loc 1 861 403 discriminator 3
	slli	s1,s1,2
	.loc 1 860 617 discriminator 3
	xor	a4,a3,a4
	.loc 1 860 461 discriminator 3
	sw	a4,24(sp)
	.loc 1 860 671 is_stmt 1 discriminator 3
.LVL75:
	.loc 1 860 836 is_stmt 0 discriminator 3
	lw	a3,12(t5)
	.loc 1 861 403 discriminator 3
	add	s1,t3,s1
	.loc 1 861 569 discriminator 3
	slli	a1,a1,2
	.loc 1 860 836 discriminator 3
	xor	a3,s3,a3
	.loc 1 861 212 discriminator 3
	srli	a6,a3,24
	.loc 1 861 184 discriminator 3
	slli	a6,a6,2
	add	a6,t3,a6
	.loc 1 861 179 discriminator 3
	lw	a6,0(a6)
	.loc 1 860 680 discriminator 3
	sw	a3,28(sp)
	.loc 1 860 897 is_stmt 1 discriminator 3
	.loc 1 861 9 discriminator 3
	.loc 1 861 14 discriminator 3
.LVL76:
	.loc 1 861 569 is_stmt 0 discriminator 3
	add	a1,a7,a1
	.loc 1 861 179 discriminator 3
	xor	a6,a6,s0
	lw	s0,16(t5)
	.loc 1 861 617 discriminator 3
	lw	a1,0(a1)
	addi	t5,t5,32
.LVL77:
	.loc 1 861 179 discriminator 3
	xor	a6,a6,s0
	.loc 1 861 82 discriminator 3
	srli	s0,a5,6
	.loc 1 861 79 discriminator 3
	andi	s0,s0,1020
	add	s0,t1,s0
	.loc 1 861 179 discriminator 3
	lw	s0,0(s0)
	.loc 1 861 736 discriminator 3
	slli	a0,a0,2
	add	a0,t1,a0
	.loc 1 861 179 discriminator 3
	xor	a6,a6,s0
	.loc 1 861 134 discriminator 3
	srli	s0,a4,14
	.loc 1 861 131 discriminator 3
	andi	s0,s0,1020
	add	s0,a7,s0
	.loc 1 861 179 discriminator 3
	lw	s0,0(s0)
	.loc 1 858 44 discriminator 3
	addi	t0,t0,-1
.LVL78:
	.loc 1 861 179 discriminator 3
	xor	a6,a6,s0
	.loc 1 861 23 discriminator 3
	sw	a6,0(sp)
	.loc 1 861 233 is_stmt 1 discriminator 3
.LVL79:
	.loc 1 861 258 is_stmt 0 discriminator 3
	andi	a6,a5,255
	.loc 1 861 255 discriminator 3
	slli	a6,a6,2
	add	a6,t4,a6
	.loc 1 861 398 discriminator 3
	lw	s0,0(s1)
	lw	a6,0(a6)
	xor	a6,a6,s0
	lw	s0,-12(t5)
	xor	a6,a6,s0
	.loc 1 861 301 discriminator 3
	srli	s0,a4,6
	.loc 1 861 298 discriminator 3
	andi	s0,s0,1020
	add	s0,t1,s0
	.loc 1 861 398 discriminator 3
	lw	s0,0(s0)
	xor	a6,a6,s0
	.loc 1 861 353 discriminator 3
	srli	s0,a3,14
	.loc 1 861 350 discriminator 3
	andi	s0,s0,1020
	add	s0,a7,s0
	.loc 1 861 398 discriminator 3
	lw	s0,0(s0)
	xor	a6,a6,s0
	.loc 1 861 242 discriminator 3
	sw	a6,4(sp)
	.loc 1 861 452 is_stmt 1 discriminator 3
.LVL80:
	.loc 1 861 650 is_stmt 0 discriminator 3
	srli	s0,a5,24
	.loc 1 861 477 discriminator 3
	andi	a6,a4,255
	.loc 1 861 474 discriminator 3
	slli	a6,a6,2
	.loc 1 861 622 discriminator 3
	slli	s0,s0,2
	.loc 1 861 474 discriminator 3
	add	a6,t4,a6
	.loc 1 861 622 discriminator 3
	add	s0,t3,s0
	.loc 1 861 617 discriminator 3
	lw	s0,0(s0)
	lw	a6,0(a6)
	.loc 1 861 869 discriminator 3
	srli	a4,a4,24
	.loc 1 861 841 discriminator 3
	slli	a4,a4,2
	.loc 1 861 617 discriminator 3
	xor	a6,a6,s0
	lw	s0,-8(t5)
	.loc 1 861 841 discriminator 3
	add	a4,t3,a4
	.loc 1 861 836 discriminator 3
	lw	a4,0(a4)
	.loc 1 861 617 discriminator 3
	xor	a6,a6,s0
	.loc 1 861 520 discriminator 3
	srli	s0,a3,6
	.loc 1 861 517 discriminator 3
	andi	s0,s0,1020
	add	s0,t1,s0
	.loc 1 861 617 discriminator 3
	lw	s0,0(s0)
	.loc 1 861 696 discriminator 3
	andi	a3,a3,255
	.loc 1 861 693 discriminator 3
	slli	a3,a3,2
	.loc 1 861 617 discriminator 3
	xor	a6,a6,s0
	xor	a1,a6,a1
	.loc 1 861 461 discriminator 3
	sw	a1,8(sp)
	.loc 1 861 671 is_stmt 1 discriminator 3
.LVL81:
	.loc 1 861 693 is_stmt 0 discriminator 3
	add	a3,t4,a3
	.loc 1 861 836 discriminator 3
	lw	a1,-4(t5)
	lw	a3,0(a3)
	.loc 1 861 791 discriminator 3
	srli	a5,a5,14
	.loc 1 861 788 discriminator 3
	andi	a5,a5,1020
	.loc 1 861 836 discriminator 3
	xor	a3,a3,a1
	xor	a4,a3,a4
	.loc 1 861 788 discriminator 3
	add	a5,a7,a5
	.loc 1 861 836 discriminator 3
	lw	a3,0(a0)
	lw	a5,0(a5)
	xor	a4,a4,a3
	xor	a5,a4,a5
	.loc 1 861 680 discriminator 3
	sw	a5,12(sp)
	.loc 1 861 897 is_stmt 1 discriminator 3
	.loc 1 858 43 discriminator 3
.LVL82:
	j	.L35
	.cfi_endproc
.LFE9:
	.size	mbedtls_internal_aes_encrypt, .-mbedtls_internal_aes_encrypt
	.section	.text.mbedtls_aes_encrypt,"ax",@progbits
	.align	1
	.globl	mbedtls_aes_encrypt
	.type	mbedtls_aes_encrypt, @function
mbedtls_aes_encrypt:
.LFB10:
	.loc 1 905 1
	.cfi_startproc
.LVL83:
	.loc 1 906 5
	.loc 1 906 17 is_stmt 0
	tail	mbedtls_internal_aes_encrypt
.LVL84:
	.cfi_endproc
.LFE10:
	.size	mbedtls_aes_encrypt, .-mbedtls_aes_encrypt
	.section	.text.mbedtls_internal_aes_decrypt,"ax",@progbits
	.align	1
	.globl	mbedtls_internal_aes_decrypt
	.type	mbedtls_internal_aes_decrypt, @function
mbedtls_internal_aes_decrypt:
.LFB11:
	.loc 1 917 1 is_stmt 1
	.cfi_startproc
.LVL85:
	.loc 1 918 5
	.loc 1 919 5
	.loc 1 917 1 is_stmt 0
	addi	sp,sp,-64
	.cfi_def_cfa_offset 64
	sw	ra,60(sp)
	sw	s0,56(sp)
	sw	s1,52(sp)
	sw	s2,48(sp)
	sw	s3,44(sp)
	sw	s4,40(sp)
	sw	s5,36(sp)
	.cfi_offset 1, -4
	.cfi_offset 8, -8
	.cfi_offset 9, -12
	.cfi_offset 18, -16
	.cfi_offset 19, -20
	.cfi_offset 20, -24
	.cfi_offset 21, -28
	.loc 1 926 136
	lbu	a3,1(a1)
	lbu	a5,0(a1)
	.loc 1 919 15
	lw	a4,4(a0)
.LVL86:
	.loc 1 920 5 is_stmt 1
	.loc 1 926 5
	.loc 1 926 136 is_stmt 0
	slli	a3,a3,8
	or	a3,a3,a5
	lbu	a5,2(a1)
	.loc 1 929 200
	addi	ra,a4,16
	.loc 1 933 36
	lui	t5,%hi(.LANCHOR2)
	.loc 1 926 136
	slli	a5,a5,16
	or	a3,a5,a3
	lbu	a5,3(a1)
	.loc 1 933 184
	lui	t4,%hi(.LANCHOR3)
	.loc 1 933 79
	lui	t3,%hi(.LANCHOR4)
	.loc 1 926 136
	slli	a5,a5,24
	or	a5,a5,a3
	.loc 1 926 12
	sw	a5,0(sp)
	.loc 1 926 183 is_stmt 1
.LVL87:
	.loc 1 926 190 is_stmt 0
	lw	a3,0(a4)
	.loc 1 933 131
	lui	t1,%hi(.LANCHOR5)
	.loc 1 929 200
	mv	t6,ra
	.loc 1 926 190
	xor	a5,a3,a5
	.loc 1 927 136
	lbu	a3,5(a1)
	.loc 1 926 190
	sw	a5,0(sp)
	.loc 1 927 5 is_stmt 1
	.loc 1 927 136 is_stmt 0
	lbu	a5,4(a1)
	slli	a3,a3,8
	.loc 1 933 36
	addi	t5,t5,%lo(.LANCHOR2)
	.loc 1 927 136
	or	a3,a3,a5
	lbu	a5,6(a1)
	.loc 1 933 184
	addi	t4,t4,%lo(.LANCHOR3)
	.loc 1 933 79
	addi	t3,t3,%lo(.LANCHOR4)
	.loc 1 927 136
	slli	a5,a5,16
	or	a3,a5,a3
	lbu	a5,7(a1)
	.loc 1 933 131
	addi	t1,t1,%lo(.LANCHOR5)
	.loc 1 927 136
	slli	a5,a5,24
	or	a5,a5,a3
	.loc 1 927 12
	sw	a5,4(sp)
	.loc 1 927 183 is_stmt 1
.LVL88:
	.loc 1 927 190 is_stmt 0
	lw	a3,4(a4)
	xor	a5,a3,a5
	.loc 1 928 136
	lbu	a3,9(a1)
	.loc 1 927 190
	sw	a5,4(sp)
	.loc 1 928 5 is_stmt 1
	.loc 1 928 136 is_stmt 0
	lbu	a5,8(a1)
	slli	a3,a3,8
	or	a3,a3,a5
	lbu	a5,10(a1)
	slli	a5,a5,16
	or	a3,a5,a3
	lbu	a5,11(a1)
	slli	a5,a5,24
	or	a5,a5,a3
	.loc 1 928 12
	sw	a5,8(sp)
	.loc 1 928 183 is_stmt 1
.LVL89:
	.loc 1 928 190 is_stmt 0
	lw	a3,8(a4)
	xor	a5,a3,a5
	.loc 1 929 139
	lbu	a3,13(a1)
	.loc 1 928 190
	sw	a5,8(sp)
	.loc 1 929 5 is_stmt 1
	.loc 1 929 139 is_stmt 0
	lbu	a5,12(a1)
	slli	a3,a3,8
	or	a3,a3,a5
	lbu	a5,14(a1)
	slli	a5,a5,16
	or	a3,a5,a3
	lbu	a5,15(a1)
	.loc 1 931 24
	lw	t0,0(a0)
	.loc 1 929 139
	slli	a5,a5,24
	or	a5,a5,a3
	.loc 1 929 12
	sw	a5,12(sp)
	.loc 1 929 187 is_stmt 1
.LVL90:
	.loc 1 929 194 is_stmt 0
	lw	a4,12(a4)
	.loc 1 931 24
	srai	t0,t0,1
	.loc 1 931 12
	addi	s0,t0,-1
	.loc 1 929 194
	xor	a5,a4,a5
	sw	a5,12(sp)
	.loc 1 931 5 is_stmt 1
.LVL91:
	.loc 1 931 12 is_stmt 0
	mv	t2,s0
.LVL92:
.L42:
	.loc 1 931 36 is_stmt 1 discriminator 1
	.loc 1 933 56 is_stmt 0 discriminator 1
	lw	s2,0(sp)
	.loc 1 933 206 discriminator 1
	lw	a5,4(sp)
	.loc 1 933 101 discriminator 1
	lw	a7,12(sp)
	.loc 1 933 39 discriminator 1
	andi	a4,s2,255
	.loc 1 933 212 discriminator 1
	srli	a3,a5,24
	.loc 1 933 36 discriminator 1
	slli	a4,a4,2
	.loc 1 933 184 discriminator 1
	slli	a3,a3,2
	.loc 1 933 36 discriminator 1
	add	a4,t5,a4
	.loc 1 933 184 discriminator 1
	add	a3,t4,a3
	.loc 1 933 179 discriminator 1
	lw	a3,0(a3)
	lw	a4,0(a4)
	.loc 1 933 153 discriminator 1
	lw	a0,8(sp)
	.loc 1 933 696 discriminator 1
	andi	s4,a7,255
	.loc 1 933 179 discriminator 1
	xor	a4,a4,a3
	.loc 1 933 82 discriminator 1
	srli	a3,a7,6
	.loc 1 933 79 discriminator 1
	andi	a3,a3,1020
	add	a3,t3,a3
	.loc 1 933 179 discriminator 1
	lw	a3,0(a3)
	.loc 1 933 693 discriminator 1
	slli	s4,s4,2
	add	s4,t5,s4
	.loc 1 933 179 discriminator 1
	xor	a4,a4,a3
	.loc 1 933 134 discriminator 1
	srli	a3,a0,14
	.loc 1 933 131 discriminator 1
	andi	a3,a3,1020
	add	a3,t1,a3
	.loc 1 933 179 discriminator 1
	lw	a3,0(a3)
	lw	s4,0(s4)
	.loc 1 933 650 discriminator 1
	srli	s5,a7,24
	.loc 1 933 179 discriminator 1
	xor	a4,a4,a3
	lw	a3,0(t6)
	.loc 1 933 622 discriminator 1
	slli	s5,s5,2
	add	s5,t4,s5
	.loc 1 933 179 discriminator 1
	xor	a4,a4,a3
	.loc 1 933 869 discriminator 1
	srli	a3,s2,24
	.loc 1 933 841 discriminator 1
	slli	a3,a3,2
	add	a3,t4,a3
	lw	a3,0(a3)
	lw	s5,0(s5)
	.loc 1 933 353 discriminator 1
	srli	a7,a7,14
	xor	s4,s4,a3
	.loc 1 933 739 discriminator 1
	srli	a3,a0,6
	.loc 1 933 736 discriminator 1
	andi	a3,a3,1020
	add	a3,t3,a3
	lw	a3,0(a3)
	.loc 1 933 350 discriminator 1
	andi	a7,a7,1020
	add	a7,t1,a7
	xor	s4,s4,a3
	.loc 1 933 791 discriminator 1
	srli	a3,a5,14
	.loc 1 933 788 discriminator 1
	andi	a3,a3,1020
	add	a3,t1,a3
	lw	a3,0(a3)
	.loc 1 934 326 discriminator 1
	srli	a6,a4,8
	.loc 1 934 597 discriminator 1
	srli	a1,a4,16
	xor	s4,s4,a3
	.loc 1 933 477 discriminator 1
	andi	a3,a0,255
	.loc 1 933 474 discriminator 1
	slli	a3,a3,2
	add	a3,t5,a3
	lw	a3,0(a3)
	.loc 1 933 431 discriminator 1
	srli	a0,a0,24
	.loc 1 933 403 discriminator 1
	slli	a0,a0,2
	xor	a3,a3,s5
	.loc 1 933 520 discriminator 1
	srli	s5,a5,6
	.loc 1 933 517 discriminator 1
	andi	s5,s5,1020
	add	s5,t3,s5
	lw	s5,0(s5)
	.loc 1 933 258 discriminator 1
	andi	a5,a5,255
	.loc 1 933 255 discriminator 1
	slli	a5,a5,2
	add	a5,t5,a5
	.loc 1 933 403 discriminator 1
	add	a0,t4,a0
	lw	a0,0(a0)
	xor	a3,a3,s5
	lw	a5,0(a5)
	.loc 1 933 572 discriminator 1
	srli	s5,s2,14
	.loc 1 933 301 discriminator 1
	srli	s2,s2,6
	.loc 1 933 298 discriminator 1
	andi	s2,s2,1020
	add	s2,t3,s2
	xor	a5,a5,a0
	lw	a0,0(s2)
	.loc 1 933 569 discriminator 1
	andi	s5,s5,1020
	add	s5,t1,s5
	xor	a5,a5,a0
	lw	s5,0(s5)
	lw	a0,0(a7)
	.loc 1 934 39 discriminator 1
	andi	s3,a4,255
	.loc 1 934 301 discriminator 1
	andi	a6,a6,255
	.loc 1 934 572 discriminator 1
	andi	a1,a1,255
	.loc 1 934 869 discriminator 1
	srli	s1,a4,24
	xor	a3,a3,s5
	xor	a5,a5,a0
	.loc 1 931 5 discriminator 1
	bgt	t2,zero,.L43
	li	a0,0
	ble	t0,zero,.L45
	slli	a0,s0,5
.L45:
	add	ra,ra,a0
	.loc 1 937 5 is_stmt 1
	.loc 1 937 10
.LVL93:
	.loc 1 937 19 is_stmt 0
	sw	a4,16(sp)
	.loc 1 937 229 is_stmt 1
.LVL94:
	.loc 1 937 394 is_stmt 0
	lw	a4,4(ra)
	xor	a5,a5,a4
	.loc 1 937 238
	sw	a5,20(sp)
	.loc 1 937 448 is_stmt 1
.LVL95:
	.loc 1 937 613 is_stmt 0
	lw	a0,8(ra)
	.loc 1 943 29
	lui	a4,%hi(.LANCHOR10)
	addi	a4,a4,%lo(.LANCHOR10)
	.loc 1 937 613
	xor	a0,a3,a0
	.loc 1 937 457
	sw	a0,24(sp)
	.loc 1 937 667 is_stmt 1
.LVL96:
	.loc 1 937 832 is_stmt 0
	lw	a3,12(ra)
	.loc 1 940 29
	add	s3,a4,s3
	.loc 1 947 29
	add	a6,a4,a6
	.loc 1 937 832
	xor	s4,s4,a3
	.loc 1 943 58
	srli	a3,a5,24
	.loc 1 937 676
	sw	s4,28(sp)
	.loc 1 937 893 is_stmt 1
	.loc 1 939 5
.LVL97:
	.loc 1 943 29 is_stmt 0
	add	a3,a4,a3
	.loc 1 942 87
	lw	t1,16(ra)
	.loc 1 943 15
	lbu	a7,0(a3)
	.loc 1 940 15
	lbu	a3,0(s3)
	.loc 1 947 15
	lbu	a6,0(a6)
	.loc 1 943 79
	slli	a7,a7,24
	.loc 1 942 87
	xor	a3,a3,t1
	xor	a7,a7,a3
	.loc 1 941 58
	srli	a3,s4,8
	.loc 1 941 33
	andi	a3,a3,255
	.loc 1 941 29
	add	a3,a4,a3
	.loc 1 941 15
	lbu	a3,0(a3)
	.loc 1 947 78
	slli	a6,a6,8
	.loc 1 954 29
	add	a1,a4,a1
	.loc 1 941 78
	slli	a3,a3,8
	.loc 1 942 87
	xor	a7,a7,a3
	.loc 1 942 58
	srli	a3,a0,16
	.loc 1 942 33
	andi	a3,a3,255
	.loc 1 942 29
	add	a3,a4,a3
	.loc 1 942 15
	lbu	a3,0(a3)
	.loc 1 954 15
	lbu	a1,0(a1)
	.loc 1 961 29
	add	s1,a4,s1
	.loc 1 942 79
	slli	a3,a3,16
	.loc 1 942 87
	xor	a7,a7,a3
	.loc 1 948 87
	lw	a3,20(ra)
	.loc 1 954 79
	slli	a1,a1,16
	.loc 1 960 87
	lw	t1,28(ra)
	.loc 1 948 87
	xor	a6,a6,a3
	.loc 1 946 33
	andi	a3,a5,255
	.loc 1 946 29
	add	a3,a4,a3
	.loc 1 946 15
	lbu	a3,0(a3)
	.loc 1 939 12
	sw	a7,0(sp)
	.loc 1 945 5 is_stmt 1
.LVL98:
	.loc 1 948 87 is_stmt 0
	xor	a6,a6,a3
	.loc 1 949 58
	srli	a3,a0,24
	.loc 1 949 29
	add	a3,a4,a3
	.loc 1 949 15
	lbu	a3,0(a3)
	.loc 1 949 79
	slli	a3,a3,24
	.loc 1 948 87
	xor	a6,a6,a3
	.loc 1 948 58
	srli	a3,s4,16
	.loc 1 948 33
	andi	a3,a3,255
	.loc 1 948 29
	add	a3,a4,a3
	.loc 1 948 15
	lbu	a3,0(a3)
	.loc 1 948 79
	slli	a3,a3,16
	.loc 1 948 87
	xor	a6,a6,a3
	.loc 1 954 87
	lw	a3,24(ra)
	.loc 1 945 12
	sw	a6,4(sp)
	.loc 1 951 5 is_stmt 1
.LVL99:
	.loc 1 963 30 is_stmt 0
	sb	a7,0(a2)
	.loc 1 954 87
	xor	a1,a1,a3
	.loc 1 952 33
	andi	a3,a0,255
	.loc 1 952 29
	add	a3,a4,a3
	.loc 1 952 15
	lbu	a3,0(a3)
	.loc 1 959 58
	srli	a0,a0,8
	.loc 1 959 33
	andi	a0,a0,255
	.loc 1 954 87
	xor	a1,a1,a3
	.loc 1 955 58
	srli	a3,s4,24
	.loc 1 955 29
	add	a3,a4,a3
	.loc 1 955 15
	lbu	a3,0(a3)
	.loc 1 958 33
	andi	s4,s4,255
	.loc 1 958 29
	add	s4,a4,s4
	.loc 1 955 79
	slli	a3,a3,24
	.loc 1 954 87
	xor	a1,a1,a3
	.loc 1 953 58
	srli	a3,a5,8
	.loc 1 953 33
	andi	a3,a3,255
	.loc 1 953 29
	add	a3,a4,a3
	.loc 1 953 15
	lbu	a3,0(a3)
	.loc 1 960 58
	srli	a5,a5,16
	.loc 1 959 29
	add	a0,a4,a0
	.loc 1 953 78
	slli	a3,a3,8
	.loc 1 954 87
	xor	a1,a1,a3
	.loc 1 961 15
	lbu	a3,0(s1)
	.loc 1 960 33
	andi	a5,a5,255
	.loc 1 959 15
	lbu	a0,0(a0)
	.loc 1 961 79
	slli	a3,a3,24
	.loc 1 960 87
	xor	a3,a3,t1
	.loc 1 960 29
	add	a4,a4,a5
	.loc 1 958 15
	lbu	t1,0(s4)
	.loc 1 960 15
	lbu	a5,0(a4)
	.loc 1 959 78
	slli	a0,a0,8
	.loc 1 960 87
	xor	a3,a3,t1
	xor	a3,a3,a0
	.loc 1 960 79
	slli	a5,a5,16
	.loc 1 960 87
	xor	a5,a3,a5
	.loc 1 951 12
	sw	a1,8(sp)
	.loc 1 957 5 is_stmt 1
.LVL100:
	.loc 1 957 12 is_stmt 0
	sw	a5,12(sp)
	.loc 1 963 7 is_stmt 1
	.loc 1 963 65
	.loc 1 963 116 is_stmt 0
	srli	a4,a7,8
	.loc 1 963 91
	sb	a4,1(a2)
	.loc 1 963 135 is_stmt 1
	.loc 1 963 186 is_stmt 0
	srli	a4,a7,16
	.loc 1 963 161
	sb	a4,2(a2)
	.loc 1 963 206 is_stmt 1
	.loc 1 964 116 is_stmt 0
	srli	a4,a6,8
	.loc 1 964 91
	sb	a4,5(a2)
	.loc 1 964 186
	srli	a4,a6,16
	.loc 1 964 161
	sb	a4,6(a2)
	.loc 1 965 116
	srli	a4,a1,8
	.loc 1 965 91
	sb	a4,9(a2)
	.loc 1 965 186
	srli	a4,a1,16
	.loc 1 965 161
	sb	a4,10(a2)
	.loc 1 966 118
	srli	a4,a5,8
	.loc 1 963 257
	srli	a7,a7,24
	.loc 1 964 30
	sb	a6,4(a2)
	.loc 1 965 30
	sb	a1,8(a2)
	.loc 1 964 257
	srli	a6,a6,24
	.loc 1 965 257
	srli	a1,a1,24
	.loc 1 966 31
	sb	a5,12(a2)
	.loc 1 966 93
	sb	a4,13(a2)
	.loc 1 966 189
	srli	a4,a5,16
	.loc 1 966 261
	srli	a5,a5,24
	.loc 1 968 5
	mv	a0,sp
	.loc 1 965 232
	sb	a1,11(a2)
	.loc 1 963 232
	sb	a7,3(a2)
	.loc 1 963 278 is_stmt 1
	.loc 1 964 7
	.loc 1 964 65
	.loc 1 964 135
	.loc 1 964 206
	.loc 1 964 232 is_stmt 0
	sb	a6,7(a2)
	.loc 1 964 278 is_stmt 1
	.loc 1 965 7
	.loc 1 965 65
	.loc 1 965 135
	.loc 1 965 206
	.loc 1 965 278
	.loc 1 966 7
	.loc 1 966 66
	.loc 1 966 137
	.loc 1 966 164 is_stmt 0
	sb	a4,14(a2)
	.loc 1 966 209 is_stmt 1
	.loc 1 966 236 is_stmt 0
	sb	a5,15(a2)
	.loc 1 966 282 is_stmt 1
	.loc 1 968 5
	li	a1,32
	call	mbedtls_platform_zeroize
.LVL101:
	.loc 1 970 5
	.loc 1 971 1 is_stmt 0
	lw	ra,60(sp)
	.cfi_remember_state
	.cfi_restore 1
	lw	s0,56(sp)
	.cfi_restore 8
	lw	s1,52(sp)
	.cfi_restore 9
	lw	s2,48(sp)
	.cfi_restore 18
	lw	s3,44(sp)
	.cfi_restore 19
	lw	s4,40(sp)
	.cfi_restore 20
	lw	s5,36(sp)
	.cfi_restore 21
	li	a0,0
	addi	sp,sp,64
	.cfi_def_cfa_offset 0
	jr	ra
.LVL102:
.L43:
	.cfi_restore_state
	.loc 1 933 9 is_stmt 1 discriminator 3
	.loc 1 933 14 discriminator 3
	.loc 1 933 23 is_stmt 0 discriminator 3
	sw	a4,16(sp)
	.loc 1 933 233 is_stmt 1 discriminator 3
.LVL103:
	.loc 1 933 398 is_stmt 0 discriminator 3
	lw	a4,4(t6)
	.loc 1 934 36 discriminator 3
	slli	s3,s3,2
	add	s3,t5,s3
	.loc 1 933 398 discriminator 3
	xor	a5,a5,a4
	.loc 1 933 242 discriminator 3
	sw	a5,20(sp)
	.loc 1 933 452 is_stmt 1 discriminator 3
.LVL104:
	.loc 1 933 617 is_stmt 0 discriminator 3
	lw	a4,8(t6)
	.loc 1 934 212 discriminator 3
	srli	a0,a5,24
	.loc 1 934 184 discriminator 3
	slli	a0,a0,2
	.loc 1 933 617 discriminator 3
	xor	a4,a3,a4
	.loc 1 933 461 discriminator 3
	sw	a4,24(sp)
	.loc 1 933 671 is_stmt 1 discriminator 3
.LVL105:
	.loc 1 933 836 is_stmt 0 discriminator 3
	lw	a3,12(t6)
	.loc 1 934 184 discriminator 3
	add	a0,t4,a0
	.loc 1 934 179 discriminator 3
	lw	a7,0(s3)
	lw	a0,0(a0)
	.loc 1 933 836 discriminator 3
	xor	a3,s4,a3
	.loc 1 933 680 discriminator 3
	sw	a3,28(sp)
	.loc 1 933 897 is_stmt 1 discriminator 3
	.loc 1 934 9 discriminator 3
	.loc 1 934 14 discriminator 3
.LVL106:
	.loc 1 934 179 is_stmt 0 discriminator 3
	xor	a0,a0,a7
	lw	a7,16(t6)
	.loc 1 934 298 discriminator 3
	slli	a6,a6,2
	add	a6,t3,a6
	.loc 1 934 179 discriminator 3
	xor	a0,a0,a7
	.loc 1 934 82 discriminator 3
	srli	a7,a3,6
	.loc 1 934 79 discriminator 3
	andi	a7,a7,1020
	add	a7,t3,a7
	.loc 1 934 179 discriminator 3
	lw	a7,0(a7)
	.loc 1 934 398 discriminator 3
	lw	a6,0(a6)
	.loc 1 934 569 discriminator 3
	slli	a1,a1,2
	.loc 1 934 179 discriminator 3
	xor	a0,a0,a7
	.loc 1 934 134 discriminator 3
	srli	a7,a4,14
	.loc 1 934 131 discriminator 3
	andi	a7,a7,1020
	add	a7,t1,a7
	.loc 1 934 179 discriminator 3
	lw	a7,0(a7)
	.loc 1 934 569 discriminator 3
	add	a1,t1,a1
	.loc 1 934 617 discriminator 3
	lw	a1,0(a1)
	.loc 1 934 179 discriminator 3
	xor	a0,a0,a7
	.loc 1 934 23 discriminator 3
	sw	a0,0(sp)
	.loc 1 934 233 is_stmt 1 discriminator 3
.LVL107:
	.loc 1 934 431 is_stmt 0 discriminator 3
	srli	a7,a4,24
	.loc 1 934 258 discriminator 3
	andi	a0,a5,255
	.loc 1 934 255 discriminator 3
	slli	a0,a0,2
	.loc 1 934 403 discriminator 3
	slli	a7,a7,2
	.loc 1 934 255 discriminator 3
	add	a0,t5,a0
	.loc 1 934 403 discriminator 3
	add	a7,t4,a7
	.loc 1 934 398 discriminator 3
	lw	a7,0(a7)
	lw	a0,0(a0)
	addi	t6,t6,32
.LVL108:
	.loc 1 934 841 discriminator 3
	slli	s1,s1,2
	.loc 1 934 398 discriminator 3
	xor	a0,a0,a7
	lw	a7,-12(t6)
	.loc 1 934 841 discriminator 3
	add	s1,t4,s1
	.loc 1 931 44 discriminator 3
	addi	t2,t2,-1
.LVL109:
	.loc 1 934 398 discriminator 3
	xor	a0,a0,a7
	xor	a0,a0,a6
	.loc 1 934 353 discriminator 3
	srli	a6,a3,14
	.loc 1 934 350 discriminator 3
	andi	a6,a6,1020
	add	a6,t1,a6
	.loc 1 934 398 discriminator 3
	lw	a6,0(a6)
	xor	a0,a0,a6
	.loc 1 934 242 discriminator 3
	sw	a0,4(sp)
	.loc 1 934 452 is_stmt 1 discriminator 3
.LVL110:
	.loc 1 934 650 is_stmt 0 discriminator 3
	srli	a6,a3,24
	.loc 1 934 477 discriminator 3
	andi	a0,a4,255
	.loc 1 934 474 discriminator 3
	slli	a0,a0,2
	.loc 1 934 622 discriminator 3
	slli	a6,a6,2
	.loc 1 934 474 discriminator 3
	add	a0,t5,a0
	.loc 1 934 622 discriminator 3
	add	a6,t4,a6
	.loc 1 934 617 discriminator 3
	lw	a6,0(a6)
	lw	a0,0(a0)
	.loc 1 934 696 discriminator 3
	andi	a3,a3,255
	.loc 1 934 693 discriminator 3
	slli	a3,a3,2
	.loc 1 934 617 discriminator 3
	xor	a0,a0,a6
	lw	a6,-8(t6)
	.loc 1 934 693 discriminator 3
	add	a3,t5,a3
	.loc 1 934 836 discriminator 3
	lw	a3,0(a3)
	.loc 1 934 617 discriminator 3
	xor	a0,a0,a6
	.loc 1 934 520 discriminator 3
	srli	a6,a5,6
	.loc 1 934 517 discriminator 3
	andi	a6,a6,1020
	add	a6,t3,a6
	.loc 1 934 617 discriminator 3
	lw	a6,0(a6)
	.loc 1 934 739 discriminator 3
	srli	a4,a4,6
	.loc 1 934 736 discriminator 3
	andi	a4,a4,1020
	.loc 1 934 617 discriminator 3
	xor	a0,a0,a6
	xor	a1,a0,a1
	.loc 1 934 461 discriminator 3
	sw	a1,8(sp)
	.loc 1 934 671 is_stmt 1 discriminator 3
.LVL111:
	.loc 1 934 836 is_stmt 0 discriminator 3
	lw	a1,-4(t6)
	.loc 1 934 791 discriminator 3
	srli	a5,a5,14
	.loc 1 934 736 discriminator 3
	add	a4,t3,a4
	.loc 1 934 836 discriminator 3
	xor	a3,a3,a1
	.loc 1 934 788 discriminator 3
	andi	a5,a5,1020
	.loc 1 934 836 discriminator 3
	lw	a1,0(s1)
	lw	a4,0(a4)
	.loc 1 934 788 discriminator 3
	add	a5,t1,a5
	.loc 1 934 836 discriminator 3
	lw	a5,0(a5)
	xor	a3,a3,a1
	xor	a4,a3,a4
	xor	a5,a4,a5
	.loc 1 934 680 discriminator 3
	sw	a5,12(sp)
	.loc 1 934 897 is_stmt 1 discriminator 3
	.loc 1 931 43 discriminator 3
.LVL112:
	j	.L42
	.cfi_endproc
.LFE11:
	.size	mbedtls_internal_aes_decrypt, .-mbedtls_internal_aes_decrypt
	.section	.text.mbedtls_aes_decrypt,"ax",@progbits
	.align	1
	.globl	mbedtls_aes_decrypt
	.type	mbedtls_aes_decrypt, @function
mbedtls_aes_decrypt:
.LFB12:
	.loc 1 978 1
	.cfi_startproc
.LVL113:
	.loc 1 979 5
	.loc 1 979 17 is_stmt 0
	tail	mbedtls_internal_aes_decrypt
.LVL114:
	.cfi_endproc
.LFE12:
	.size	mbedtls_aes_decrypt, .-mbedtls_aes_decrypt
	.section	.text.mbedtls_aes_crypt_ecb,"ax",@progbits
	.align	1
	.globl	mbedtls_aes_crypt_ecb
	.type	mbedtls_aes_crypt_ecb, @function
mbedtls_aes_crypt_ecb:
.LFB13:
	.loc 1 990 1 is_stmt 1
	.cfi_startproc
.LVL115:
	.loc 1 991 5
	.loc 1 991 10
	.loc 1 991 17
	.loc 1 992 5
	.loc 1 992 10
	.loc 1 992 17
	.loc 1 993 5
	.loc 1 993 10
	.loc 1 993 17
	.loc 1 994 5
	.loc 1 994 10
	.loc 1 994 17
	.loc 1 1014 5
	.loc 1 990 1 is_stmt 0
	mv	a4,a1
	.loc 1 1014 7
	li	a5,1
	.loc 1 990 1
	mv	a1,a2
.LVL116:
	mv	a2,a3
.LVL117:
	.loc 1 1014 7
	bne	a4,a5,.L49
	.loc 1 1015 9 is_stmt 1
	.loc 1 1015 17 is_stmt 0
	tail	mbedtls_internal_aes_encrypt
.LVL118:
.L49:
	.loc 1 1017 9 is_stmt 1
	.loc 1 1017 17 is_stmt 0
	tail	mbedtls_internal_aes_decrypt
.LVL119:
	.cfi_endproc
.LFE13:
	.size	mbedtls_aes_crypt_ecb, .-mbedtls_aes_crypt_ecb
	.section	.text.mbedtls_aes_crypt_cbc,"ax",@progbits
	.align	1
	.globl	mbedtls_aes_crypt_cbc
	.type	mbedtls_aes_crypt_cbc, @function
mbedtls_aes_crypt_cbc:
.LFB14:
	.loc 1 1030 1 is_stmt 1
	.cfi_startproc
.LVL120:
	.loc 1 1031 5
	.loc 1 1032 5
	.loc 1 1033 5
	.loc 1 1035 5
	.loc 1 1035 10
	.loc 1 1035 17
	.loc 1 1036 5
	.loc 1 1036 10
	.loc 1 1036 17
	.loc 1 1038 5
	.loc 1 1038 10
	.loc 1 1038 17
	.loc 1 1039 5
	.loc 1 1039 10
	.loc 1 1039 17
	.loc 1 1040 5
	.loc 1 1040 10
	.loc 1 1040 17
	.loc 1 1042 5
	.loc 1 1030 1 is_stmt 0
	addi	sp,sp,-80
	.cfi_def_cfa_offset 80
	sw	s0,72(sp)
	sw	ra,76(sp)
	sw	s1,68(sp)
	sw	s2,64(sp)
	sw	s3,60(sp)
	sw	s4,56(sp)
	sw	s5,52(sp)
	sw	s6,48(sp)
	sw	s7,44(sp)
	sw	s8,40(sp)
	.cfi_offset 8, -8
	.cfi_offset 1, -4
	.cfi_offset 9, -12
	.cfi_offset 18, -16
	.cfi_offset 19, -20
	.cfi_offset 20, -24
	.cfi_offset 21, -28
	.cfi_offset 22, -32
	.cfi_offset 23, -36
	.cfi_offset 24, -40
	.loc 1 1042 16
	andi	s0,a2,15
	.loc 1 1042 7
	bne	s0,zero,.L58
	mv	s6,a0
	mv	s7,a1
	mv	s2,a2
	mv	s1,a3
	mv	s5,a4
	mv	s4,a5
	.loc 1 1057 5 is_stmt 1
	.loc 1 1080 13 is_stmt 0
	li	s8,16
	.loc 1 1057 7
	bne	a1,zero,.L53
.LVL121:
.L52:
	.loc 1 1059 14
	add	a5,s0,s2
	sub	a1,s5,s0
	sub	s3,s4,s0
.LVL122:
	.loc 1 1059 14 is_stmt 1
	bne	a5,zero,.L55
.LVL123:
.L57:
	.loc 1 1093 9 is_stmt 0
	li	a0,0
.LVL124:
.L50:
	.loc 1 1097 1
	lw	ra,76(sp)
	.cfi_remember_state
	.cfi_restore 1
	lw	s0,72(sp)
	.cfi_restore 8
	lw	s1,68(sp)
	.cfi_restore 9
	lw	s2,64(sp)
	.cfi_restore 18
	lw	s3,60(sp)
	.cfi_restore 19
	lw	s4,56(sp)
	.cfi_restore 20
	lw	s5,52(sp)
	.cfi_restore 21
	lw	s6,48(sp)
	.cfi_restore 22
	lw	s7,44(sp)
	.cfi_restore 23
	lw	s8,40(sp)
	.cfi_restore 24
	addi	sp,sp,80
	.cfi_def_cfa_offset 0
	jr	ra
.LVL125:
.L55:
	.cfi_restore_state
	.loc 1 1061 13 is_stmt 1
	li	a2,16
	addi	a0,sp,16
	sw	a1,12(sp)
	call	memcpy
.LVL126:
	.loc 1 1062 13
.LBB12:
.LBB13:
	.loc 1 991 5
	.loc 1 991 10
	.loc 1 991 17
	.loc 1 992 5
	.loc 1 992 10
	.loc 1 992 17
	.loc 1 993 5
	.loc 1 993 10
	.loc 1 993 17
	.loc 1 994 5
	.loc 1 994 10
	.loc 1 994 17
	.loc 1 1014 5
	.loc 1 1017 9
	.loc 1 1017 17 is_stmt 0
	lw	a1,12(sp)
	mv	a2,s3
	mv	a0,s6
	call	mbedtls_internal_aes_decrypt
.LVL127:
.LBE13:
.LBE12:
	.loc 1 1063 13 is_stmt 1
	.loc 1 1063 15 is_stmt 0
	bne	a0,zero,.L50
	.loc 1 1066 13
	li	a3,16
.LVL128:
.L54:
	.loc 1 1067 17 is_stmt 1 discriminator 3
	add	a4,s3,a0
	.loc 1 1067 60 is_stmt 0 discriminator 3
	add	a5,s1,a0
	.loc 1 1067 29 discriminator 3
	lbu	a5,0(a5)
	lbu	a2,0(a4)
	.loc 1 1066 34 discriminator 3
	addi	a0,a0,1
.LVL129:
	.loc 1 1067 29 discriminator 3
	xor	a5,a5,a2
	.loc 1 1067 27 discriminator 3
	sb	a5,0(a4)
	.loc 1 1066 33 is_stmt 1 discriminator 3
.LVL130:
	.loc 1 1066 25 discriminator 3
	.loc 1 1066 13 is_stmt 0 discriminator 3
	bne	a0,a3,.L54
	.loc 1 1069 13 is_stmt 1
	li	a2,16
	addi	a1,sp,16
	mv	a0,s1
.LVL131:
	call	memcpy
.LVL132:
	.loc 1 1071 13
	.loc 1 1072 13
	.loc 1 1073 13
	addi	s0,s0,-16
.LVL133:
	j	.L52
.LVL134:
.L59:
	.loc 1 1080 20 is_stmt 0
	li	a6,0
.LVL135:
.L56:
	.loc 1 1081 17 is_stmt 1 discriminator 3
	.loc 1 1081 51 is_stmt 0 discriminator 3
	add	a5,a4,a6
	.loc 1 1081 59 discriminator 3
	add	a2,s1,a6
	.loc 1 1081 29 discriminator 3
	lbu	a5,0(a5)
	lbu	a2,0(a2)
	.loc 1 1081 27 discriminator 3
	add	a3,s3,a6
	.loc 1 1080 34 discriminator 3
	addi	a6,a6,1
.LVL136:
	.loc 1 1081 29 discriminator 3
	xor	a5,a5,a2
	.loc 1 1081 27 discriminator 3
	sb	a5,0(a3)
	.loc 1 1080 33 is_stmt 1 discriminator 3
.LVL137:
	.loc 1 1080 25 discriminator 3
	.loc 1 1080 13 is_stmt 0 discriminator 3
	bne	a6,s8,.L56
	.loc 1 1083 13 is_stmt 1
	.loc 1 1083 19 is_stmt 0
	mv	a3,s3
	mv	a2,s3
	mv	a1,s7
	mv	a0,s6
	call	mbedtls_aes_crypt_ecb
.LVL138:
	.loc 1 1084 13 is_stmt 1
	.loc 1 1084 15 is_stmt 0
	addi	s0,s0,-16
.LVL139:
	bne	a0,zero,.L50
	.loc 1 1086 13 is_stmt 1
	li	a2,16
	mv	a1,s3
	mv	a0,s1
.LVL140:
	call	memcpy
.LVL141:
	.loc 1 1088 13
	.loc 1 1089 13
	.loc 1 1090 13
.L53:
	.loc 1 1078 14 is_stmt 0
	add	a5,s2,s0
	sub	a4,s5,s0
	sub	s3,s4,s0
.LVL142:
	.loc 1 1078 14 is_stmt 1
	bne	a5,zero,.L59
	j	.L57
.LVL143:
.L58:
	.loc 1 1043 15 is_stmt 0
	li	a0,-34
.LVL144:
	j	.L50
	.cfi_endproc
.LFE14:
	.size	mbedtls_aes_crypt_cbc, .-mbedtls_aes_crypt_cbc
	.section	.text.mbedtls_aes_crypt_cfb128,"ax",@progbits
	.align	1
	.globl	mbedtls_aes_crypt_cfb128
	.type	mbedtls_aes_crypt_cfb128, @function
mbedtls_aes_crypt_cfb128:
.LFB15:
	.loc 1 1248 1 is_stmt 1
	.cfi_startproc
.LVL145:
	.loc 1 1249 5
	.loc 1 1250 5
	.loc 1 1251 5
	.loc 1 1253 5
	.loc 1 1253 10
	.loc 1 1253 17
	.loc 1 1254 5
	.loc 1 1254 10
	.loc 1 1254 17
	.loc 1 1256 5
	.loc 1 1256 10
	.loc 1 1256 17
	.loc 1 1257 5
	.loc 1 1257 10
	.loc 1 1257 17
	.loc 1 1258 5
	.loc 1 1258 10
	.loc 1 1258 17
	.loc 1 1259 5
	.loc 1 1259 10
	.loc 1 1259 17
	.loc 1 1261 5
	.loc 1 1248 1 is_stmt 0
	addi	sp,sp,-32
	.cfi_def_cfa_offset 32
	sw	s3,12(sp)
	sw	ra,28(sp)
	sw	s0,24(sp)
	sw	s1,20(sp)
	sw	s2,16(sp)
	sw	s4,8(sp)
	sw	s5,4(sp)
	sw	s6,0(sp)
	.cfi_offset 19, -20
	.cfi_offset 1, -4
	.cfi_offset 8, -8
	.cfi_offset 9, -12
	.cfi_offset 18, -16
	.cfi_offset 20, -24
	.cfi_offset 21, -28
	.cfi_offset 22, -32
	.loc 1 1261 7
	lw	s0,0(a3)
.LVL146:
	.loc 1 1263 5 is_stmt 1
	.loc 1 1248 1 is_stmt 0
	mv	s3,a5
	.loc 1 1263 7
	li	a5,15
.LVL147:
	bgtu	s0,a5,.L77
	mv	s5,a0
	mv	s4,a3
	mv	s2,a4
	mv	s1,a6
	.loc 1 1266 5 is_stmt 1
	add	s6,a6,a2
	.loc 1 1266 7 is_stmt 0
	beq	a1,zero,.L69
.LVL148:
.L68:
	.loc 1 1286 14 is_stmt 1
	beq	s1,s6,.L73
	.loc 1 1288 13
	.loc 1 1288 15 is_stmt 0
	beq	s0,zero,.L74
.L75:
	.loc 1 1295 13 is_stmt 1
	.loc 1 1295 52 is_stmt 0
	add	a4,s2,s0
	.loc 1 1295 33
	lbu	a5,0(a4)
	lbu	a3,0(s3)
	.loc 1 1295 28
	addi	s1,s1,1
.LVL149:
	.loc 1 1297 21
	addi	s0,s0,1
.LVL150:
	.loc 1 1295 33
	xor	a5,a5,a3
	andi	a5,a5,0xff
	.loc 1 1295 31
	sb	a5,-1(s1)
	.loc 1 1295 64
	addi	s3,s3,1
.LVL151:
	.loc 1 1295 19
	sb	a5,0(a4)
	.loc 1 1297 13 is_stmt 1
	.loc 1 1297 15 is_stmt 0
	andi	s0,s0,15
.LVL152:
	j	.L68
.L72:
	.loc 1 1270 13 is_stmt 1
	.loc 1 1270 15 is_stmt 0
	beq	s0,zero,.L70
.L71:
	.loc 1 1277 13 is_stmt 1
	.loc 1 1278 48 is_stmt 0
	add	a4,s2,s0
	.loc 1 1278 44
	lbu	a5,0(a4)
	.loc 1 1277 17
	lbu	a3,0(s3)
	.loc 1 1278 20
	addi	s1,s1,1
.LVL153:
	.loc 1 1281 21
	addi	s0,s0,1
.LVL154:
	.loc 1 1278 44
	xor	a5,a3,a5
	.loc 1 1278 23
	sb	a5,-1(s1)
	.loc 1 1277 23
	addi	s3,s3,1
.LVL155:
	.loc 1 1278 13 is_stmt 1
	.loc 1 1279 13
	.loc 1 1279 19 is_stmt 0
	sb	a3,0(a4)
	.loc 1 1281 13 is_stmt 1
	.loc 1 1281 15 is_stmt 0
	andi	s0,s0,15
.LVL156:
.L69:
	.loc 1 1268 14 is_stmt 1
	bne	s1,s6,.L72
.LVL157:
.L73:
	.loc 1 1301 5
	.loc 1 1301 13 is_stmt 0
	sw	s0,0(s4)
	.loc 1 1302 5 is_stmt 1
.LVL158:
	.loc 1 1302 9 is_stmt 0
	li	a0,0
	j	.L65
.LVL159:
.L70:
	.loc 1 1272 17 is_stmt 1
.LBB14:
.LBB15:
	.loc 1 991 5
	.loc 1 991 10
	.loc 1 991 17
	.loc 1 992 5
	.loc 1 992 10
	.loc 1 992 17
	.loc 1 993 5
	.loc 1 993 10
	.loc 1 993 17
	.loc 1 994 5
	.loc 1 994 10
	.loc 1 994 17
	.loc 1 1014 5
	.loc 1 1015 9
	.loc 1 1015 17 is_stmt 0
	mv	a2,s2
	mv	a1,s2
	mv	a0,s5
	call	mbedtls_internal_aes_encrypt
.LVL160:
.LBE15:
.LBE14:
	.loc 1 1273 17 is_stmt 1
	.loc 1 1273 19 is_stmt 0
	beq	a0,zero,.L71
.LVL161:
.L65:
	.loc 1 1306 1
	lw	ra,28(sp)
	.cfi_remember_state
	.cfi_restore 1
	lw	s0,24(sp)
	.cfi_restore 8
.LVL162:
	lw	s1,20(sp)
	.cfi_restore 9
	lw	s2,16(sp)
	.cfi_restore 18
	lw	s3,12(sp)
	.cfi_restore 19
.LVL163:
	lw	s4,8(sp)
	.cfi_restore 20
	lw	s5,4(sp)
	.cfi_restore 21
	lw	s6,0(sp)
	.cfi_restore 22
	addi	sp,sp,32
	.cfi_def_cfa_offset 0
	jr	ra
.LVL164:
.L74:
	.cfi_restore_state
	.loc 1 1290 17 is_stmt 1
.LBB16:
.LBB17:
	.loc 1 991 5
	.loc 1 991 10
	.loc 1 991 17
	.loc 1 992 5
	.loc 1 992 10
	.loc 1 992 17
	.loc 1 993 5
	.loc 1 993 10
	.loc 1 993 17
	.loc 1 994 5
	.loc 1 994 10
	.loc 1 994 17
	.loc 1 1014 5
	.loc 1 1015 9
	.loc 1 1015 17 is_stmt 0
	mv	a2,s2
	mv	a1,s2
	mv	a0,s5
	call	mbedtls_internal_aes_encrypt
.LVL165:
.LBE17:
.LBE16:
	.loc 1 1291 17 is_stmt 1
	.loc 1 1291 19 is_stmt 0
	beq	a0,zero,.L75
	j	.L65
.LVL166:
.L77:
	.loc 1 1264 15
	li	a0,-33
.LVL167:
	j	.L65
	.cfi_endproc
.LFE15:
	.size	mbedtls_aes_crypt_cfb128, .-mbedtls_aes_crypt_cfb128
	.section	.text.mbedtls_aes_crypt_cfb8,"ax",@progbits
	.align	1
	.globl	mbedtls_aes_crypt_cfb8
	.type	mbedtls_aes_crypt_cfb8, @function
mbedtls_aes_crypt_cfb8:
.LFB16:
	.loc 1 1317 1 is_stmt 1
	.cfi_startproc
.LVL168:
	addi	sp,sp,-64
	.cfi_def_cfa_offset 64
	sw	s0,56(sp)
	sw	s1,52(sp)
	sw	s2,48(sp)
	sw	s3,44(sp)
	sw	s4,40(sp)
	sw	s5,36(sp)
	sw	s6,32(sp)
	sw	ra,60(sp)
	.cfi_offset 8, -8
	.cfi_offset 9, -12
	.cfi_offset 18, -16
	.cfi_offset 19, -20
	.cfi_offset 20, -24
	.cfi_offset 21, -28
	.cfi_offset 22, -32
	.cfi_offset 1, -4
	.loc 1 1317 1 is_stmt 0
	mv	s4,a0
	mv	s3,a1
	.loc 1 1318 5 is_stmt 1
.LVL169:
	.loc 1 1319 5
	.loc 1 1320 5
	.loc 1 1322 5
	.loc 1 1322 10
	.loc 1 1322 17
	.loc 1 1323 5
	.loc 1 1323 10
	.loc 1 1323 17
	.loc 1 1325 5
	.loc 1 1325 10
	.loc 1 1325 17
	.loc 1 1326 5
	.loc 1 1326 10
	.loc 1 1326 17
	.loc 1 1327 5
	.loc 1 1327 10
	.loc 1 1327 17
	.loc 1 1328 5
	.loc 1 1317 1 is_stmt 0
	mv	s1,a3
	mv	s2,a4
	mv	s0,a5
	add	s5,a5,a2
	.loc 1 1340 11
	li	s6,1
.LVL170:
.L81:
	.loc 1 1328 10 is_stmt 1
	bne	s5,s0,.L85
	.loc 1 1345 9 is_stmt 0
	li	a0,0
.LVL171:
	.loc 1 1348 5 is_stmt 1
.L82:
.L80:
	.loc 1 1349 1 is_stmt 0
	lw	ra,60(sp)
	.cfi_remember_state
	.cfi_restore 1
	lw	s0,56(sp)
	.cfi_restore 8
.LVL172:
	lw	s1,52(sp)
	.cfi_restore 9
.LVL173:
	lw	s2,48(sp)
	.cfi_restore 18
.LVL174:
	lw	s3,44(sp)
	.cfi_restore 19
.LVL175:
	lw	s4,40(sp)
	.cfi_restore 20
.LVL176:
	lw	s5,36(sp)
	.cfi_restore 21
	lw	s6,32(sp)
	.cfi_restore 22
	addi	sp,sp,64
	.cfi_def_cfa_offset 0
	jr	ra
.LVL177:
.L85:
	.cfi_restore_state
	.loc 1 1330 9 is_stmt 1
	li	a2,16
	mv	a1,s1
	addi	a0,sp,12
	call	memcpy
.LVL178:
	.loc 1 1331 9
.LBB18:
.LBB19:
	.loc 1 991 5
	.loc 1 991 10
	.loc 1 991 17
	.loc 1 992 5
	.loc 1 992 10
	.loc 1 992 17
	.loc 1 993 5
	.loc 1 993 10
	.loc 1 993 17
	.loc 1 994 5
	.loc 1 994 10
	.loc 1 994 17
	.loc 1 1014 5
	.loc 1 1015 9
	.loc 1 1015 17 is_stmt 0
	mv	a2,s1
	mv	a1,s1
	mv	a0,s4
	call	mbedtls_internal_aes_encrypt
.LVL179:
.LBE19:
.LBE18:
	.loc 1 1332 9 is_stmt 1
	.loc 1 1332 11 is_stmt 0
	bne	a0,zero,.L80
	.loc 1 1335 9 is_stmt 1
	.loc 1 1336 22 is_stmt 0
	lbu	a5,0(s2)
	.loc 1 1335 11
	bne	s3,zero,.L83
	.loc 1 1336 13 is_stmt 1
	.loc 1 1336 20 is_stmt 0
	sb	a5,28(sp)
.L83:
	.loc 1 1338 9 is_stmt 1
	.loc 1 1338 25 is_stmt 0
	lbu	a4,0(s1)
	.loc 1 1338 20
	addi	s0,s0,1
.LVL180:
	.loc 1 1338 56
	addi	s2,s2,1
.LVL181:
	.loc 1 1338 25
	xor	a5,a5,a4
	.loc 1 1338 23
	sb	a5,-1(s0)
.LVL182:
	.loc 1 1340 9 is_stmt 1
	.loc 1 1340 11 is_stmt 0
	bne	s3,s6,.L84
	.loc 1 1341 13 is_stmt 1
	.loc 1 1341 20 is_stmt 0
	sb	a5,28(sp)
.L84:
	.loc 1 1343 9 is_stmt 1
	li	a2,16
	addi	a1,sp,13
	mv	a0,s1
.LVL183:
	call	memcpy
.LVL184:
	j	.L81
	.cfi_endproc
.LFE16:
	.size	mbedtls_aes_crypt_cfb8, .-mbedtls_aes_crypt_cfb8
	.section	.text.mbedtls_aes_crypt_ctr,"ax",@progbits
	.align	1
	.globl	mbedtls_aes_crypt_ctr
	.type	mbedtls_aes_crypt_ctr, @function
mbedtls_aes_crypt_ctr:
.LFB17:
	.loc 1 1408 1
	.cfi_startproc
.LVL185:
	.loc 1 1409 5
	.loc 1 1410 5
	.loc 1 1411 5
	.loc 1 1413 5
	.loc 1 1413 10
	.loc 1 1413 17
	.loc 1 1414 5
	.loc 1 1414 10
	.loc 1 1414 17
	.loc 1 1415 5
	.loc 1 1415 10
	.loc 1 1415 17
	.loc 1 1416 5
	.loc 1 1416 10
	.loc 1 1416 17
	.loc 1 1417 5
	.loc 1 1417 10
	.loc 1 1417 17
	.loc 1 1418 5
	.loc 1 1418 10
	.loc 1 1418 17
	.loc 1 1420 5
	.loc 1 1408 1 is_stmt 0
	addi	sp,sp,-48
	.cfi_def_cfa_offset 48
	sw	s4,24(sp)
	sw	ra,44(sp)
	sw	s0,40(sp)
	sw	s1,36(sp)
	sw	s2,32(sp)
	sw	s3,28(sp)
	sw	s5,20(sp)
	sw	s6,16(sp)
	sw	s7,12(sp)
	sw	s8,8(sp)
	.cfi_offset 20, -24
	.cfi_offset 1, -4
	.cfi_offset 8, -8
	.cfi_offset 9, -12
	.cfi_offset 18, -16
	.cfi_offset 19, -20
	.cfi_offset 21, -28
	.cfi_offset 22, -32
	.cfi_offset 23, -36
	.cfi_offset 24, -40
	.loc 1 1420 7
	lw	s0,0(a2)
.LVL186:
	.loc 1 1422 5 is_stmt 1
	.loc 1 1408 1 is_stmt 0
	mv	s4,a5
	.loc 1 1422 8
	li	a5,15
.LVL187:
	bgtu	s0,a5,.L93
	mv	s7,a0
	mv	s5,a2
	mv	s3,a3
	mv	s6,a4
	mv	s1,a6
	add	s2,a6,a1
	addi	s8,a3,15
.LVL188:
.L89:
	.loc 1 1425 10 is_stmt 1
	bne	s1,s2,.L92
	.loc 1 1442 5
	.loc 1 1442 13 is_stmt 0
	sw	s0,0(s5)
	.loc 1 1443 5 is_stmt 1
.LVL189:
	.loc 1 1443 9 is_stmt 0
	li	a0,0
.LVL190:
.L87:
	.loc 1 1447 1
	lw	ra,44(sp)
	.cfi_remember_state
	.cfi_restore 1
	lw	s0,40(sp)
	.cfi_restore 8
.LVL191:
	lw	s1,36(sp)
	.cfi_restore 9
	lw	s2,32(sp)
	.cfi_restore 18
	lw	s3,28(sp)
	.cfi_restore 19
	lw	s4,24(sp)
	.cfi_restore 20
.LVL192:
	lw	s5,20(sp)
	.cfi_restore 21
	lw	s6,16(sp)
	.cfi_restore 22
	lw	s7,12(sp)
	.cfi_restore 23
	lw	s8,8(sp)
	.cfi_restore 24
	addi	sp,sp,48
	.cfi_def_cfa_offset 0
	jr	ra
.LVL193:
.L92:
	.cfi_restore_state
	.loc 1 1427 9 is_stmt 1
	.loc 1 1427 11 is_stmt 0
	bne	s0,zero,.L90
	.loc 1 1428 13 is_stmt 1
.LVL194:
.LBB20:
.LBB21:
	.loc 1 991 5
	.loc 1 991 10
	.loc 1 991 17
	.loc 1 992 5
	.loc 1 992 10
	.loc 1 992 17
	.loc 1 993 5
	.loc 1 993 10
	.loc 1 993 17
	.loc 1 994 5
	.loc 1 994 10
	.loc 1 994 17
	.loc 1 1014 5
	.loc 1 1015 9
	.loc 1 1015 17 is_stmt 0
	mv	a2,s6
	mv	a1,s3
	mv	a0,s7
	call	mbedtls_internal_aes_encrypt
.LVL195:
.LBE21:
.LBE20:
	.loc 1 1429 13 is_stmt 1
	.loc 1 1429 15 is_stmt 0
	bne	a0,zero,.L87
	mv	a5,s8
.L91:
.LVL196:
	.loc 1 1433 17 is_stmt 1
	.loc 1 1433 21 is_stmt 0
	lbu	a6,0(a5)
	addi	a6,a6,1
	andi	a6,a6,0xff
	.loc 1 1433 19
	sb	a6,0(a5)
	bne	a6,zero,.L90
	.loc 1 1432 33 is_stmt 1 discriminator 2
.LVL197:
	.loc 1 1432 26 discriminator 2
	.loc 1 1432 13 is_stmt 0 discriminator 2
	addi	a4,a5,-1
	bne	s3,a5,.L94
.LVL198:
.L90:
	.loc 1 1436 9 is_stmt 1
	.loc 1 1437 54 is_stmt 0
	add	a5,s6,s0
	.loc 1 1437 40
	lbu	a5,0(a5)
	lbu	a4,0(s4)
	.loc 1 1437 16
	addi	s1,s1,1
.LVL199:
	.loc 1 1439 17
	addi	s0,s0,1
.LVL200:
	.loc 1 1437 40
	xor	a5,a5,a4
	.loc 1 1436 19
	addi	s4,s4,1
.LVL201:
	.loc 1 1437 9 is_stmt 1
	.loc 1 1437 19 is_stmt 0
	sb	a5,-1(s1)
	.loc 1 1439 9 is_stmt 1
	.loc 1 1439 11 is_stmt 0
	andi	s0,s0,15
.LVL202:
	j	.L89
.LVL203:
.L94:
	mv	a5,a4
.LVL204:
	j	.L91
.LVL205:
.L93:
	.loc 1 1423 15
	li	a0,-33
.LVL206:
	j	.L87
	.cfi_endproc
.LFE17:
	.size	mbedtls_aes_crypt_ctr, .-mbedtls_aes_crypt_ctr
	.section	.rodata.FSb,"a"
	.align	2
	.set	.LANCHOR1,. + 0
	.type	FSb, @object
	.size	FSb, 256
FSb:
	.string	"c|w{\362ko\3050\001g+\376\327\253v\312\202\311}\372YG\360\255\324\242\257\234\244r\300\267\375\223&6?\367\3144\245\345\361q\3301\025\004\307#\303\030\226\005\232\007\022\200\342\353'\262u\t\203,\032\033nZ\240R;\326\263)\343/\204S\321"
	.ascii	"\355 \374\261[j\313\2769JLX\317\320\357\252\373CM3\205E\371\002"
	.ascii	"\177P<\237\250Q\243@\217\222\2358\365\274\266\332!\020\377\363"
	.ascii	"\322\315\f\023\354_\227D\027\304\247~=d]\031s`\201O\334\"*\220"
	.ascii	"\210F\356\270\024\336^\013\333\3402:\nI\006$\\\302\323\254b\221"
	.ascii	"\225\344y\347\3107m\215\325N\251lV\364\352ez\256\b\272x%.\034"
	.ascii	"\246\264\306\350\335t\037K\275\213\212p>\265fH\003\366\016a5"
	.ascii	"W\271\206\301\035\236\341\370\230\021i\331\216\224\233\036\207"
	.ascii	"\351\316U(\337\214\241\211\r\277\346BhA\231-\017\260T\273\026"
	.section	.rodata.FT0,"a"
	.align	2
	.set	.LANCHOR7,. + 0
	.type	FT0, @object
	.size	FT0, 1024
FT0:
	.word	-1520213050
	.word	-2072216328
	.word	-1720223762
	.word	-1921287178
	.word	234025727
	.word	-1117033514
	.word	-1318096930
	.word	1422247313
	.word	1345335392
	.word	50397442
	.word	-1452841010
	.word	2099981142
	.word	436141799
	.word	1658312629
	.word	-424957107
	.word	-1703512340
	.word	1170918031
	.word	-1652391393
	.word	1086966153
	.word	-2021818886
	.word	368769775
	.word	-346465870
	.word	-918075506
	.word	200339707
	.word	-324162239
	.word	1742001331
	.word	-39673249
	.word	-357585083
	.word	-1080255453
	.word	-140204973
	.word	-1770884380
	.word	1539358875
	.word	-1028147339
	.word	486407649
	.word	-1366060227
	.word	1780885068
	.word	1513502316
	.word	1094664062
	.word	49805301
	.word	1338821763
	.word	1546925160
	.word	-190470831
	.word	887481809
	.word	150073849
	.word	-1821281822
	.word	1943591083
	.word	1395732834
	.word	1058346282
	.word	201589768
	.word	1388824469
	.word	1696801606
	.word	1589887901
	.word	672667696
	.word	-1583966665
	.word	251987210
	.word	-1248159185
	.word	151455502
	.word	907153956
	.word	-1686077413
	.word	1038279391
	.word	652995533
	.word	1764173646
	.word	-843926913
	.word	-1619692054
	.word	453576978
	.word	-1635548387
	.word	1949051992
	.word	773462580
	.word	756751158
	.word	-1301385508
	.word	-296068428
	.word	-73359269
	.word	-162377052
	.word	1295727478
	.word	1641469623
	.word	-827083907
	.word	2066295122
	.word	1055122397
	.word	1898917726
	.word	-1752923117
	.word	-179088474
	.word	1758581177
	.word	0
	.word	753790401
	.word	1612718144
	.word	536673507
	.word	-927878791
	.word	-312779850
	.word	-1100322092
	.word	1187761037
	.word	-641810841
	.word	1262041458
	.word	-565556588
	.word	-733197160
	.word	-396863312
	.word	1255133061
	.word	1808847035
	.word	720367557
	.word	-441800113
	.word	385612781
	.word	-985447546
	.word	-682799718
	.word	1429418854
	.word	-1803188975
	.word	-817543798
	.word	284817897
	.word	100794884
	.word	-2122350594
	.word	-263171936
	.word	1144798328
	.word	-1163944155
	.word	-475486133
	.word	-212774494
	.word	-22830243
	.word	-1069531008
	.word	-1970303227
	.word	-1382903233
	.word	-1130521311
	.word	1211644016
	.word	83228145
	.word	-541279133
	.word	-1044990345
	.word	1977277103
	.word	1663115586
	.word	806359072
	.word	452984805
	.word	250868733
	.word	1842533055
	.word	1288555905
	.word	336333848
	.word	890442534
	.word	804056259
	.word	-513843266
	.word	-1567123659
	.word	-867941240
	.word	957814574
	.word	1472513171
	.word	-223893675
	.word	-2105639172
	.word	1195195770
	.word	-1402706744
	.word	-413311558
	.word	723065138
	.word	-1787595802
	.word	-1604296512
	.word	-1736343271
	.word	-783331426
	.word	2145180835
	.word	1713513028
	.word	2116692564
	.word	-1416589253
	.word	-2088204277
	.word	-901364084
	.word	703524551
	.word	-742868885
	.word	1007948840
	.word	2044649127
	.word	-497131844
	.word	487262998
	.word	1994120109
	.word	1004593371
	.word	1446130276
	.word	1312438900
	.word	503974420
	.word	-615954030
	.word	168166924
	.word	1814307912
	.word	-463709000
	.word	1573044895
	.word	1859376061
	.word	-273896381
	.word	-1503501628
	.word	-1466855111
	.word	-1533700815
	.word	937747667
	.word	-1954973198
	.word	854058965
	.word	1137232011
	.word	1496790894
	.word	-1217565222
	.word	-1936880383
	.word	1691735473
	.word	-766620004
	.word	-525751991
	.word	-1267962664
	.word	-95005012
	.word	133494003
	.word	636152527
	.word	-1352309302
	.word	-1904575756
	.word	-374428089
	.word	403179536
	.word	-709182865
	.word	-2005370640
	.word	1864705354
	.word	1915629148
	.word	605822008
	.word	-240736681
	.word	-944458637
	.word	1371981463
	.word	602466507
	.word	2094914977
	.word	-1670089496
	.word	555687742
	.word	-582268010
	.word	-591544991
	.word	-2037675251
	.word	-2054518257
	.word	-1871679264
	.word	1111375484
	.word	-994724495
	.word	-1436129588
	.word	-666351472
	.word	84083462
	.word	32962295
	.word	302911004
	.word	-1553899070
	.word	1597322602
	.word	-111716434
	.word	-793134743
	.word	-1853454825
	.word	1489093017
	.word	656219450
	.word	-1180787161
	.word	954327513
	.word	335083755
	.word	-1281845205
	.word	856756514
	.word	-1150719534
	.word	1893325225
	.word	-1987146233
	.word	-1483434957
	.word	-1231316179
	.word	572399164
	.word	-1836611819
	.word	552200649
	.word	1238290055
	.word	-11184726
	.word	2015897680
	.word	2061492133
	.word	-1886614525
	.word	-123625127
	.word	-2138470135
	.word	386731290
	.word	-624967835
	.word	837215959
	.word	-968736124
	.word	-1201116976
	.word	-1019133566
	.word	-1332111063
	.word	1999449434
	.word	286199582
	.word	-877612933
	.word	-61582168
	.word	-692339859
	.word	974525996
	.section	.rodata.FT1,"a"
	.align	2
	.set	.LANCHOR8,. + 0
	.type	FT1, @object
	.size	FT1, 1024
FT1:
	.word	1667483301
	.word	2088564868
	.word	2004348569
	.word	2071721613
	.word	-218956019
	.word	1802229437
	.word	1869602481
	.word	-976907948
	.word	808476752
	.word	16843267
	.word	1734856361
	.word	724260477
	.word	-16849127
	.word	-673729182
	.word	-1414836762
	.word	1987505306
	.word	-892694715
	.word	-2105401443
	.word	-909539008
	.word	2105408135
	.word	-84218091
	.word	1499050731
	.word	1195871945
	.word	-252642549
	.word	-1381154324
	.word	-724257945
	.word	-1566416899
	.word	-1347467798
	.word	-1667488833
	.word	-1532734473
	.word	1920132246
	.word	-1061119141
	.word	-1212713534
	.word	-33693412
	.word	-1819066962
	.word	640044138
	.word	909536346
	.word	1061125697
	.word	-134744830
	.word	-859012273
	.word	875849820
	.word	-1515892236
	.word	-437923532
	.word	-235800312
	.word	1903288979
	.word	-656888973
	.word	825320019
	.word	353708607
	.word	67373068
	.word	-943221422
	.word	589514341
	.word	-1010590370
	.word	404238376
	.word	-1768540255
	.word	84216335
	.word	-1701171275
	.word	117902857
	.word	303178806
	.word	-2139087973
	.word	-488448195
	.word	-336868058
	.word	656887401
	.word	-1296924723
	.word	1970662047
	.word	151589403
	.word	-2088559202
	.word	741103732
	.word	437924910
	.word	454768173
	.word	1852759218
	.word	1515893998
	.word	-1600103429
	.word	1381147894
	.word	993752653
	.word	-690571423
	.word	-1280082482
	.word	690573947
	.word	-471605954
	.word	791633521
	.word	-2071719017
	.word	1397991157
	.word	-774784664
	.word	0
	.word	-303185620
	.word	538984544
	.word	-50535649
	.word	-1313769016
	.word	1532737261
	.word	1785386174
	.word	-875852474
	.word	-1094817831
	.word	960066123
	.word	1246401758
	.word	1280088276
	.word	1482207464
	.word	-808483510
	.word	-791626901
	.word	-269499094
	.word	-1431679003
	.word	-67375850
	.word	1128498885
	.word	1296931543
	.word	859006549
	.word	-2054876780
	.word	1162185423
	.word	-101062384
	.word	33686534
	.word	2139094657
	.word	1347461360
	.word	1010595908
	.word	-1616960070
	.word	-1465365533
	.word	1364304627
	.word	-1549574658
	.word	1077969088
	.word	-1886452342
	.word	-1835909203
	.word	-1650646596
	.word	943222856
	.word	-168431356
	.word	-1128504353
	.word	-1229555775
	.word	-623202443
	.word	555827811
	.word	269492272
	.word	-6886
	.word	-202113778
	.word	-757940371
	.word	-842170036
	.word	202119188
	.word	320022069
	.word	-320027857
	.word	1600110305
	.word	-1751698014
	.word	1145342156
	.word	387395129
	.word	-993750185
	.word	-1482205710
	.word	2122251394
	.word	1027439175
	.word	1684326572
	.word	1566423783
	.word	421081643
	.word	1936975509
	.word	1616953504
	.word	-2122245736
	.word	1330618065
	.word	-589520001
	.word	572671078
	.word	707417214
	.word	-1869595733
	.word	-2004350077
	.word	1179028682
	.word	-286341335
	.word	-1195873325
	.word	336865340
	.word	-555833479
	.word	1583267042
	.word	185275933
	.word	-606360202
	.word	-522134725
	.word	842163286
	.word	976909390
	.word	168432670
	.word	1229558491
	.word	101059594
	.word	606357612
	.word	1549580516
	.word	-1027432611
	.word	-741098130
	.word	-1397996561
	.word	1650640038
	.word	-1852753496
	.word	-1785384540
	.word	-454765769
	.word	2038035083
	.word	-404237006
	.word	-926381245
	.word	926379609
	.word	1835915959
	.word	-1920138868
	.word	-707415708
	.word	1313774802
	.word	-1448523296
	.word	1819072692
	.word	1448520954
	.word	-185273593
	.word	-353710299
	.word	1701169839
	.word	2054878350
	.word	-1364310039
	.word	134746136
	.word	-1162186795
	.word	2021191816
	.word	623200879
	.word	774790258
	.word	471611428
	.word	-1499047951
	.word	-1263242297
	.word	-960063663
	.word	-387396829
	.word	-572677764
	.word	1953818780
	.word	522141217
	.word	1263245021
	.word	-1111662116
	.word	-1953821306
	.word	-1970663547
	.word	1886445712
	.word	1044282434
	.word	-1246400060
	.word	1718013098
	.word	1212715224
	.word	50529797
	.word	-151587071
	.word	235805714
	.word	1633796771
	.word	892693087
	.word	1465364217
	.word	-1179031088
	.word	-2038032495
	.word	-1044276904
	.word	488454695
	.word	-1633802311
	.word	-505292488
	.word	-117904621
	.word	-1734857805
	.word	286335539
	.word	1768542907
	.word	-640046736
	.word	-1903294583
	.word	-1802226777
	.word	-1684329034
	.word	505297954
	.word	-2021190254
	.word	-370554592
	.word	-825325751
	.word	1431677695
	.word	673730680
	.word	-538991238
	.word	-1936981105
	.word	-1583261192
	.word	-1987507840
	.word	218962455
	.word	-1077975590
	.word	-421079247
	.word	1111655622
	.word	1751699640
	.word	1094812355
	.word	-1718015568
	.word	757946999
	.word	252648977
	.word	-1330611253
	.word	1414834428
	.word	-1145344554
	.word	370551866
	.section	.rodata.FT2,"a"
	.align	2
	.set	.LANCHOR9,. + 0
	.type	FT2, @object
	.size	FT2, 1024
FT2:
	.word	1673962851
	.word	2096661628
	.word	2012125559
	.word	2079755643
	.word	-218165774
	.word	1809235307
	.word	1876865391
	.word	-980331323
	.word	811618352
	.word	16909057
	.word	1741597031
	.word	727088427
	.word	-18408962
	.word	-675978537
	.word	-1420958037
	.word	1995217526
	.word	-896580150
	.word	-2111857278
	.word	-913751863
	.word	2113570685
	.word	-84994566
	.word	1504897881
	.word	1200539975
	.word	-251982864
	.word	-1388188499
	.word	-726439980
	.word	-1570767454
	.word	-1354372433
	.word	-1675378788
	.word	-1538000988
	.word	1927583346
	.word	-1063560256
	.word	-1217019209
	.word	-35578627
	.word	-1824674157
	.word	642542118
	.word	913070646
	.word	1065238847
	.word	-134937865
	.word	-863809588
	.word	879254580
	.word	-1521355611
	.word	-439274267
	.word	-235337487
	.word	1910674289
	.word	-659852328
	.word	828527409
	.word	355090197
	.word	67636228
	.word	-946515257
	.word	591815971
	.word	-1013096765
	.word	405809176
	.word	-1774739050
	.word	84545285
	.word	-1708149350
	.word	118360327
	.word	304363026
	.word	-2145674368
	.word	-488686110
	.word	-338876693
	.word	659450151
	.word	-1300247118
	.word	1978310517
	.word	152181513
	.word	-2095210877
	.word	743994412
	.word	439627290
	.word	456535323
	.word	1859957358
	.word	1521806938
	.word	-1604584544
	.word	1386542674
	.word	997608763
	.word	-692624938
	.word	-1283600717
	.word	693271337
	.word	-472039709
	.word	794718511
	.word	-2079090812
	.word	1403450707
	.word	-776378159
	.word	0
	.word	-306107155
	.word	541089824
	.word	-52224004
	.word	-1317418831
	.word	1538714971
	.word	1792327274
	.word	-879933749
	.word	-1100490306
	.word	963791673
	.word	1251270218
	.word	1285084236
	.word	1487988824
	.word	-813348145
	.word	-793023536
	.word	-272291089
	.word	-1437604438
	.word	-68348165
	.word	1132905795
	.word	1301993293
	.word	862344499
	.word	-2062445435
	.word	1166724933
	.word	-102166279
	.word	33818114
	.word	2147385727
	.word	1352724560
	.word	1014514748
	.word	-1624917345
	.word	-1471421528
	.word	1369633617
	.word	-1554121053
	.word	1082179648
	.word	-1895462257
	.word	-1841320558
	.word	-1658733411
	.word	946882616
	.word	-168753931
	.word	-1134305348
	.word	-1233665610
	.word	-626035238
	.word	557998881
	.word	270544912
	.word	-1762561
	.word	-201519373
	.word	-759206446
	.word	-847164211
	.word	202904588
	.word	321271059
	.word	-322752532
	.word	1606345055
	.word	-1758092649
	.word	1149815876
	.word	388905239
	.word	-996976700
	.word	-1487539545
	.word	2130477694
	.word	1031423805
	.word	1690872932
	.word	1572530013
	.word	422718233
	.word	1944491379
	.word	1623236704
	.word	-2129028991
	.word	1335808335
	.word	-593264676
	.word	574907938
	.word	710180394
	.word	-1875137648
	.word	-2012511352
	.word	1183631942
	.word	-288937490
	.word	-1200893000
	.word	338181140
	.word	-559449634
	.word	1589437022
	.word	185998603
	.word	-609388837
	.word	-522503200
	.word	845436466
	.word	980700730
	.word	169090570
	.word	1234361161
	.word	101452294
	.word	608726052
	.word	1555620956
	.word	-1029743166
	.word	-742560045
	.word	-1404833876
	.word	1657054818
	.word	-1858492271
	.word	-1791908715
	.word	-455919644
	.word	2045938553
	.word	-405458201
	.word	-930397240
	.word	929978679
	.word	1843050349
	.word	-1929278323
	.word	-709794603
	.word	1318900302
	.word	-1454776151
	.word	1826141292
	.word	1454176854
	.word	-185399308
	.word	-355523094
	.word	1707781989
	.word	2062847610
	.word	-1371018834
	.word	135272456
	.word	-1167075910
	.word	2029029496
	.word	625635109
	.word	777810478
	.word	473441308
	.word	-1504185946
	.word	-1267480652
	.word	-963161658
	.word	-389340184
	.word	-576619299
	.word	1961401460
	.word	524165407
	.word	1268178251
	.word	-1117659971
	.word	-1962047861
	.word	-1978694262
	.word	1893765232
	.word	1048330814
	.word	-1250835275
	.word	1724688998
	.word	1217452104
	.word	50726147
	.word	-151584266
	.word	236720654
	.word	1640145761
	.word	896163637
	.word	1471084887
	.word	-1184247623
	.word	-2045275770
	.word	-1046914879
	.word	490350365
	.word	-1641563746
	.word	-505857823
	.word	-118811656
	.word	-1741966440
	.word	287453969
	.word	1775418217
	.word	-643206951
	.word	-1912108658
	.word	-1808554092
	.word	-1691502949
	.word	507257374
	.word	-2028629369
	.word	-372694807
	.word	-829994546
	.word	1437269845
	.word	676362280
	.word	-542803233
	.word	-1945923700
	.word	-1587939167
	.word	-1995865975
	.word	219813645
	.word	-1083843905
	.word	-422104602
	.word	1115997762
	.word	1758509160
	.word	1099088705
	.word	-1725321063
	.word	760903469
	.word	253628687
	.word	-1334064208
	.word	1420360788
	.word	-1150429509
	.word	371997206
	.section	.rodata.FT3,"a"
	.align	2
	.set	.LANCHOR6,. + 0
	.type	FT3, @object
	.size	FT3, 1024
FT3:
	.word	-962239645
	.word	-125535108
	.word	-291932297
	.word	-158499973
	.word	-15863054
	.word	-692229269
	.word	-558796945
	.word	-1856715323
	.word	1615867952
	.word	33751297
	.word	-827758745
	.word	1451043627
	.word	-417726722
	.word	-1251813417
	.word	1306962859
	.word	-325421450
	.word	-1891251510
	.word	530416258
	.word	-1992242743
	.word	-91783811
	.word	-283772166
	.word	-1293199015
	.word	-1899411641
	.word	-83103504
	.word	1106029997
	.word	-1285040940
	.word	1610457762
	.word	1173008303
	.word	599760028
	.word	1408738468
	.word	-459902350
	.word	-1688485696
	.word	1975695287
	.word	-518193667
	.word	1034851219
	.word	1282024998
	.word	1817851446
	.word	2118205247
	.word	-184354825
	.word	-2091922228
	.word	1750873140
	.word	1374987685
	.word	-785062427
	.word	-116854287
	.word	-493653647
	.word	-1418471208
	.word	1649619249
	.word	708777237
	.word	135005188
	.word	-1789737017
	.word	1181033251
	.word	-1654733885
	.word	807933976
	.word	933336726
	.word	168756485
	.word	800430746
	.word	235472647
	.word	607523346
	.word	463175808
	.word	-549592350
	.word	-853087253
	.word	1315514151
	.word	2144187058
	.word	-358648459
	.word	303761673
	.word	496927619
	.word	1484008492
	.word	875436570
	.word	908925723
	.word	-592286098
	.word	-1259447718
	.word	1543217312
	.word	-1527360942
	.word	1984772923
	.word	-1218324778
	.word	2110698419
	.word	1383803177
	.word	-583080989
	.word	1584475951
	.word	328696964
	.word	-1493871789
	.word	-1184312879
	.word	0
	.word	-1054020115
	.word	1080041504
	.word	-484442884
	.word	2043195825
	.word	-1225958565
	.word	-725718422
	.word	-1924740149
	.word	1742323390
	.word	1917532473
	.word	-1797371318
	.word	-1730917300
	.word	-1326950312
	.word	-2058694705
	.word	-1150562096
	.word	-987041809
	.word	1340451498
	.word	-317260805
	.word	-2033892541
	.word	-1697166003
	.word	1716859699
	.word	294946181
	.word	-1966127803
	.word	-384763399
	.word	67502594
	.word	-25067649
	.word	-1594863536
	.word	2017737788
	.word	632987551
	.word	1273211048
	.word	-1561112239
	.word	1576969123
	.word	-2134884288
	.word	92966799
	.word	1068339858
	.word	566009245
	.word	1883781176
	.word	-251333131
	.word	1675607228
	.word	2009183926
	.word	-1351230758
	.word	1113792801
	.word	540020752
	.word	-451215361
	.word	-49351693
	.word	-1083321646
	.word	-2125673011
	.word	403966988
	.word	641012499
	.word	-1020269332
	.word	-1092526241
	.word	899848087
	.word	-1999879100
	.word	775493399
	.word	-1822964540
	.word	1441965991
	.word	-58556802
	.word	2051489085
	.word	-928226204
	.word	-1159242403
	.word	841685273
	.word	-426413197
	.word	-1063231392
	.word	429425025
	.word	-1630449841
	.word	-1551901476
	.word	1147544098
	.word	1417554474
	.word	1001099408
	.word	193169544
	.word	-1932900794
	.word	-953553170
	.word	1809037496
	.word	675025940
	.word	-1485185314
	.word	-1126015394
	.word	371002123
	.word	-1384719397
	.word	-616832800
	.word	1683370546
	.word	1951283770
	.word	337512970
	.word	-1831122615
	.word	201983494
	.word	1215046692
	.word	-1192993700
	.word	-1621245246
	.word	-1116810285
	.word	1139780780
	.word	-995728798
	.word	967348625
	.word	832869781
	.word	-751311644
	.word	-225740423
	.word	-718084121
	.word	-1958491960
	.word	1851340599
	.word	-625513107
	.word	25988493
	.word	-1318791723
	.word	-1663938994
	.word	1239460265
	.word	-659264404
	.word	-1392880042
	.word	-217582348
	.word	-819598614
	.word	-894474907
	.word	-191989126
	.word	1206496942
	.word	270010376
	.word	1876277946
	.word	-259491720
	.word	1248797989
	.word	1550986798
	.word	941890588
	.word	1475454630
	.word	1942467764
	.word	-1756248378
	.word	-886839064
	.word	-1585652259
	.word	-392399756
	.word	1042358047
	.word	-1763882165
	.word	1641856445
	.word	226921355
	.word	260409994
	.word	-527404944
	.word	2084716094
	.word	1908716981
	.word	-861247898
	.word	-1864873912
	.word	100991747
	.word	-150866186
	.word	470945294
	.word	-1029480095
	.word	1784624437
	.word	-1359390889
	.word	1775286713
	.word	395413126
	.word	-1722236479
	.word	975641885
	.word	666476190
	.word	-650583583
	.word	-351012616
	.word	733190296
	.word	573772049
	.word	-759469719
	.word	-1452221991
	.word	126455438
	.word	866620564
	.word	766942107
	.word	1008868894
	.word	361924487
	.word	-920589847
	.word	-2025206066
	.word	-1426107051
	.word	1350051880
	.word	-1518673953
	.word	59739276
	.word	1509466529
	.word	159418761
	.word	437718285
	.word	1708834751
	.word	-684595482
	.word	-2067381694
	.word	-793221016
	.word	-2101132991
	.word	699439513
	.word	1517759789
	.word	504434447
	.word	2076946608
	.word	-1459858348
	.word	1842789307
	.word	742004246
	.section	.rodata.RCON,"a"
	.align	2
	.set	.LANCHOR0,. + 0
	.type	RCON, @object
	.size	RCON, 40
RCON:
	.word	1
	.word	2
	.word	4
	.word	8
	.word	16
	.word	32
	.word	64
	.word	128
	.word	27
	.word	54
	.section	.rodata.RSb,"a"
	.align	2
	.set	.LANCHOR10,. + 0
	.type	RSb, @object
	.size	RSb, 256
RSb:
	.string	"R\tj\32506\2458\277@\243\236\201\363\327\373|\3439\202\233/\377\2074\216CD\304\336\351\313T{\2242\246\302#=\356L\225\013B\372\303N\b.\241f(\331$\262v[\242Im\213\321%r\370\366d\206h\230\026\324\244\\\314]e\266\222lpHP\375\355\271\332^\025FW\247\215\235\204\220\330\253"
	.ascii	"\214\274\323\n\367\344X\005\270\263E\006\320,\036\217\312?\017"
	.ascii	"\002\301\257\275\003\001\023\212k:\221\021AOg\334\352\227\362"
	.ascii	"\317\316\360\264\346s\226\254t\"\347\2555\205\342\3717\350\034"
	.ascii	"u\337nG\361\032q\035)\305\211o\267b\016\252\030\276\033\374V"
	.ascii	">K\306\322y \232\333\300\376x\315Z\364\037\335\2503\210\007\307"
	.ascii	"1\261\022\020Y'\200\354_`Q\177\251\031\265J\r-\345z\237\223\311"
	.ascii	"\234\357\240\340;M\256*\365\260\310\353\273<\203S\231a\027+\004"
	.ascii	"~\272w\326&\341i\024cU!\f}"
	.section	.rodata.RT0,"a"
	.align	2
	.set	.LANCHOR2,. + 0
	.type	RT0, @object
	.size	RT0, 1024
RT0:
	.word	1353184337
	.word	1399144830
	.word	-1012656358
	.word	-1772214470
	.word	-882136261
	.word	-247096033
	.word	-1420232020
	.word	-1828461749
	.word	1442459680
	.word	-160598355
	.word	-1854485368
	.word	625738485
	.word	-52959921
	.word	-674551099
	.word	-2143013594
	.word	-1885117771
	.word	1230680542
	.word	1729870373
	.word	-1743852987
	.word	-507445667
	.word	41234371
	.word	317738113
	.word	-1550367091
	.word	-956705941
	.word	-413167869
	.word	-1784901099
	.word	-344298049
	.word	-631680363
	.word	763608788
	.word	-752782248
	.word	694804553
	.word	1154009486
	.word	1787413109
	.word	2021232372
	.word	1799248025
	.word	-579749593
	.word	-1236278850
	.word	397248752
	.word	1722556617
	.word	-1271214467
	.word	407560035
	.word	-2110711067
	.word	1613975959
	.word	1165972322
	.word	-529046351
	.word	-2068943941
	.word	480281086
	.word	-1809118983
	.word	1483229296
	.word	436028815
	.word	-2022908268
	.word	-1208452270
	.word	601060267
	.word	-503166094
	.word	1468997603
	.word	715871590
	.word	120122290
	.word	63092015
	.word	-1703164538
	.word	-1526188077
	.word	-226023376
	.word	-1297760477
	.word	-1167457534
	.word	1552029421
	.word	723308426
	.word	-1833666137
	.word	-252573709
	.word	-1578997426
	.word	-839591323
	.word	-708967162
	.word	526529745
	.word	-1963022652
	.word	-1655493068
	.word	-1604979806
	.word	853641733
	.word	1978398372
	.word	971801355
	.word	-1427152832
	.word	111112542
	.word	1360031421
	.word	-108388034
	.word	1023860118
	.word	-1375387939
	.word	1186850381
	.word	-1249028975
	.word	90031217
	.word	1876166148
	.word	-15380384
	.word	620468249
	.word	-1746289194
	.word	-868007799
	.word	2006899047
	.word	-1119688528
	.word	-2004121337
	.word	945494503
	.word	-605108103
	.word	1191869601
	.word	-384875908
	.word	-920746760
	.word	0
	.word	-2088337399
	.word	1223502642
	.word	-1401941730
	.word	1316117100
	.word	-67170563
	.word	1446544655
	.word	517320253
	.word	658058550
	.word	1691946762
	.word	564550760
	.word	-783000677
	.word	976107044
	.word	-1318647284
	.word	266819475
	.word	-761860428
	.word	-1634624741
	.word	1338359936
	.word	-1574904735
	.word	1766553434
	.word	370807324
	.word	179999714
	.word	-450191168
	.word	1138762300
	.word	488053522
	.word	185403662
	.word	-1379431438
	.word	-1180125651
	.word	-928440812
	.word	-2061897385
	.word	1275557295
	.word	-1143105042
	.word	-44007517
	.word	-1624899081
	.word	-1124765092
	.word	-985962940
	.word	880737115
	.word	1982415755
	.word	-590994485
	.word	1761406390
	.word	1676797112
	.word	-891538985
	.word	277177154
	.word	1076008723
	.word	538035844
	.word	2099530373
	.word	-130171950
	.word	288553390
	.word	1839278535
	.word	1261411869
	.word	-214912292
	.word	-330136051
	.word	-790380169
	.word	1813426987
	.word	-1715900247
	.word	-95906799
	.word	577038663
	.word	-997393240
	.word	440397984
	.word	-668172970
	.word	-275762398
	.word	-951170681
	.word	-1043253031
	.word	-22885748
	.word	906744984
	.word	-813566554
	.word	685669029
	.word	646887386
	.word	-1530942145
	.word	-459458004
	.word	227702864
	.word	-1681105046
	.word	1648787028
	.word	-1038905866
	.word	-390539120
	.word	1593260334
	.word	-173030526
	.word	-1098883681
	.word	2090061929
	.word	-1456614033
	.word	-1290656305
	.word	999926984
	.word	-1484974064
	.word	1852021992
	.word	2075868123
	.word	158869197
	.word	-199730834
	.word	28809964
	.word	-1466282109
	.word	1701746150
	.word	2129067946
	.word	147831841
	.word	-420997649
	.word	-644094022
	.word	-835293366
	.word	-737566742
	.word	-696471511
	.word	-1347247055
	.word	824393514
	.word	815048134
	.word	-1067015627
	.word	935087732
	.word	-1496677636
	.word	-1328508704
	.word	366520115
	.word	1251476721
	.word	-136647615
	.word	240176511
	.word	804688151
	.word	-1915335306
	.word	1303441219
	.word	1414376140
	.word	-553347356
	.word	-474623586
	.word	461924940
	.word	-1205916479
	.word	2136040774
	.word	82468509
	.word	1563790337
	.word	1937016826
	.word	776014843
	.word	1511876531
	.word	1389550482
	.word	861278441
	.word	323475053
	.word	-1939744870
	.word	2047648055
	.word	-1911228327
	.word	-1992551445
	.word	-299390514
	.word	902390199
	.word	-303751967
	.word	1018251130
	.word	1507840668
	.word	1064563285
	.word	2043548696
	.word	-1086863501
	.word	-355600557
	.word	1537932639
	.word	342834655
	.word	-2032450440
	.word	-2114736182
	.word	1053059257
	.word	741614648
	.word	1598071746
	.word	1925389590
	.word	203809468
	.word	-1958134744
	.word	1100287487
	.word	1895934009
	.word	-558691320
	.word	-1662733096
	.word	-1866377628
	.word	1636092795
	.word	1890988757
	.word	1952214088
	.word	1113045200
	.section	.rodata.RT1,"a"
	.align	2
	.set	.LANCHOR4,. + 0
	.type	RT1, @object
	.size	RT1, 1024
RT1:
	.word	-1477160624
	.word	1698790995
	.word	-1541989693
	.word	1579629206
	.word	1806384075
	.word	1167925233
	.word	1492823211
	.word	65227667
	.word	-97509291
	.word	1836494326
	.word	1993115793
	.word	1275262245
	.word	-672837636
	.word	-886389289
	.word	1144333952
	.word	-1553812081
	.word	1521606217
	.word	465184103
	.word	250234264
	.word	-1057071647
	.word	1966064386
	.word	-263421678
	.word	-1756983901
	.word	-103584826
	.word	1603208167
	.word	-1668147819
	.word	2054012907
	.word	1498584538
	.word	-2084645843
	.word	561273043
	.word	1776306473
	.word	-926314940
	.word	-1983744662
	.word	2039411832
	.word	1045993835
	.word	1907959773
	.word	1340194486
	.word	-1383534569
	.word	-1407137434
	.word	986611124
	.word	1256153880
	.word	823846274
	.word	860985184
	.word	2136171077
	.word	2003087840
	.word	-1368671356
	.word	-1602093540
	.word	722008468
	.word	1749577816
	.word	-45773031
	.word	1826526343
	.word	-126135625
	.word	-747394269
	.word	38499042
	.word	-1893735593
	.word	-1420466646
	.word	686535175
	.word	-1028313341
	.word	2076542618
	.word	137876389
	.word	-2027409166
	.word	-1514200142
	.word	1778582202
	.word	-2112426660
	.word	483363371
	.word	-1267095662
	.word	-234359824
	.word	-496415071
	.word	-187013683
	.word	-1106966827
	.word	1647628575
	.word	-22625142
	.word	1395537053
	.word	1442030240
	.word	-511048398
	.word	-336157579
	.word	-326956231
	.word	-278904662
	.word	-1619960314
	.word	275692881
	.word	-1977532679
	.word	115185213
	.word	88006062
	.word	-1108980410
	.word	-1923837515
	.word	1573155077
	.word	-737803153
	.word	357589247
	.word	-73918172
	.word	-373434729
	.word	1128303052
	.word	-1629919369
	.word	1122545853
	.word	-1953953912
	.word	1528424248
	.word	-288851493
	.word	175939911
	.word	256015593
	.word	512030921
	.word	0
	.word	-2038429309
	.word	-315936184
	.word	1880170156
	.word	1918528590
	.word	-15794693
	.word	948244310
	.word	-710001378
	.word	959264295
	.word	-653325724
	.word	-1503893471
	.word	1415289809
	.word	775300154
	.word	1728711857
	.word	-413691121
	.word	-1762741038
	.word	-1852105826
	.word	-977239985
	.word	551313826
	.word	1266113129
	.word	437394454
	.word	-1164713462
	.word	715178213
	.word	-534627261
	.word	387650077
	.word	218697227
	.word	-947129683
	.word	-1464455751
	.word	-1457646392
	.word	435246981
	.word	125153100
	.word	-577114437
	.word	1618977789
	.word	637663135
	.word	-177054532
	.word	996558021
	.word	2130402100
	.word	692292470
	.word	-970732580
	.word	-51530136
	.word	-236668829
	.word	-600713270
	.word	-2057092592
	.word	580326208
	.word	298222624
	.word	608863613
	.word	1035719416
	.word	855223825
	.word	-1591097491
	.word	798891339
	.word	817028339
	.word	1384517100
	.word	-473860144
	.word	380840812
	.word	-1183798887
	.word	1217663482
	.word	1693009698
	.word	-1929598780
	.word	1072734234
	.word	746411736
	.word	-1875696913
	.word	1313441735
	.word	-784803391
	.word	-1563783938
	.word	198481974
	.word	-2114607409
	.word	-562387672
	.word	-1900553690
	.word	-1079165020
	.word	-1657131804
	.word	-1837608947
	.word	-866162021
	.word	1182684258
	.word	328070850
	.word	-1193766680
	.word	-147247522
	.word	-1346141451
	.word	-2141347906
	.word	-1815058052
	.word	768962473
	.word	304467891
	.word	-1716729797
	.word	2098729127
	.word	1671227502
	.word	-1153705093
	.word	2015808777
	.word	408514292
	.word	-1214583807
	.word	-1706064984
	.word	1855317605
	.word	-419452290
	.word	-809754360
	.word	-401215514
	.word	-1679312167
	.word	913263310
	.word	161475284
	.word	2091919830
	.word	-1297862225
	.word	591342129
	.word	-1801075152
	.word	1721906624
	.word	-1135709129
	.word	-897385306
	.word	-795811664
	.word	-660131051
	.word	-1744506550
	.word	-622050825
	.word	1355644686
	.word	-158263505
	.word	-699566451
	.word	-1326496947
	.word	1303039060
	.word	76997855
	.word	-1244553501
	.word	-2006299621
	.word	523026872
	.word	1365591679
	.word	-362898172
	.word	898367837
	.word	1955068531
	.word	1091304238
	.word	493335386
	.word	-757362094
	.word	1443948851
	.word	1205234963
	.word	1641519756
	.word	211892090
	.word	351820174
	.word	1007938441
	.word	665439982
	.word	-916342987
	.word	-451091987
	.word	-1320715716
	.word	-539845543
	.word	1945261375
	.word	-837543815
	.word	935818175
	.word	-839429142
	.word	-1426235557
	.word	1866325780
	.word	-616269690
	.word	-206583167
	.word	-999769794
	.word	874788908
	.word	1084473951
	.word	-1021503886
	.word	635616268
	.word	1228679307
	.word	-1794244799
	.word	27801969
	.word	-1291056930
	.word	-457910116
	.word	-1051302768
	.word	-2067039391
	.word	-1238182544
	.word	1550600308
	.word	1471729730
	.section	.rodata.RT2,"a"
	.align	2
	.set	.LANCHOR5,. + 0
	.type	RT2, @object
	.size	RT2, 1024
RT2:
	.word	-195997529
	.word	1098797925
	.word	387629988
	.word	658151006
	.word	-1422144661
	.word	-1658851003
	.word	-89347240
	.word	-481586429
	.word	807425530
	.word	1991112301
	.word	-863465098
	.word	49620300
	.word	-447742761
	.word	717608907
	.word	891715652
	.word	1656065955
	.word	-1310832294
	.word	-1171953893
	.word	-364537842
	.word	-27401792
	.word	801309301
	.word	1283527408
	.word	1183687575
	.word	-747911431
	.word	-1895569569
	.word	-1844079204
	.word	1841294202
	.word	1385552473
	.word	-1093390973
	.word	1951978273
	.word	-532076183
	.word	-913423160
	.word	-1032492407
	.word	-1896580999
	.word	1486449470
	.word	-1188569743
	.word	-507595185
	.word	-1997531219
	.word	550069932
	.word	-830622662
	.word	-547153846
	.word	451248689
	.word	1368875059
	.word	1398949247
	.word	1689378935
	.word	1807451310
	.word	-2114052960
	.word	150574123
	.word	1215322216
	.word	1167006205
	.word	-560691348
	.word	2069018616
	.word	1940595667
	.word	1265820162
	.word	534992783
	.word	1432758955
	.word	-340654296
	.word	-1255210046
	.word	-981034373
	.word	936617224
	.word	674296455
	.word	-1088179547
	.word	50510442
	.word	384654466
	.word	-813028580
	.word	2041025204
	.word	133427442
	.word	1766760930
	.word	-630862348
	.word	84334014
	.word	886120290
	.word	-1497068802
	.word	775200083
	.word	-207445931
	.word	-1979370783
	.word	-156994069
	.word	-2096416276
	.word	1614850799
	.word	1901987487
	.word	1857900816
	.word	557775242
	.word	-577356538
	.word	1054715397
	.word	-431143235
	.word	1418835341
	.word	-999226019
	.word	100954068
	.word	1348534037
	.word	-1743182597
	.word	-1110009879
	.word	1082772547
	.word	-647530594
	.word	-391070398
	.word	-1995994997
	.word	434583643
	.word	-931537938
	.word	2090944266
	.word	1115482383
	.word	-2064070370
	.word	0
	.word	-2146860154
	.word	724715757
	.word	287222896
	.word	1517047410
	.word	251526143
	.word	-2062592456
	.word	-1371726123
	.word	758523705
	.word	252339417
	.word	1550328230
	.word	1536938324
	.word	908343854
	.word	168604007
	.word	1469255655
	.word	-290139498
	.word	-1692688751
	.word	-1065332795
	.word	-597581280
	.word	2002413899
	.word	303830554
	.word	-1813902662
	.word	-1597971158
	.word	574374880
	.word	454171927
	.word	151915277
	.word	-1947030073
	.word	-1238517336
	.word	504678569
	.word	-245922535
	.word	1974422535
	.word	-1712407587
	.word	2141453664
	.word	33005350
	.word	1918680309
	.word	1715782971
	.word	-77908866
	.word	1133213225
	.word	600562886
	.word	-306812676
	.word	-457677839
	.word	836225756
	.word	1665273989
	.word	-1760346078
	.word	-964419567
	.word	1250262308
	.word	-1143801795
	.word	-106032846
	.word	700935585
	.word	-1642247377
	.word	-1294142672
	.word	-2045907886
	.word	-1049112349
	.word	-1288999914
	.word	1890163129
	.word	-1810761144
	.word	-381214108
	.word	-56048500
	.word	-257942977
	.word	2102843436
	.word	857927568
	.word	1233635150
	.word	953795025
	.word	-896729438
	.word	-728222197
	.word	-173617279
	.word	2057644254
	.word	-1210440050
	.word	-1388337985
	.word	976020637
	.word	2018512274
	.word	1600822220
	.word	2119459398
	.word	-1913208301
	.word	-661591880
	.word	959340279
	.word	-1014827601
	.word	1570750080
	.word	-798393197
	.word	-714102483
	.word	634368786
	.word	-1396163687
	.word	403744637
	.word	-1662488989
	.word	1004239803
	.word	650971512
	.word	1500443672
	.word	-1695809097
	.word	1334028442
	.word	-1780062866
	.word	-5603610
	.word	-1138685745
	.word	368043752
	.word	-407184997
	.word	1867173430
	.word	-1612000247
	.word	-1339435396
	.word	-1540247630
	.word	1059729699
	.word	-1513738092
	.word	-1573535642
	.word	1316239292
	.word	-2097371446
	.word	-1864322864
	.word	-1489824296
	.word	82922136
	.word	-331221030
	.word	-847311280
	.word	-1860751370
	.word	1299615190
	.word	-280801872
	.word	-1429449651
	.word	-1763385596
	.word	-778116171
	.word	1783372680
	.word	750893087
	.word	1699118929
	.word	1587348714
	.word	-1946067659
	.word	-2013629580
	.word	201010753
	.word	1739807261
	.word	-611167534
	.word	283718486
	.word	-697494713
	.word	-677737375
	.word	-1590199796
	.word	-128348652
	.word	334203196
	.word	-1446056409
	.word	1639396809
	.word	484568549
	.word	1199193265
	.word	-761505313
	.word	-229294221
	.word	337148366
	.word	-948715721
	.word	-145495347
	.word	-44082262
	.word	1038029935
	.word	1148749531
	.word	-1345682957
	.word	1756970692
	.word	607661108
	.word	-1547542720
	.word	488010435
	.word	-490992603
	.word	1009290057
	.word	234832277
	.word	-1472630527
	.word	201907891
	.word	-1260872476
	.word	1449431233
	.word	-881106556
	.word	852848822
	.word	1816687708
	.word	-1194311081
	.section	.rodata.RT3,"a"
	.align	2
	.set	.LANCHOR3,. + 0
	.type	RT3, @object
	.size	RT3, 1024
RT3:
	.word	1364240372
	.word	2119394625
	.word	449029143
	.word	982933031
	.word	1003187115
	.word	535905693
	.word	-1398056710
	.word	1267925987
	.word	542505520
	.word	-1376359050
	.word	-2003732788
	.word	-182105086
	.word	1341970405
	.word	-975713494
	.word	645940277
	.word	-1248877726
	.word	-565617999
	.word	627514298
	.word	1167593194
	.word	1575076094
	.word	-1023249105
	.word	-2129465268
	.word	-1918658746
	.word	1808202195
	.word	65494927
	.word	362126482
	.word	-1075086739
	.word	-1780852398
	.word	-735214658
	.word	1490231668
	.word	1227450848
	.word	-1908094775
	.word	1969916354
	.word	-193431154
	.word	-1721024936
	.word	668823993
	.word	-1095348255
	.word	-266883704
	.word	-916018144
	.word	2108963534
	.word	1662536415
	.word	-444452582
	.word	-1755303087
	.word	1648721747
	.word	-1310689436
	.word	-1148932501
	.word	-31678335
	.word	-107730168
	.word	1884842056
	.word	-1894122171
	.word	-1803064098
	.word	1387788411
	.word	-1423715469
	.word	1927414347
	.word	-480800993
	.word	1714072405
	.word	-1308153621
	.word	788775605
	.word	-2036696123
	.word	-744159177
	.word	821200680
	.word	598910399
	.word	45771267
	.word	-312704490
	.word	-1976886065
	.word	-1483557767
	.word	-202313209
	.word	1319232105
	.word	1707996378
	.word	114671109
	.word	-786472396
	.word	-997523802
	.word	882725678
	.word	-1566550541
	.word	87220618
	.word	-1535775754
	.word	188345475
	.word	1084944224
	.word	1577492337
	.word	-1118760850
	.word	1056541217
	.word	-1774385443
	.word	-575797954
	.word	1296481766
	.word	-1850372780
	.word	1896177092
	.word	74437638
	.word	1627329872
	.word	421854104
	.word	-694687299
	.word	-1983102144
	.word	1735892697
	.word	-1329773848
	.word	126389129
	.word	-415737063
	.word	2044456648
	.word	-1589179780
	.word	2095648578
	.word	-121037180
	.word	0
	.word	159614592
	.word	843640107
	.word	514617361
	.word	1817080410
	.word	-33816818
	.word	257308805
	.word	1025430958
	.word	908540205
	.word	174381327
	.word	1747035740
	.word	-1680780197
	.word	607792694
	.word	212952842
	.word	-1827674281
	.word	-1261267218
	.word	463376795
	.word	-2142255680
	.word	1638015196
	.word	1516850039
	.word	471210514
	.word	-502613357
	.word	-1058723168
	.word	1011081250
	.word	303896347
	.word	235605257
	.word	-223492213
	.word	767142070
	.word	348694814
	.word	1468340721
	.word	-1353971851
	.word	-289677927
	.word	-1543675777
	.word	-140564991
	.word	1555887474
	.word	1153776486
	.word	1530167035
	.word	-1955190461
	.word	-874723805
	.word	-1234633491
	.word	-1201409564
	.word	-674571215
	.word	1108378979
	.word	322970263
	.word	-2078273082
	.word	-2055396278
	.word	-755483205
	.word	-1374604551
	.word	-949116631
	.word	491466654
	.word	-588042062
	.word	233591430
	.word	2010178497
	.word	728503987
	.word	-1449543312
	.word	301615252
	.word	1193436393
	.word	-1463513860
	.word	-1608892432
	.word	1457007741
	.word	586125363
	.word	-2016981431
	.word	-641609416
	.word	-1929469238
	.word	-1741288492
	.word	-1496350219
	.word	-1524048262
	.word	-635007305
	.word	1067761581
	.word	753179962
	.word	1343066744
	.word	1788595295
	.word	1415726718
	.word	-155053171
	.word	-1863796520
	.word	777975609
	.word	-2097827901
	.word	-1614905251
	.word	1769771984
	.word	1873358293
	.word	-810347995
	.word	-935618132
	.word	279411992
	.word	-395418724
	.word	-612648133
	.word	-855017434
	.word	1861490777
	.word	-335431782
	.word	-2086102449
	.word	-429560171
	.word	-1434523905
	.word	554225596
	.word	-270079979
	.word	-1160143897
	.word	1255028335
	.word	-355202657
	.word	701922480
	.word	833598116
	.word	707863359
	.word	-969894747
	.word	901801634
	.word	1949809742
	.word	-56178046
	.word	-525283184
	.word	857069735
	.word	-246769660
	.word	1106762476
	.word	2131644621
	.word	389019281
	.word	1989006925
	.word	1129165039
	.word	-866890326
	.word	-455146346
	.word	-1629243951
	.word	1276872810
	.word	-1044898004
	.word	1182749029
	.word	-1660622242
	.word	22885772
	.word	-93096825
	.word	-80854773
	.word	-1285939865
	.word	-1840065829
	.word	-382511600
	.word	1829980118
	.word	-1702075945
	.word	930745505
	.word	1502483704
	.word	-343327725
	.word	-823253079
	.word	-1221211807
	.word	-504503012
	.word	2050797895
	.word	-1671831598
	.word	1430221810
	.word	410635796
	.word	1941911495
	.word	1407897079
	.word	1599843069
	.word	-552308931
	.word	2022103876
	.word	-897453137
	.word	-1187068824
	.word	942421028
	.word	-1033944925
	.word	376619805
	.word	-1140054558
	.word	680216892
	.word	-12479219
	.word	963707304
	.word	148812556
	.word	-660806476
	.word	1687208278
	.word	2069988555
	.word	-714033614
	.word	1215585388
	.word	-800958536
	.text
.Letext0:
	.file 2 "/home/anh/Desktop/wb2/Ai-Thinker-WB2/toolchain/riscv/Linux/lib/gcc/riscv64-unknown-elf/10.2.0/include/stddef.h"
	.file 3 "/home/anh/Desktop/wb2/Ai-Thinker-WB2/toolchain/riscv/Linux/lib/gcc/riscv64-unknown-elf/10.2.0/include/stdint-gcc.h"
	.file 4 "/home/anh/Desktop/wb2/Ai-Thinker-WB2/components/security/mbedtls_lts/mbedtls/include/mbedtls/aes.h"
	.file 5 "/home/anh/Desktop/wb2/Ai-Thinker-WB2/toolchain/riscv/Linux/riscv64-unknown-elf/include/string.h"
	.file 6 "/home/anh/Desktop/wb2/Ai-Thinker-WB2/components/security/mbedtls_lts/mbedtls/include/mbedtls/platform_util.h"