	.file	"debug.c"
	.option nopic
	.attribute arch, "rv32i2p0_m2p0_f2p0_c2p0"
	.attribute unaligned_access, 0
	.attribute stack_align, 16
	.text
.Ltext0:
	.cfi_sections	.debug_frame
	.section	.text.debug_send_line,"ax",@progbits
	.align	1
	.type	debug_send_line, @function
debug_send_line:
.LFB24:
	.file 1 "/home/anh/Desktop/wb2/Ai-Thinker-WB2/components/security/mbedtls_lts/mbedtls/library/debug.c"
	.loc 1 62 1
	.cfi_startproc
.LVL0:
	.loc 1 73 5
	.loc 1 73 8 is_stmt 0
	lw	a5,0(a0)
	.loc 1 73 5
	lw	a6,36(a5)
	lw	a0,40(a5)
.LVL1:
	jr	a6
.LVL2:
	.cfi_endproc
.LFE24:
	.size	debug_send_line, .-debug_send_line
	.section	.rodata.mbedtls_debug_print_mpi.part.0.str1.4,"aMS",@progbits,1
	.align	2
.LC0:
	.string	"value of '%s' (%u bits) is:\n"
	.align	2
.LC1:
	.string	" %02x"
	.align	2
.LC2:
	.string	"\n"
	.section	.text.mbedtls_debug_print_mpi.part.0,"ax",@progbits
	.align	1
	.type	mbedtls_debug_print_mpi.part.0, @function
mbedtls_debug_print_mpi.part.0:
.LFB35:
	.loc 1 218 6 is_stmt 1
	.cfi_startproc
.LVL3:
	.loc 1 235 5
	.loc 1 218 6 is_stmt 0
	addi	sp,sp,-592
	.cfi_def_cfa_offset 592
	sw	s2,576(sp)
	.cfi_offset 18, -16
	mv	s2,a0
	.loc 1 235 14
	mv	a0,a5
.LVL4:
	.loc 1 218 6
	sw	ra,588(sp)
	sw	s0,584(sp)
	sw	s3,572(sp)
	sw	s4,568(sp)
	sw	s5,564(sp)
	sw	s6,560(sp)
	.cfi_offset 1, -4
	.cfi_offset 8, -8
	.cfi_offset 19, -20
	.cfi_offset 20, -24
	.cfi_offset 21, -28
	.cfi_offset 22, -32
	mv	s3,a1
	mv	s4,a2
	mv	s5,a3
	sw	s1,580(sp)
	sw	s7,556(sp)
	sw	s8,552(sp)
	sw	s9,548(sp)
	sw	s10,544(sp)
	sw	s11,540(sp)
	.cfi_offset 9, -12
	.cfi_offset 23, -36
	.cfi_offset 24, -40
	.cfi_offset 25, -44
	.cfi_offset 26, -48
	.cfi_offset 27, -52
	.loc 1 218 6
	sw	a4,12(sp)
	mv	s6,a5
	.loc 1 235 14
	call	mbedtls_mpi_bitlen
.LVL5:
	.loc 1 237 5
	lw	a3,12(sp)
	lui	a2,%hi(.LC0)
	mv	a4,a0
	.loc 1 235 14
	mv	s0,a0
.LVL6:
	.loc 1 237 5 is_stmt 1
	addi	a2,a2,%lo(.LC0)
	li	a1,512
	addi	a0,sp,16
	call	snprintf
.LVL7:
	.loc 1 239 5
	addi	a4,sp,16
	mv	a3,s5
	mv	a2,s4
	mv	a1,s3
	mv	a0,s2
	call	debug_send_line
.LVL8:
	.loc 1 241 5
	.loc 1 241 7 is_stmt 0
	bne	s0,zero,.L3
	.loc 1 243 9 is_stmt 1
	.loc 1 243 23
	.loc 1 243 37
	.loc 1 243 16 is_stmt 0
	li	a5,12288
	addi	a5,a5,32
	sh	a5,16(sp)
	.loc 1 243 44
	li	a5,48
	sb	a5,18(sp)
	.loc 1 244 9 is_stmt 1
.LVL9:
	.loc 1 267 5
	.loc 1 244 13 is_stmt 0
	li	s1,3
.LVL10:
.L4:
	.loc 1 269 9 is_stmt 1
	addi	a5,sp,16
	lui	a2,%hi(.LC2)
	li	a1,512
	sub	a1,a1,s1
	addi	a2,a2,%lo(.LC2)
	add	a0,a5,s1
	call	snprintf
.LVL11:
	.loc 1 270 9
	addi	a4,sp,16
	mv	a3,s5
	mv	a2,s4
	mv	a1,s3
	mv	a0,s2
	call	debug_send_line
.LVL12:
	j	.L2
.LVL13:
.L3:
.LBB4:
	.loc 1 248 9
	.loc 1 249 9
	.loc 1 249 35 is_stmt 0
	addi	s0,s0,-1
.LVL14:
	.loc 1 249 41
	srli	s0,s0,3
.LVL15:
	.loc 1 249 48 is_stmt 1
.LBE4:
	.loc 1 224 12 is_stmt 0
	li	s1,0
.LBB7:
.LBB5:
	.loc 1 255 13
	li	s7,512
	lui	s9,%hi(.LC1)
	.loc 1 258 15
	li	s10,47
	.loc 1 260 17
	lui	s11,%hi(.LC2)
.LBE5:
	.loc 1 249 9
	li	s8,-1
.LVL16:
.L6:
.LBB6:
	.loc 1 251 13 is_stmt 1
	.loc 1 252 13
	.loc 1 253 13
	.loc 1 255 13
	.loc 1 254 23 is_stmt 0
	lw	a5,8(s6)
	andi	a4,s0,-4
.LVL17:
	.loc 1 252 20
	andi	a3,s0,3
.LVL18:
	.loc 1 254 23
	add	a4,a5,a4
.LVL19:
	.loc 1 254 57
	slli	a5,a3,3
	.loc 1 254 37
	lw	a3,0(a4)
.LVL20:
	.loc 1 255 13
	sub	a1,s7,s1
	addi	a2,s9,%lo(.LC1)
	.loc 1 254 37
	srl	a3,a3,a5
	.loc 1 255 13
	addi	a5,sp,16
	add	a0,a5,s1
	andi	a3,a3,0xff
	.loc 1 256 17
	addi	s1,s1,3
.LVL21:
	.loc 1 255 13
	call	snprintf
.LVL22:
	.loc 1 256 13 is_stmt 1
	.loc 1 258 13
	.loc 1 258 15 is_stmt 0
	bleu	s1,s10,.L5
	.loc 1 260 17 is_stmt 1
	addi	a5,sp,16
	sub	a1,s7,s1
	add	a0,a5,s1
	addi	a2,s11,%lo(.LC2)
	call	snprintf
.LVL23:
	.loc 1 261 17
	addi	a4,sp,16
	mv	a3,s5
	mv	a2,s4
	mv	a1,s3
	mv	a0,s2
	call	debug_send_line
.LVL24:
	.loc 1 262 17
	.loc 1 262 21 is_stmt 0
	li	s1,0
.LVL25:
.L5:
.LBE6:
	.loc 1 249 56 is_stmt 1
	.loc 1 249 57 is_stmt 0
	addi	s0,s0,-1
.LVL26:
	.loc 1 249 48 is_stmt 1
	.loc 1 249 9 is_stmt 0
	bne	s0,s8,.L6
.LBE7:
	.loc 1 267 5 is_stmt 1
	.loc 1 267 7 is_stmt 0
	bne	s1,zero,.L4
.LVL27:
.L2:
	.loc 1 272 1
	lw	ra,588(sp)
	.cfi_restore 1
	lw	s0,584(sp)
	.cfi_restore 8
	lw	s1,580(sp)
	.cfi_restore 9
	lw	s2,576(sp)
	.cfi_restore 18
.LVL28:
	lw	s3,572(sp)
	.cfi_restore 19
.LVL29:
	lw	s4,568(sp)
	.cfi_restore 20
.LVL30:
	lw	s5,564(sp)
	.cfi_restore 21
.LVL31:
	lw	s6,560(sp)
	.cfi_restore 22
.LVL32:
	lw	s7,556(sp)
	.cfi_restore 23
	lw	s8,552(sp)
	.cfi_restore 24
	lw	s9,548(sp)
	.cfi_restore 25
	lw	s10,544(sp)
	.cfi_restore 26
	lw	s11,540(sp)
	.cfi_restore 27
	addi	sp,sp,592
	.cfi_def_cfa_offset 0
.LVL33:
	jr	ra
	.cfi_endproc
.LFE35:
	.size	mbedtls_debug_print_mpi.part.0, .-mbedtls_debug_print_mpi.part.0
	.section	.text.mbedtls_debug_set_threshold,"ax",@progbits
	.align	1
	.globl	mbedtls_debug_set_threshold
	.type	mbedtls_debug_set_threshold, @function
mbedtls_debug_set_threshold:
.LFB23:
	.loc 1 52 1 is_stmt 1
	.cfi_startproc
.LVL34:
	.loc 1 53 5
	.loc 1 53 21 is_stmt 0
	lui	a5,%hi(.LANCHOR0)
	sw	a0,%lo(.LANCHOR0)(a5)
	.loc 1 54 1
	ret
	.cfi_endproc
.LFE23:
	.size	mbedtls_debug_set_threshold, .-mbedtls_debug_set_threshold
	.section	.text.mbedtls_debug_print_msg,"ax",@progbits
	.align	1
	.globl	mbedtls_debug_print_msg
	.type	mbedtls_debug_print_msg, @function
mbedtls_debug_print_msg:
.LFB25:
	.loc 1 81 1 is_stmt 1
	.cfi_startproc
.LVL35:
	.loc 1 82 5
	.loc 1 83 5
	.loc 1 84 5
	.loc 1 86 5
	.loc 1 81 1 is_stmt 0
	addi	sp,sp,-576
	.cfi_def_cfa_offset 576
	sw	ra,556(sp)
	sw	s0,552(sp)
	sw	s1,548(sp)
	sw	s2,544(sp)
	sw	s3,540(sp)
	.cfi_offset 1, -20
	.cfi_offset 8, -24
	.cfi_offset 9, -28
	.cfi_offset 18, -32
	.cfi_offset 19, -36
	.loc 1 81 1
	sw	a5,564(sp)
	sw	a6,568(sp)
	sw	a7,572(sp)
	.loc 1 86 7
	beq	a0,zero,.L14
	.loc 1 87 19 discriminator 1
	lw	a5,0(a0)
	mv	s0,a0
	.loc 1 86 20 discriminator 1
	beq	a5,zero,.L14
	.loc 1 87 26
	lw	a5,36(a5)
	beq	a5,zero,.L14
	.loc 1 88 33
	lui	a5,%hi(.LANCHOR0)
	lw	a5,%lo(.LANCHOR0)(a5)
	mv	s1,a1
	blt	a5,a1,.L14
	mv	s2,a2
	mv	s3,a3
	mv	a2,a4
.LVL36:
	.loc 1 94 4 is_stmt 1
	addi	a3,sp,564
.LVL37:
	.loc 1 95 11 is_stmt 0
	li	a1,512
.LVL38:
	addi	a0,sp,16
.LVL39:
	.loc 1 94 4
	sw	a3,12(sp)
	.loc 1 95 5 is_stmt 1
	.loc 1 95 11 is_stmt 0
	call	vsnprintf
.LVL40:
	.loc 1 96 4 is_stmt 1
	.loc 1 98 5
	.loc 1 98 7 is_stmt 0
	li	a5,510
	bgtu	a0,a5,.L18
	.loc 1 100 9 is_stmt 1
	.loc 1 100 18 is_stmt 0
	addi	a5,sp,528
	add	a5,a5,a0
	li	a4,10
	sb	a4,-512(a5)
	.loc 1 101 9 is_stmt 1
	.loc 1 101 22 is_stmt 0
	sb	zero,-511(a5)
.L18:
	.loc 1 104 5 is_stmt 1
	addi	a4,sp,16
	mv	a3,s3
	mv	a2,s2
	mv	a1,s1
	mv	a0,s0
.LVL41:
	call	debug_send_line
.LVL42:
.L14:
	.loc 1 105 1 is_stmt 0
	lw	ra,556(sp)
	.cfi_restore 1
	lw	s0,552(sp)
	.cfi_restore 8
	lw	s1,548(sp)
	.cfi_restore 9
	lw	s2,544(sp)
	.cfi_restore 18
	lw	s3,540(sp)
	.cfi_restore 19
	addi	sp,sp,576
	.cfi_def_cfa_offset 0
	jr	ra
	.cfi_endproc
.LFE25:
	.size	mbedtls_debug_print_msg, .-mbedtls_debug_print_msg
	.section	.rodata.mbedtls_debug_print_ret.str1.4,"aMS",@progbits,1
	.align	2
.LC3:
	.string	"%s() returned %d (-0x%04x)\n"
	.section	.text.mbedtls_debug_print_ret,"ax",@progbits
	.align	1
	.globl	mbedtls_debug_print_ret
	.type	mbedtls_debug_print_ret, @function
mbedtls_debug_print_ret:
.LFB26:
	.loc 1 110 1 is_stmt 1
	.cfi_startproc
.LVL43:
	.loc 1 111 5
	.loc 1 113 5
	.loc 1 113 7 is_stmt 0
	beq	a0,zero,.L42
	.loc 1 110 1 discriminator 1
	addi	sp,sp,-544
	.cfi_def_cfa_offset 544
	sw	s0,536(sp)
	sw	s3,524(sp)
	sw	ra,540(sp)
	sw	s1,532(sp)
	sw	s2,528(sp)
	.cfi_offset 8, -8
	.cfi_offset 19, -20
	.cfi_offset 1, -4
	.cfi_offset 9, -12
	.cfi_offset 18, -16
	mv	s3,a3
	mv	a3,a4
.LVL44:
	mv	a4,a5
.LVL45:
	.loc 1 114 19 discriminator 1
	lw	a5,0(a0)
.LVL46:
	mv	s0,a0
	.loc 1 113 20 discriminator 1
	beq	a5,zero,.L29
	.loc 1 114 26
	lw	a5,36(a5)
	beq	a5,zero,.L29
	.loc 1 115 33
	lui	a5,%hi(.LANCHOR0)
	lw	a5,%lo(.LANCHOR0)(a5)
	mv	s1,a1
	blt	a5,a1,.L29
	.loc 1 126 5 is_stmt 1
	.loc 1 126 7 is_stmt 0
	li	a5,-28672
	addi	a5,a5,1792
	beq	a4,a5,.L29
	mv	s2,a2
	.loc 1 129 5 is_stmt 1
	lui	a2,%hi(.LC3)
.LVL47:
	neg	a5,a4
	addi	a2,a2,%lo(.LC3)
	li	a1,512
.LVL48:
	mv	a0,sp
.LVL49:
	call	snprintf
.LVL50:
	.loc 1 132 5
	mv	a4,sp
	mv	a3,s3
	mv	a2,s2
	mv	a1,s1
	mv	a0,s0
	call	debug_send_line
.LVL51:
.L29:
	.loc 1 133 1 is_stmt 0
	lw	ra,540(sp)
	.cfi_restore 1
	lw	s0,536(sp)
	.cfi_restore 8
.LVL52:
	lw	s1,532(sp)
	.cfi_restore 9
	lw	s2,528(sp)
	.cfi_restore 18
	lw	s3,524(sp)
	.cfi_restore 19
.LVL53:
	addi	sp,sp,544
	.cfi_def_cfa_offset 0
	jr	ra
.LVL54:
.L42:
	ret
	.cfi_endproc
.LFE26:
	.size	mbedtls_debug_print_ret, .-mbedtls_debug_print_ret
	.section	.rodata.mbedtls_debug_print_buf.str1.4,"aMS",@progbits,1
	.align	2
.LC4:
	.string	"dumping '%s' (%u bytes)\n"
	.align	2
.LC5:
	.string	"  %s\n"
	.align	2
.LC6:
	.string	"%04x: "
	.align	2
.LC7:
	.string	"   "
	.section	.text.mbedtls_debug_print_buf,"ax",@progbits
	.align	1
	.globl	mbedtls_debug_print_buf
	.type	mbedtls_debug_print_buf, @function
mbedtls_debug_print_buf:
.LFB27:
	.loc 1 138 1 is_stmt 1
	.cfi_startproc
.LVL55:
	.loc 1 139 5
	.loc 1 140 5
	.loc 1 141 5
	.loc 1 143 5
	.loc 1 138 1 is_stmt 0
	addi	sp,sp,-624
	.cfi_def_cfa_offset 624
	sw	ra,620(sp)
	sw	s0,616(sp)
	sw	s1,612(sp)
	sw	s2,608(sp)
	sw	s3,604(sp)
	sw	s4,600(sp)
	sw	s5,596(sp)
	sw	s6,592(sp)
	sw	s7,588(sp)
	sw	s8,584(sp)
	sw	s9,580(sp)
	sw	s10,576(sp)
	sw	s11,572(sp)
	.cfi_offset 1, -4
	.cfi_offset 8, -8
	.cfi_offset 9, -12
	.cfi_offset 18, -16
	.cfi_offset 19, -20
	.cfi_offset 20, -24
	.cfi_offset 21, -28
	.cfi_offset 22, -32
	.cfi_offset 23, -36
	.cfi_offset 24, -40
	.cfi_offset 25, -44
	.cfi_offset 26, -48
	.cfi_offset 27, -52
	.loc 1 138 1
	sw	a5,8(sp)
	.loc 1 143 7
	beq	a0,zero,.L45
	.loc 1 144 19 discriminator 1
	lw	a5,0(a0)
.LVL56:
	mv	s0,a0
	.loc 1 143 20 discriminator 1
	beq	a5,zero,.L45
	.loc 1 144 26
	lw	a5,36(a5)
	beq	a5,zero,.L45
	.loc 1 145 33
	lui	a5,%hi(.LANCHOR0)
	lw	a5,%lo(.LANCHOR0)(a5)
	mv	s1,a1
	blt	a5,a1,.L45
	mv	s2,a2
	.loc 1 151 5
	lui	a2,%hi(.LC4)
.LVL57:
	mv	s3,a3
	addi	a2,a2,%lo(.LC4)
	mv	a3,a4
.LVL58:
	li	a1,512
.LVL59:
	mv	a4,a6
.LVL60:
	addi	a0,sp,48
.LVL61:
	mv	s4,a6
	.loc 1 151 5 is_stmt 1
	call	snprintf
.LVL62:
	.loc 1 154 5
	addi	a4,sp,48
	mv	a3,s3
	mv	a2,s2
	mv	a1,s1
	mv	a0,s0
	call	debug_send_line
.LVL63:
	.loc 1 156 5
	.loc 1 157 5
	li	a2,17
	li	a1,0
	addi	a0,sp,28
	call	memset
.LVL64:
	.loc 1 158 5
	.loc 1 156 9 is_stmt 0
	li	s7,0
	.loc 1 158 12
	li	s8,0
	.loc 1 174 20
	li	s6,512
	.loc 1 167 17
	lui	s9,%hi(.LC5)
	.loc 1 179 16
	lui	s10,%hi(.LC1)
	.loc 1 181 21
	li	s11,94
.LVL65:
.L50:
	.loc 1 158 17 is_stmt 1 discriminator 2
	.loc 1 158 5 is_stmt 0 discriminator 2
	bne	s8,s4,.L55
	.loc 1 184 5 is_stmt 1
	.loc 1 184 7 is_stmt 0
	beq	s8,zero,.L45
	.loc 1 187 20
	li	s4,512
.LVL66:
	lui	s5,%hi(.LC7)
.L56:
	.loc 1 186 16 is_stmt 1 discriminator 1
	.loc 1 187 20 is_stmt 0 discriminator 1
	addi	a5,sp,48
	.loc 1 186 18 discriminator 1
	andi	a4,s8,15
	.loc 1 187 20 discriminator 1
	add	a0,a5,s7
	sub	a1,s4,s7
	.loc 1 186 9 discriminator 1
	bne	a4,zero,.L57
.L51:
.LVL67:
	.loc 1 189 9 is_stmt 1
	addi	a5,sp,48
	lui	a2,%hi(.LC5)
	li	a1,512
	addi	a3,sp,28
	addi	a2,a2,%lo(.LC5)
	sub	a1,a1,s7
	add	a0,a5,s7
	call	snprintf
.LVL68:
	.loc 1 190 9
	addi	a4,sp,48
	mv	a3,s3
	mv	a2,s2
	mv	a1,s1
	mv	a0,s0
	call	debug_send_line
.LVL69:
.L45:
	.loc 1 192 1 is_stmt 0
	lw	ra,620(sp)
	.cfi_remember_state
	.cfi_restore 1
	lw	s0,616(sp)
	.cfi_restore 8
	lw	s1,612(sp)
	.cfi_restore 9
	lw	s2,608(sp)
	.cfi_restore 18
	lw	s3,604(sp)
	.cfi_restore 19
	lw	s4,600(sp)
	.cfi_restore 20
	lw	s5,596(sp)
	.cfi_restore 21
	lw	s6,592(sp)
	.cfi_restore 22
	lw	s7,588(sp)
	.cfi_restore 23
	lw	s8,584(sp)
	.cfi_restore 24
	lw	s9,580(sp)
	.cfi_restore 25
	lw	s10,576(sp)
	.cfi_restore 26
	lw	s11,572(sp)
	.cfi_restore 27
	addi	sp,sp,624
	.cfi_def_cfa_offset 0
.LVL70:
	jr	ra
.LVL71:
.L55:
	.cfi_restore_state
	.loc 1 160 9 is_stmt 1
	.loc 1 160 11 is_stmt 0
	li	a5,4096
	beq	s8,a5,.L51
	.loc 1 163 9 is_stmt 1
	.loc 1 163 15 is_stmt 0
	andi	s5,s8,15
	.loc 1 163 11
	bne	s5,zero,.L52
	.loc 1 165 13 is_stmt 1
	.loc 1 165 15 is_stmt 0
	beq	s8,zero,.L53
	.loc 1 167 17 is_stmt 1
	addi	a5,sp,48
	add	a0,a5,s7
	sub	a1,s6,s7
	addi	a3,sp,28
	addi	a2,s9,%lo(.LC5)
	call	snprintf
.LVL72:
	.loc 1 168 17
	addi	a4,sp,48
	mv	a3,s3
	mv	a2,s2
	mv	a1,s1
	mv	a0,s0
	call	debug_send_line
.LVL73:
	.loc 1 170 17
	.loc 1 171 17
	li	a2,17
	li	a1,0
	addi	a0,sp,28
	call	memset
.LVL74:
	.loc 1 170 21 is_stmt 0
	li	s7,0
.LVL75:
.L53:
	.loc 1 174 13 is_stmt 1
	.loc 1 174 20 is_stmt 0
	lui	a5,%hi(.LC6)
	addi	a2,a5,%lo(.LC6)
	addi	a5,sp,48
	sub	a1,s6,s7
	add	a0,a5,s7
	mv	a3,s8
	call	snprintf
.LVL76:
	.loc 1 174 17
	add	s7,s7,a0
.LVL77:
.L52:
	.loc 1 179 9 is_stmt 1
	lw	a5,8(sp)
	.loc 1 179 16 is_stmt 0
	sub	a1,s6,s7
	addi	a2,s10,%lo(.LC1)
	add	a4,a5,s8
	lbu	a3,0(a4)
	addi	a5,sp,48
	add	a0,a5,s7
	sw	a4,12(sp)
	call	snprintf
.LVL78:
	.loc 1 181 28
	lw	a4,12(sp)
	.loc 1 179 13
	add	s7,s7,a0
.LVL79:
	.loc 1 181 9 is_stmt 1
	.loc 1 181 28 is_stmt 0
	lbu	a4,0(a4)
	.loc 1 181 37
	addi	a3,a4,-32
	.loc 1 181 21
	andi	a3,a3,0xff
	bleu	a3,s11,.L54
	li	a4,46
.L54:
	.loc 1 181 21 discriminator 4
	addi	a5,sp,560
	add	s5,a5,s5
	sb	a4,-532(s5)
	.loc 1 158 26 is_stmt 1 discriminator 4
	.loc 1 158 27 is_stmt 0 discriminator 4
	addi	s8,s8,1
.LVL80:
	j	.L50
.LVL81:
.L57:
	.loc 1 187 13 is_stmt 1 discriminator 2
	.loc 1 187 20 is_stmt 0 discriminator 2
	addi	a2,s5,%lo(.LC7)
	call	snprintf
.LVL82:
	.loc 1 187 17 discriminator 2
	add	s7,s7,a0
.LVL83:
	.loc 1 186 29 is_stmt 1 discriminator 2
	.loc 1 186 30 is_stmt 0 discriminator 2
	addi	s8,s8,1
.LVL84:
	j	.L56
	.cfi_endproc
.LFE27:
	.size	mbedtls_debug_print_buf, .-mbedtls_debug_print_buf
	.section	.text.mbedtls_debug_print_mpi,"ax",@progbits
	.align	1
	.globl	mbedtls_debug_print_mpi
	.type	mbedtls_debug_print_mpi, @function
mbedtls_debug_print_mpi:
.LFB29:
	.loc 1 221 1 is_stmt 1
	.cfi_startproc
.LVL85:
	.loc 1 222 5
	.loc 1 223 5
	.loc 1 224 5
	.loc 1 226 5
	.loc 1 226 7 is_stmt 0
	beq	a0,zero,.L70
	.loc 1 227 19 discriminator 1
	lw	a6,0(a0)
	.loc 1 226 20 discriminator 1
	beq	a6,zero,.L70
	.loc 1 227 26
	lw	a6,36(a6)
	beq	a6,zero,.L70
	.loc 1 228 33
	beq	a5,zero,.L70
	.loc 1 229 18
	lui	a6,%hi(.LANCHOR0)
	lw	a6,%lo(.LANCHOR0)(a6)
	blt	a6,a1,.L70
	tail	mbedtls_debug_print_mpi.part.0
.LVL86:
.L70:
	.loc 1 272 1
	ret
	.cfi_endproc
.LFE29:
	.size	mbedtls_debug_print_mpi, .-mbedtls_debug_print_mpi
	.section	.rodata.mbedtls_debug_print_ecp.part.0.str1.4,"aMS",@progbits,1
	.align	2
.LC8:
	.string	"%s(X)"
	.align	2
.LC9:
	.string	"%s(Y)"
	.section	.text.mbedtls_debug_print_ecp.part.0,"ax",@progbits
	.align	1
	.type	mbedtls_debug_print_ecp.part.0, @function
mbedtls_debug_print_ecp.part.0:
.LFB36:
	.loc 1 195 6 is_stmt 1
	.cfi_startproc
.LVL87:
	.loc 1 209 5
	.loc 1 195 6 is_stmt 0
	addi	sp,sp,-544
	.cfi_def_cfa_offset 544
	sw	s2,528(sp)
	.cfi_offset 18, -16
	mv	s2,a2
	.loc 1 209 5
	lui	a2,%hi(.LC8)
.LVL88:
	.loc 1 195 6
	sw	s0,536(sp)
	sw	s1,532(sp)
	sw	s3,524(sp)
	.cfi_offset 8, -8
	.cfi_offset 9, -12
	.cfi_offset 19, -20
	mv	s0,a0
	mv	s1,a1
	mv	s3,a3
	.loc 1 209 5
	addi	a2,a2,%lo(.LC8)
	mv	a3,a4
.LVL89:
	li	a1,512
.LVL90:
	mv	a0,sp
.LVL91:
	.loc 1 195 6
	sw	ra,540(sp)
	sw	s4,520(sp)
	sw	s5,516(sp)
	.cfi_offset 1, -4
	.cfi_offset 20, -24
	.cfi_offset 21, -28
	.loc 1 195 6
	mv	s4,a5
	mv	s5,a4
	.loc 1 209 5
	call	snprintf
.LVL92:
	.loc 1 210 5 is_stmt 1
	mv	a5,s4
	mv	a4,sp
	mv	a3,s3
	mv	a2,s2
	mv	a1,s1
	mv	a0,s0
	call	mbedtls_debug_print_mpi
.LVL93:
	.loc 1 212 5
	lui	a2,%hi(.LC9)
	mv	a3,s5
	addi	a2,a2,%lo(.LC9)
	li	a1,512
	mv	a0,sp
	call	snprintf
.LVL94:
	.loc 1 213 5
	addi	a5,s4,12
	mv	a4,sp
	mv	a3,s3
	mv	a2,s2
	mv	a1,s1
	mv	a0,s0
	call	mbedtls_debug_print_mpi
.LVL95:
	.loc 1 214 1 is_stmt 0
	lw	ra,540(sp)
	.cfi_restore 1
	lw	s0,536(sp)
	.cfi_restore 8
.LVL96:
	lw	s1,532(sp)
	.cfi_restore 9
.LVL97:
	lw	s2,528(sp)
	.cfi_restore 18
.LVL98:
	lw	s3,524(sp)
	.cfi_restore 19
.LVL99:
	lw	s4,520(sp)
	.cfi_restore 20
.LVL100:
	lw	s5,516(sp)
	.cfi_restore 21
.LVL101:
	addi	sp,sp,544
	.cfi_def_cfa_offset 0
	jr	ra
	.cfi_endproc
.LFE36:
	.size	mbedtls_debug_print_ecp.part.0, .-mbedtls_debug_print_ecp.part.0
	.section	.text.mbedtls_debug_print_ecp,"ax",@progbits
	.align	1
	.globl	mbedtls_debug_print_ecp
	.type	mbedtls_debug_print_ecp, @function
mbedtls_debug_print_ecp:
.LFB28:
	.loc 1 198 1 is_stmt 1
	.cfi_startproc
.LVL102:
	.loc 1 199 5
	.loc 1 201 5
	.loc 1 201 7 is_stmt 0
	beq	a0,zero,.L86
	.loc 1 202 19 discriminator 1
	lw	a6,0(a0)
	.loc 1 201 20 discriminator 1
	beq	a6,zero,.L86
	.loc 1 202 26
	lw	a6,36(a6)
	beq	a6,zero,.L86
	.loc 1 203 33
	lui	a6,%hi(.LANCHOR0)
	lw	a6,%lo(.LANCHOR0)(a6)
	blt	a6,a1,.L86
	tail	mbedtls_debug_print_ecp.part.0
.LVL103:
.L86:
	.loc 1 214 1
	ret
	.cfi_endproc
.LFE28:
	.size	mbedtls_debug_print_ecp, .-mbedtls_debug_print_ecp
	.section	.rodata.mbedtls_debug_print_crt.str1.4,"aMS",@progbits,1
	.align	2
.LC10:
	.string	"%s #%d:\n"
	.align	2
.LC11:
	.string	""
	.align	2
.LC12:
	.string	"invalid PK context\n"
	.align	2
.LC13:
	.string	"crt->"
	.align	2
.LC14:
	.string	"%s%s"
	.align	2
.LC15:
	.string	"should not happen\n"
	.section	.text.mbedtls_debug_print_crt,"ax",@progbits
	.align	1
	.globl	mbedtls_debug_print_crt
	.type	mbedtls_debug_print_crt, @function
mbedtls_debug_print_crt:
.LFB32:
	.loc 1 342 1 is_stmt 1
	.cfi_startproc
.LVL104:
	.loc 1 343 5
	.loc 1 344 5
	.loc 1 346 5
	.loc 1 342 1 is_stmt 0
	addi	sp,sp,-112
	.cfi_def_cfa_offset 112
	sw	ra,108(sp)
	sw	s0,104(sp)
	sw	s1,100(sp)
	sw	s2,96(sp)
	sw	s3,92(sp)
	sw	s4,88(sp)
	sw	s5,84(sp)
	sw	s6,80(sp)
	sw	s7,76(sp)
	sw	s8,72(sp)
	sw	s9,68(sp)
	sw	s10,64(sp)
	sw	s11,60(sp)
	addi	sp,sp,-2032
	.cfi_def_cfa_offset 2144
	.cfi_offset 1, -4
	.cfi_offset 8, -8
	.cfi_offset 9, -12
	.cfi_offset 18, -16
	.cfi_offset 19, -20
	.cfi_offset 20, -24
	.cfi_offset 21, -28
	.cfi_offset 22, -32
	.cfi_offset 23, -36
	.cfi_offset 24, -40
	.cfi_offset 25, -44
	.cfi_offset 26, -48
	.cfi_offset 27, -52
	.loc 1 342 1
	sw	a4,12(sp)
	.loc 1 346 7
	beq	a0,zero,.L97
	mv	s2,a5
	.loc 1 347 19 discriminator 1
	lw	a5,0(a0)
.LVL105:
	mv	s0,a0
	.loc 1 346 20 discriminator 1
	beq	a5,zero,.L97
	.loc 1 347 26
	lw	a5,36(a5)
	beq	a5,zero,.L97
	.loc 1 348 33
	beq	s2,zero,.L97
	.loc 1 349 20
	lui	a5,%hi(.LANCHOR0)
	lw	a5,%lo(.LANCHOR0)(a5)
	mv	s1,a1
	.loc 1 344 9
	li	s6,0
	.loc 1 349 20
	blt	a5,a1,.L97
.LBB14:
.LBB15:
.LBB16:
	.loc 1 298 9
	li	a5,4096
	li	s7,-4096
	addi	a5,a5,-2032
	addi	a4,sp,16
.LVL106:
	addi	s5,s7,2032
	add	a5,a5,a4
	mv	s3,a2
	mv	s4,a3
	add	s5,a5,s5
.LVL107:
.L99:
.LBE16:
.LBE15:
	.loc 1 357 9 is_stmt 1
	.loc 1 359 9
	lw	a3,12(sp)
	addi	s6,s6,1
.LVL108:
	lui	a2,%hi(.LC10)
	mv	a4,s6
	addi	a2,a2,%lo(.LC10)
	li	a1,512
	addi	a0,sp,32
	call	snprintf
.LVL109:
	.loc 1 360 9
	addi	a4,sp,32
	mv	a3,s4
	mv	a2,s3
	mv	a1,s1
	mv	a0,s0
	call	debug_send_line
.LVL110:
	.loc 1 362 9
	lui	a2,%hi(.LC11)
	addi	a2,a2,%lo(.LC11)
	li	a1,1023
	mv	a3,s2
	addi	a0,sp,1056
	call	mbedtls_x509_crt_info
.LVL111:
	.loc 1 363 9
.LBB19:
.LBB20:
	.loc 1 317 5
	.loc 1 318 5
	.loc 1 320 5
	.loc 1 321 5
	.loc 1 321 14 is_stmt 0
	addi	a2,sp,1056
.LVL112:
	.loc 1 320 11
	mv	a1,a2
	.loc 1 323 11
	li	s10,10
	li	s11,511
.LVL113:
.L100:
	.loc 1 321 22 is_stmt 1
	lbu	a5,0(a2)
	.loc 1 321 5 is_stmt 0
	bne	a5,zero,.L103
.LVL114:
.LBE20:
.LBE19:
	.loc 1 365 9 is_stmt 1
.LBB24:
.LBB17:
	.loc 1 280 5
	.loc 1 281 5
	.loc 1 282 5
	.loc 1 284 5
	li	a1,0
	li	a2,36
	addi	a0,sp,544
	call	memset
.LVL115:
	.loc 1 286 5
	.loc 1 286 9 is_stmt 0
	addi	a1,sp,544
	addi	a0,s2,204
.LVL116:
	call	mbedtls_pk_debug
.LVL117:
	.loc 1 286 7
	beq	a0,zero,.L104
	.loc 1 288 9 is_stmt 1
	lui	a4,%hi(.LC12)
	addi	a4,a4,%lo(.LC12)
	mv	a3,s4
	mv	a2,s3
	mv	a1,s1
	mv	a0,s0
	call	debug_send_line
.LVL118:
	.loc 1 290 9
.L105:
.LBE17:
.LBE24:
	.loc 1 367 9
	.loc 1 367 13 is_stmt 0
	lw	s2,340(s2)
.LVL119:
.LBE14:
	.loc 1 355 10 is_stmt 1
	bne	s2,zero,.L99
.LVL120:
.L97:
	.loc 1 369 1 is_stmt 0
	addi	sp,sp,2032
	.cfi_remember_state
	.cfi_def_cfa_offset 112
	lw	ra,108(sp)
	.cfi_restore 1
	lw	s0,104(sp)
	.cfi_restore 8
	lw	s1,100(sp)
	.cfi_restore 9
	lw	s2,96(sp)
	.cfi_restore 18
	lw	s3,92(sp)
	.cfi_restore 19
	lw	s4,88(sp)
	.cfi_restore 20
	lw	s5,84(sp)
	.cfi_restore 21
	lw	s6,80(sp)
	.cfi_restore 22
	lw	s7,76(sp)
	.cfi_restore 23
	lw	s8,72(sp)
	.cfi_restore 24
	lw	s9,68(sp)
	.cfi_restore 25
	lw	s10,64(sp)
	.cfi_restore 26
	lw	s11,60(sp)
	.cfi_restore 27
	addi	sp,sp,112
	.cfi_def_cfa_offset 0
.LVL121:
	jr	ra
.LVL122:
.L103:
	.cfi_restore_state
.LBB27:
.LBB25:
.LBB23:
	.loc 1 323 9 is_stmt 1
.LBB21:
	.loc 1 334 19 is_stmt 0
	addi	s9,a2,1
.LBE21:
	.loc 1 323 11
	bne	a5,s10,.L101
.LBB22:
	.loc 1 325 13 is_stmt 1
	.loc 1 325 30 is_stmt 0
	sub	a2,a2,a1
.LVL123:
	.loc 1 325 38
	addi	s8,a2,1
	.loc 1 326 13 is_stmt 1
	bleu	s8,s11,.L102
	li	s8,511
.L102:
.LVL124:
	.loc 1 329 13
	mv	a2,s8
	addi	a0,sp,544
	call	memcpy
.LVL125:
	.loc 1 330 13
	.loc 1 330 22 is_stmt 0
	li	a5,4096
	addi	a4,sp,16
	addi	a5,a5,-2032
	add	a5,a5,a4
	add	s8,a5,s8
.LVL126:
	.loc 1 332 13
	mv	a1,s1
	.loc 1 330 22
	sb	zero,-1536(s8)
	.loc 1 332 13 is_stmt 1
	addi	a4,sp,544
	mv	a3,s4
	mv	a2,s3
	mv	a0,s0
	call	debug_send_line
.LVL127:
	.loc 1 334 13
	.loc 1 334 19 is_stmt 0
	mv	a1,s9
.LVL128:
.L101:
.LBE22:
	.loc 1 321 36 is_stmt 1
	.loc 1 321 39 is_stmt 0
	mv	a2,s9
	j	.L100
.LVL129:
.L104:
.LBE23:
.LBE25:
.LBB26:
.LBB18:
	.loc 1 299 34
	li	a5,4096
	addi	a5,a5,-2032
	addi	a4,sp,16
	add	a5,a5,a4
	addi	s8,sp,544
	add	s9,a5,s7
	.loc 1 301 11
	li	s10,1
	.loc 1 309 13
	lui	s11,%hi(.LC15)
.L109:
	.loc 1 295 9 is_stmt 1
	.loc 1 295 11 is_stmt 0
	lw	a5,0(s8)
	beq	a5,zero,.L105
	.loc 1 298 9 is_stmt 1
	lui	a5,%hi(.LC13)
	lw	a4,4(s8)
	addi	a3,a5,%lo(.LC13)
	lui	a5,%hi(.LC14)
	addi	a2,a5,%lo(.LC14)
	li	a1,16
	mv	a0,s5
	call	snprintf
.LVL130:
	.loc 1 299 9
	.loc 1 301 21 is_stmt 0
	lw	a5,0(s8)
	.loc 1 299 34
	sb	zero,2047(s9)
	.loc 1 301 9 is_stmt 1
	.loc 1 301 11 is_stmt 0
	bne	a5,s10,.L106
	.loc 1 302 13 is_stmt 1
	lw	a5,8(s8)
	mv	a4,s5
	mv	a3,s4
	mv	a2,s3
	mv	a1,s1
	mv	a0,s0
	call	mbedtls_debug_print_mpi
.LVL131:
.L107:
	.loc 1 293 24
	.loc 1 293 17
	.loc 1 293 5 is_stmt 0
	addi	s8,s8,12
	addi	a5,sp,580
	bne	a5,s8,.L109
	j	.L105
.L106:
	.loc 1 305 9 is_stmt 1
	.loc 1 305 11 is_stmt 0
	li	a4,2
	bne	a5,a4,.L108
	.loc 1 306 13 is_stmt 1
	lw	a5,8(s8)
	mv	a4,s5
	mv	a3,s4
	mv	a2,s3
	mv	a1,s1
	mv	a0,s0
	call	mbedtls_debug_print_ecp
.LVL132:
	j	.L107
.L108:
	.loc 1 309 13
	addi	a4,s11,%lo(.LC15)
	mv	a3,s4
	mv	a2,s3
	mv	a1,s1
	mv	a0,s0
	call	debug_send_line
.LVL133:
	j	.L107
.LBE18:
.LBE26:
.LBE27:
	.cfi_endproc
.LFE32:
	.size	mbedtls_debug_print_crt, .-mbedtls_debug_print_crt
	.section	.rodata.mbedtls_debug_printf_ecdh.str1.4,"aMS",@progbits,1
	.align	2
.LC16:
	.string	"ECDH: Q"
	.align	2
.LC17:
	.string	"ECDH: Qp"
	.align	2
.LC18:
	.string	"ECDH: z"
	.section	.text.mbedtls_debug_printf_ecdh,"ax",@progbits
	.align	1
	.globl	mbedtls_debug_printf_ecdh
	.type	mbedtls_debug_printf_ecdh, @function
mbedtls_debug_printf_ecdh:
.LFB34:
	.loc 1 408 1
	.cfi_startproc
.LVL134:
	.loc 1 412 5
	.loc 1 415 13
.LBB30:
.LBB31:
	.loc 1 382 5
	.loc 1 385 5
	li	a6,1
	beq	a5,a6,.L131
	li	a6,2
	beq	a5,a6,.L132
	bne	a5,zero,.L130
	.loc 1 388 13
	addi	a5,a4,148
.LVL135:
	lui	a4,%hi(.LC16)
.LVL136:
	addi	a4,a4,%lo(.LC16)
.LVL137:
.L134:
	.loc 1 392 13 is_stmt 0
	tail	mbedtls_debug_print_ecp
.LVL138:
.L131:
	.loc 1 392 13 is_stmt 1
	addi	a5,a4,184
.LVL139:
	lui	a4,%hi(.LC17)
.LVL140:
	addi	a4,a4,%lo(.LC17)
	j	.L134
.LVL141:
.L132:
	.loc 1 396 13
	addi	a5,a4,220
.LVL142:
	lui	a4,%hi(.LC18)
.LVL143:
	addi	a4,a4,%lo(.LC18)
	tail	mbedtls_debug_print_mpi
.LVL144:
.L130:
.LBE31:
.LBE30:
	.loc 1 419 1 is_stmt 0
	ret
	.cfi_endproc
.LFE34:
	.size	mbedtls_debug_printf_ecdh, .-mbedtls_debug_printf_ecdh
	.section	.sbss.debug_threshold,"aw",@nobits
	.align	2
	.set	.LANCHOR0,. + 0
	.type	debug_threshold, @object
	.size	debug_threshold, 4
debug_threshold:
	.zero	4
	.text
.Letext0:
	.file 2 "/home/anh/Desktop/wb2/Ai-Thinker-WB2/toolchain/riscv/Linux/lib/gcc/riscv64-unknown-elf/10.2.0/include/stddef.h"
	.file 3 "/home/anh/Desktop/wb2/Ai-Thinker-WB2/toolchain/riscv/Linux/lib/gcc/riscv64-unknown-elf/10.2.0/include/stdint-gcc.h"
	.file 4 "/home/anh/Desktop/wb2/Ai-Thinker-WB2/toolchain/riscv/Linux/lib/gcc/riscv64-unknown-elf/10.2.0/include/stdarg.h"
	.file 5 "/home/anh/Desktop/wb2/Ai-Thinker-WB2/toolchain/riscv/Linux/riscv64-unknown-elf/include/stdio.h"
	.file 6 "/home/anh/Desktop/wb2/Ai-Thinker-WB2/components/security/mbedtls_lts/mbedtls/include/mbedtls/bignum.h"
	.file 7 "/home/anh/Desktop/wb2/Ai-Thinker-WB2/components/security/mbedtls_lts/mbedtls/include/mbedtls/ecp.h"
	.file 8 "/home/anh/Desktop/wb2/Ai-Thinker-WB2/components/security/mbedtls_lts/mbedtls/include/mbedtls/md.h"
	.file 9 "/home/anh/Desktop/wb2/Ai-Thinker-WB2/components/security/mbedtls_lts/mbedtls/include/mbedtls/pk.h"
	.file 10 "/home/anh/Desktop/wb2/Ai-Thinker-WB2/components/security/mbedtls_lts/mbedtls/include/mbedtls/asn1.h"
	.file 11 "/home/anh/Desktop/wb2/Ai-Thinker-WB2/components/security/mbedtls_lts/mbedtls/include/mbedtls/x509.h"
	.file 12 "/home/anh/Desktop/wb2/Ai-Thinker-WB2/components/security/mbedtls_lts/mbedtls/include/mbedtls/x509_crl.h"
	.file 13 "/home/anh/Desktop/wb2/Ai-Thinker-WB2/components/security/mbedtls_lts/mbedtls/include/mbedtls/x509_crt.h"
	.file 14 "/home/anh/Desktop/wb2/Ai-Thinker-WB2/components/security/mbedtls_lts/mbedtls/include/mbedtls/ecdh.h"
	.file 15 "/home/anh/Desktop/wb2/Ai-Thinker-WB2/components/security/mbedtls_lts/mbedtls/include/mbedtls/ssl.h"
	.file 16 "/home/anh/Desktop/wb2/Ai-Thinker-WB2/components/security/mbedtls_lts/mbedtls/include/mbedtls/debug.h"
	.file 17 "/home/anh/Desktop/wb2/Ai-Thinker-WB2/toolchain/riscv/Linux/riscv64-unknown-elf/include/string.h"