	.file	"ecdh.c"
	.option nopic
	.attribute arch, "rv32i2p0_m2p0_f2p0_c2p0"
	.attribute unaligned_access, 0
	.attribute stack_align, 16
	.text
.Ltext0:
	.cfi_sections	.debug_frame
	.section	.text.mbedtls_ecdh_can_do,"ax",@progbits
	.align	1
	.globl	mbedtls_ecdh_can_do
	.type	mbedtls_ecdh_can_do, @function
mbedtls_ecdh_can_do:
.LFB6:
	.file 1 "/home/anh/Desktop/wb2/Ai-Thinker-WB2/components/security/mbedtls_lts/mbedtls/library/ecdh.c"
	.loc 1 58 1
	.cfi_startproc
.LVL0:
	.loc 1 60 5
	.loc 1 61 5
	.loc 1 62 1 is_stmt 0
	li	a0,1
.LVL1:
	ret
	.cfi_endproc
.LFE6:
	.size	mbedtls_ecdh_can_do, .-mbedtls_ecdh_can_do
	.section	.text.mbedtls_ecdh_gen_public,"ax",@progbits
	.align	1
	.globl	mbedtls_ecdh_gen_public
	.type	mbedtls_ecdh_gen_public, @function
mbedtls_ecdh_gen_public:
.LFB8:
	.loc 1 99 1 is_stmt 1
	.cfi_startproc
.LVL2:
	.loc 1 100 5
	.loc 1 100 10
	.loc 1 100 17
	.loc 1 101 5
	.loc 1 101 10
	.loc 1 101 17
	.loc 1 102 5
	.loc 1 102 10
	.loc 1 102 17
	.loc 1 103 5
	.loc 1 103 10
	.loc 1 103 17
	.loc 1 104 5
	.loc 1 99 1 is_stmt 0
	addi	sp,sp,-48
	.cfi_def_cfa_offset 48
	sw	s1,36(sp)
	.cfi_offset 9, -12
	mv	s1,a3
	sw	s2,32(sp)
.LBB8:
.LBB9:
	.loc 1 84 27
	mv	a3,a4
.LVL3:
	.cfi_offset 18, -16
.LBE9:
.LBE8:
	.loc 1 99 1
	mv	s2,a2
.LBB17:
.LBB10:
	.loc 1 84 27
	mv	a2,s1
.LVL4:
.LBE10:
.LBE17:
	.loc 1 99 1
	sw	s0,40(sp)
	sw	s3,28(sp)
	sw	ra,44(sp)
	.cfi_offset 8, -8
	.cfi_offset 19, -20
	.cfi_offset 1, -4
	.loc 1 99 1
	mv	s0,a0
.LVL5:
	mv	s3,a1
.LVL6:
.LBB18:
.LBB11:
	.loc 1 78 5 is_stmt 1
	.loc 1 84 9
	.loc 1 84 14
	.loc 1 84 27 is_stmt 0
	sw	a4,12(sp)
	call	mbedtls_ecp_gen_privkey
.LVL7:
	.loc 1 84 16
	bne	a0,zero,.L2
	.loc 1 84 106 is_stmt 1
	.loc 1 86 5
	.loc 1 86 10
	.loc 1 86 23 is_stmt 0
	addi	a3,s0,40
	mv	a0,s0
.LVL8:
.LBE11:
.LBE18:
	.loc 1 105 1
	lw	s0,40(sp)
	.cfi_remember_state
	.cfi_restore 8
.LVL9:
.LBB19:
.LBB12:
	.loc 1 86 23
	lw	a5,12(sp)
.LBE12:
.LBE19:
	.loc 1 105 1
	lw	ra,44(sp)
	.cfi_restore 1
.LBB20:
.LBB13:
	.loc 1 86 23
	mv	a4,s1
	mv	a2,s3
.LBE13:
.LBE20:
	.loc 1 105 1
	lw	s1,36(sp)
	.cfi_restore 9
.LVL10:
	lw	s3,28(sp)
	.cfi_restore 19
.LVL11:
.LBB21:
.LBB14:
	.loc 1 86 23
	mv	a1,s2
.LBE14:
.LBE21:
	.loc 1 105 1
	lw	s2,32(sp)
	.cfi_restore 18
.LVL12:
.LBB22:
.LBB15:
	.loc 1 86 23
	li	a6,0
.LBE15:
.LBE22:
	.loc 1 105 1
	addi	sp,sp,48
	.cfi_def_cfa_offset 0
.LVL13:
.LBB23:
.LBB16:
	.loc 1 86 23
	tail	mbedtls_ecp_mul_restartable
.LVL14:
.L3:
.L2:
	.cfi_restore_state
.LBE16:
.LBE23:
	.loc 1 105 1
	lw	ra,44(sp)
	.cfi_restore 1
	lw	s0,40(sp)
	.cfi_restore 8
.LVL15:
	lw	s1,36(sp)
	.cfi_restore 9
.LVL16:
	lw	s2,32(sp)
	.cfi_restore 18
.LVL17:
	lw	s3,28(sp)
	.cfi_restore 19
.LVL18:
	addi	sp,sp,48
	.cfi_def_cfa_offset 0
.LVL19:
	jr	ra
	.cfi_endproc
.LFE8:
	.size	mbedtls_ecdh_gen_public, .-mbedtls_ecdh_gen_public
	.section	.text.mbedtls_ecdh_compute_shared,"ax",@progbits
	.align	1
	.globl	mbedtls_ecdh_compute_shared
	.type	mbedtls_ecdh_compute_shared, @function
mbedtls_ecdh_compute_shared:
.LFB10:
	.loc 1 148 1 is_stmt 1
	.cfi_startproc
.LVL20:
	.loc 1 149 5
	.loc 1 149 10
	.loc 1 149 17
	.loc 1 150 5
	.loc 1 150 10
	.loc 1 150 17
	.loc 1 151 5
	.loc 1 151 10
	.loc 1 151 17
	.loc 1 152 5
	.loc 1 152 10
	.loc 1 152 17
	.loc 1 153 5
	.loc 1 148 1 is_stmt 0
	addi	sp,sp,-96
	.cfi_def_cfa_offset 96
	sw	s0,88(sp)
	.cfi_offset 8, -8
	mv	s0,a0
.LVL21:
.LBB26:
.LBB27:
	.loc 1 122 5
	addi	a0,sp,28
.LVL22:
.LBE27:
.LBE26:
	.loc 1 148 1
	sw	ra,92(sp)
	sw	s1,84(sp)
	sw	s2,80(sp)
	sw	s3,76(sp)
	.cfi_offset 1, -4
	.cfi_offset 9, -12
	.cfi_offset 18, -16
	.cfi_offset 19, -20
	.loc 1 148 1
	mv	s2,a3
	mv	s3,a2
	mv	s1,a1
.LVL23:
.LBB31:
.LBB28:
	.loc 1 119 5 is_stmt 1
	.loc 1 120 5
	.loc 1 122 5
.LBE28:
.LBE31:
	.loc 1 148 1 is_stmt 0
	sw	a4,12(sp)
.LVL24:
	sw	a5,8(sp)
.LVL25:
.LBB32:
.LBB29:
	.loc 1 122 5
	call	mbedtls_ecp_point_init
.LVL26:
	.loc 1 124 5 is_stmt 1
	.loc 1 124 10
	.loc 1 124 23 is_stmt 0
	lw	a5,8(sp)
	lw	a4,12(sp)
	mv	a0,s0
	li	a6,0
	mv	a3,s3
	mv	a2,s2
	addi	a1,sp,28
	call	mbedtls_ecp_mul_restartable
.LVL27:
	mv	s0,a0
.LVL28:
	.loc 1 124 12
	bne	a0,zero,.L6
	.loc 1 124 121 is_stmt 1
	.loc 1 127 5
	.loc 1 127 9 is_stmt 0
	addi	a0,sp,28
	call	mbedtls_ecp_is_zero
.LVL29:
	.loc 1 127 7
	bne	a0,zero,.L7
	.loc 1 133 5 is_stmt 1
	.loc 1 133 10
	.loc 1 133 23 is_stmt 0
	addi	a1,sp,28
	mv	a0,s1
	call	mbedtls_mpi_copy
.LVL30:
	mv	s0,a0
.LVL31:
.L6:
	.loc 1 133 82 is_stmt 1
	.loc 1 136 5
	addi	a0,sp,28
	call	mbedtls_ecp_point_free
.LVL32:
	.loc 1 138 5
.LBE29:
.LBE32:
	.loc 1 155 1 is_stmt 0
	lw	ra,92(sp)
	.cfi_remember_state
	.cfi_restore 1
	mv	a0,s0
	lw	s0,88(sp)
	.cfi_restore 8
	lw	s1,84(sp)
	.cfi_restore 9
.LVL33:
	lw	s2,80(sp)
	.cfi_restore 18
.LVL34:
	lw	s3,76(sp)
	.cfi_restore 19
.LVL35:
	addi	sp,sp,96
	.cfi_def_cfa_offset 0
.LVL36:
	jr	ra
.LVL37:
.L7:
	.cfi_restore_state
.LBB33:
.LBB30:
	.loc 1 129 13
	li	s0,-20480
.LVL38:
	addi	s0,s0,128
	j	.L6
.LBE30:
.LBE33:
	.cfi_endproc
.LFE10:
	.size	mbedtls_ecdh_compute_shared, .-mbedtls_ecdh_compute_shared
	.section	.text.mbedtls_ecdh_init,"ax",@progbits
	.align	1
	.globl	mbedtls_ecdh_init
	.type	mbedtls_ecdh_init, @function
mbedtls_ecdh_init:
.LFB12:
	.loc 1 175 1 is_stmt 1
	.cfi_startproc
.LVL39:
	.loc 1 176 5
	.loc 1 176 10
	.loc 1 176 17
	.loc 1 184 5
	.loc 1 175 1 is_stmt 0
	addi	sp,sp,-16
	.cfi_def_cfa_offset 16
	.loc 1 184 5
	li	a2,232
	li	a1,0
	.loc 1 175 1
	sw	s0,8(sp)
	sw	ra,12(sp)
	.cfi_offset 8, -8
	.cfi_offset 1, -4
	.loc 1 175 1
	mv	s0,a0
	.loc 1 184 5
	call	memset
.LVL40:
	.loc 1 186 5 is_stmt 1
	.loc 1 192 1 is_stmt 0
	lw	ra,12(sp)
	.cfi_restore 1
	.loc 1 186 14
	sw	zero,8(s0)
	.loc 1 188 5 is_stmt 1
	.loc 1 188 23 is_stmt 0
	sb	zero,0(s0)
	.loc 1 192 1
	lw	s0,8(sp)
	.cfi_restore 8
.LVL41:
	addi	sp,sp,16
	.cfi_def_cfa_offset 0
	jr	ra
	.cfi_endproc
.LFE12:
	.size	mbedtls_ecdh_init, .-mbedtls_ecdh_init
	.section	.text.mbedtls_ecdh_setup,"ax",@progbits
	.align	1
	.globl	mbedtls_ecdh_setup
	.type	mbedtls_ecdh_setup, @function
mbedtls_ecdh_setup:
.LFB14:
	.loc 1 212 1 is_stmt 1
	.cfi_startproc
.LVL42:
	.loc 1 213 5
	.loc 1 213 10
	.loc 1 213 17
	.loc 1 218 5
	.loc 1 228 13
	.loc 1 212 1 is_stmt 0
	addi	sp,sp,-32
	.cfi_def_cfa_offset 32
	sw	ra,28(sp)
	sw	s0,24(sp)
	sw	s1,20(sp)
	.cfi_offset 1, -4
	.cfi_offset 8, -8
	.cfi_offset 9, -12
	.loc 1 229 22
	li	a5,1
.LBB38:
.LBB39:
	.loc 1 160 5
	addi	s1,a0,12
.LBE39:
.LBE38:
	.loc 1 230 25
	sw	a1,4(a0)
	.loc 1 229 22
	sw	a5,8(a0)
	.loc 1 212 1
	mv	s0,a0
	.loc 1 228 31
	sb	zero,0(a0)
	.loc 1 229 13 is_stmt 1
	.loc 1 230 13
.LBB42:
.LBB40:
	.loc 1 160 5 is_stmt 0
	mv	a0,s1
.LVL43:
.LBE40:
.LBE42:
	.loc 1 230 25
	sw	a1,12(sp)
	.loc 1 231 13 is_stmt 1
.LVL44:
.LBB43:
.LBB41:
	.loc 1 160 5
	call	mbedtls_ecp_group_init
.LVL45:
	.loc 1 161 5
	addi	a0,s0,136
	call	mbedtls_mpi_init
.LVL46:
	.loc 1 162 5
	addi	a0,s0,148
	call	mbedtls_ecp_point_init
.LVL47:
	.loc 1 163 5
	addi	a0,s0,184
	call	mbedtls_ecp_point_init
.LVL48:
	.loc 1 164 5
	addi	a0,s0,220
	call	mbedtls_mpi_init
.LVL49:
.LBE41:
.LBE43:
	.loc 1 232 13
.LBB44:
.LBB45:
	.loc 1 197 5
	.loc 1 199 5
	.loc 1 199 11 is_stmt 0
	lw	a1,12(sp)
	mv	a0,s1
	call	mbedtls_ecp_group_load
.LVL50:
	.loc 1 200 5 is_stmt 1
	.loc 1 200 7 is_stmt 0
	beq	a0,zero,.L11
	.loc 1 202 15
	li	a0,-20480
.LVL51:
	addi	a0,a0,384
.LVL52:
.L11:
.LBE45:
.LBE44:
	.loc 1 235 1
	lw	ra,28(sp)
	.cfi_restore 1
	lw	s0,24(sp)
	.cfi_restore 8
.LVL53:
	lw	s1,20(sp)
	.cfi_restore 9
.LVL54:
	addi	sp,sp,32
	.cfi_def_cfa_offset 0
.LVL55:
	jr	ra
	.cfi_endproc
.LFE14:
	.size	mbedtls_ecdh_setup, .-mbedtls_ecdh_setup
	.section	.text.mbedtls_ecdh_free,"ax",@progbits
	.align	1
	.globl	mbedtls_ecdh_free
	.type	mbedtls_ecdh_free, @function
mbedtls_ecdh_free:
.LFB16:
	.loc 1 266 1 is_stmt 1
	.cfi_startproc
.LVL56:
	.loc 1 267 5
	.loc 1 267 7 is_stmt 0
	beq	a0,zero,.L24
	.loc 1 266 1
	addi	sp,sp,-16
	.cfi_def_cfa_offset 16
	sw	s0,8(sp)
	sw	ra,12(sp)
	.cfi_offset 8, -8
	.cfi_offset 1, -4
	.loc 1 276 5
	lw	a4,8(a0)
	li	a5,1
	mv	s0,a0
	.loc 1 276 5 is_stmt 1
	bne	a4,a5,.L19
	.loc 1 284 13
.LVL57:
.LBB48:
.LBB49:
	.loc 1 239 5
	addi	a0,a0,12
.LVL58:
	call	mbedtls_ecp_group_free
.LVL59:
	.loc 1 240 5
	addi	a0,s0,136
	call	mbedtls_mpi_free
.LVL60:
	.loc 1 241 5
	addi	a0,s0,148
	call	mbedtls_ecp_point_free
.LVL61:
	.loc 1 242 5
	addi	a0,s0,184
	call	mbedtls_ecp_point_free
.LVL62:
	.loc 1 243 5
	addi	a0,s0,220
	call	mbedtls_mpi_free
.LVL63:
.L19:
.LBE49:
.LBE48:
	.loc 1 290 5
	.loc 1 290 23 is_stmt 0
	sb	zero,0(s0)
	.loc 1 291 5 is_stmt 1
	.loc 1 291 14 is_stmt 0
	sw	zero,8(s0)
	.loc 1 292 5 is_stmt 1
	.loc 1 292 17 is_stmt 0
	sw	zero,4(s0)
	.loc 1 294 1
	lw	ra,12(sp)
	.cfi_restore 1
	lw	s0,8(sp)
	.cfi_restore 8
.LVL64:
	addi	sp,sp,16
	.cfi_def_cfa_offset 0
	jr	ra
.LVL65:
.L24:
	ret
	.cfi_endproc
.LFE16:
	.size	mbedtls_ecdh_free, .-mbedtls_ecdh_free
	.section	.text.mbedtls_ecdh_make_params,"ax",@progbits
	.align	1
	.globl	mbedtls_ecdh_make_params
	.type	mbedtls_ecdh_make_params, @function
mbedtls_ecdh_make_params:
.LFB18:
	.loc 1 358 1 is_stmt 1
	.cfi_startproc
.LVL66:
	.loc 1 359 5
	.loc 1 360 5
	.loc 1 360 10
	.loc 1 360 17
	.loc 1 361 5
	.loc 1 361 10
	.loc 1 361 17
	.loc 1 362 5
	.loc 1 362 10
	.loc 1 362 17
	.loc 1 363 5
	.loc 1 363 10
	.loc 1 363 17
	.loc 1 368 5
	.loc 1 375 5
	.loc 1 358 1 is_stmt 0
	addi	sp,sp,-48
	.cfi_def_cfa_offset 48
	sw	s0,40(sp)
	sw	s1,36(sp)
	sw	ra,44(sp)
	sw	s2,32(sp)
	sw	s3,28(sp)
	sw	s4,24(sp)
	sw	s5,20(sp)
	.cfi_offset 8, -8
	.cfi_offset 9, -12
	.cfi_offset 1, -4
	.cfi_offset 18, -16
	.cfi_offset 19, -20
	.cfi_offset 20, -24
	.cfi_offset 21, -28
	.loc 1 358 1
	mv	s0,a2
	.loc 1 375 5
	lw	a2,8(a0)
.LVL67:
	.loc 1 358 1
	mv	s1,a3
	mv	a3,a4
.LVL68:
	mv	a4,a5
.LVL69:
	.loc 1 375 5
	li	a5,1
.LVL70:
	bne	a2,a5,.L30
	.loc 1 383 13 is_stmt 1
.LBB52:
.LBB53:
	.loc 1 311 7 is_stmt 0
	lw	a5,100(a0)
.LBE53:
.LBE52:
	.loc 1 384 51
	lbu	s5,0(a0)
.LVL71:
.LBB55:
.LBB54:
	.loc 1 305 5 is_stmt 1
	.loc 1 306 5
	.loc 1 311 5
	.loc 1 311 7 is_stmt 0
	beq	a5,zero,.L30
	.loc 1 327 17
	addi	s4,a0,148
	addi	s3,a0,12
.LVL72:
	mv	s2,a1
	.loc 1 318 5 is_stmt 1
	.loc 1 327 5
	.loc 1 327 17 is_stmt 0
	mv	a2,s4
	addi	a1,a0,136
.LVL73:
	mv	a0,s3
.LVL74:
	call	mbedtls_ecdh_gen_public
.LVL75:
	.loc 1 327 7
	bne	a0,zero,.L27
	.loc 1 332 5 is_stmt 1
	.loc 1 332 17 is_stmt 0
	mv	a3,s1
	mv	a2,s0
	addi	a1,sp,8
	mv	a0,s3
.LVL76:
	call	mbedtls_ecp_tls_write_group
.LVL77:
	.loc 1 332 7
	bne	a0,zero,.L27
	.loc 1 336 5 is_stmt 1
	.loc 1 336 9 is_stmt 0
	lw	a4,8(sp)
.LVL78:
	.loc 1 337 5 is_stmt 1
	.loc 1 339 5
	.loc 1 339 17 is_stmt 0
	addi	a3,sp,12
	mv	a2,s5
	sub	a5,s1,a4
.LVL79:
	mv	a1,s4
	add	a4,s0,a4
.LVL80:
	mv	a0,s3
.LVL81:
	call	mbedtls_ecp_tls_write_point
.LVL82:
	.loc 1 339 7
	bne	a0,zero,.L27
	.loc 1 343 5 is_stmt 1
	.loc 1 343 21 is_stmt 0
	lw	a5,8(sp)
	lw	a4,12(sp)
	add	a5,a5,a4
	.loc 1 343 11
	sw	a5,0(s2)
	.loc 1 344 5 is_stmt 1
.LVL83:
.L27:
.LBE54:
.LBE55:
	.loc 1 391 1 is_stmt 0
	lw	ra,44(sp)
	.cfi_remember_state
	.cfi_restore 1
	lw	s0,40(sp)
	.cfi_restore 8
.LVL84:
	lw	s1,36(sp)
	.cfi_restore 9
.LVL85:
	lw	s2,32(sp)
	.cfi_restore 18
	lw	s3,28(sp)
	.cfi_restore 19
	lw	s4,24(sp)
	.cfi_restore 20
	lw	s5,20(sp)
	.cfi_restore 21
	addi	sp,sp,48
	.cfi_def_cfa_offset 0
	jr	ra
.LVL86:
.L30:
	.cfi_restore_state
	.loc 1 388 20
	li	a0,-20480
.LVL87:
	addi	a0,a0,128
	j	.L27
	.cfi_endproc
.LFE18:
	.size	mbedtls_ecdh_make_params, .-mbedtls_ecdh_make_params
	.section	.text.mbedtls_ecdh_read_params,"ax",@progbits
	.align	1
	.globl	mbedtls_ecdh_read_params
	.type	mbedtls_ecdh_read_params, @function
mbedtls_ecdh_read_params:
.LFB20:
	.loc 1 411 1 is_stmt 1
	.cfi_startproc
.LVL88:
	.loc 1 412 5
	.loc 1 413 5
	.loc 1 414 5
	.loc 1 414 10
	.loc 1 414 17
	.loc 1 415 5
	.loc 1 415 10
	.loc 1 415 17
	.loc 1 416 5
	.loc 1 416 10
	.loc 1 416 17
	.loc 1 417 5
	.loc 1 417 10
	.loc 1 417 17
	.loc 1 419 5
	.loc 1 411 1 is_stmt 0
	addi	sp,sp,-32
	.cfi_def_cfa_offset 32
	sw	s0,24(sp)
	sw	s1,20(sp)
	sw	s2,16(sp)
	sw	ra,28(sp)
	.cfi_offset 8, -8
	.cfi_offset 9, -12
	.cfi_offset 18, -16
	.cfi_offset 1, -4
	.loc 1 411 1
	mv	s2,a2
	.loc 1 419 66
	lw	a2,0(a1)
.LVL89:
	.loc 1 411 1
	mv	s0,a0
	.loc 1 419 17
	addi	a0,sp,12
.LVL90:
	sub	a2,s2,a2
	.loc 1 411 1
	mv	s1,a1
	.loc 1 419 17
	call	mbedtls_ecp_tls_read_group_id
.LVL91:
	.loc 1 419 7
	bne	a0,zero,.L33
	.loc 1 423 5 is_stmt 1
	.loc 1 423 17 is_stmt 0
	lw	a1,12(sp)
	mv	a0,s0
.LVL92:
	call	mbedtls_ecdh_setup
.LVL93:
	.loc 1 423 7
	bne	a0,zero,.L33
	.loc 1 429 5 is_stmt 1
	lw	a4,8(s0)
	li	a5,1
	bne	a4,a5,.L35
	.loc 1 437 13
.LVL94:
.LBB58:
.LBB59:
	.loc 1 397 5
	.loc 1 398 45 is_stmt 0
	lw	a3,0(s1)
	.loc 1 397 13
	mv	a2,s1
	addi	a1,s0,184
	sub	a3,s2,a3
	addi	a0,s0,12
.LVL95:
	call	mbedtls_ecp_tls_read_point
.LVL96:
.L33:
.LBE59:
.LBE58:
	.loc 1 443 1
	lw	ra,28(sp)
	.cfi_remember_state
	.cfi_restore 1
	lw	s0,24(sp)
	.cfi_restore 8
.LVL97:
	lw	s1,20(sp)
	.cfi_restore 9
.LVL98:
	lw	s2,16(sp)
	.cfi_restore 18
.LVL99:
	addi	sp,sp,32
	.cfi_def_cfa_offset 0
	jr	ra
.LVL100:
.L35:
	.cfi_restore_state
	.loc 1 440 20
	li	a0,-20480
.LVL101:
	addi	a0,a0,128
	j	.L33
	.cfi_endproc
.LFE20:
	.size	mbedtls_ecdh_read_params, .-mbedtls_ecdh_read_params
	.section	.text.mbedtls_ecdh_get_params,"ax",@progbits
	.align	1
	.globl	mbedtls_ecdh_get_params
	.type	mbedtls_ecdh_get_params, @function
mbedtls_ecdh_get_params:
.LFB22:
	.loc 1 472 1 is_stmt 1
	.cfi_startproc
.LVL102:
	.loc 1 473 5
	.loc 1 474 5
	.loc 1 474 10
	.loc 1 474 17
	.loc 1 475 5
	.loc 1 475 10
	.loc 1 475 17
	.loc 1 476 5
	.loc 1 476 10
	.loc 1 476 17
	.loc 1 479 5
.LBB64:
.LBB65:
	.loc 1 53 5
.LBE65:
.LBE64:
	.loc 1 472 1 is_stmt 0
	addi	sp,sp,-16
	.cfi_def_cfa_offset 16
	sw	s0,8(sp)
	sw	s1,4(sp)
	sw	s2,0(sp)
	sw	ra,12(sp)
	.cfi_offset 8, -8
	.cfi_offset 9, -12
	.cfi_offset 18, -16
	.cfi_offset 1, -4
.LBB67:
.LBB66:
	.loc 1 53 16
	lw	a5,4(a0)
.LVL103:
.LBE66:
.LBE67:
	.loc 1 472 1
	mv	s1,a1
	mv	s0,a0
	.loc 1 483 21
	lw	a1,0(a1)
.LVL104:
	.loc 1 472 1
	mv	s2,a2
	.loc 1 479 7
	bne	a5,zero,.L38
	.loc 1 483 9 is_stmt 1
	.loc 1 483 21 is_stmt 0
	call	mbedtls_ecdh_setup
.LVL105:
	.loc 1 483 11
	bne	a0,zero,.L37
.LVL106:
.L42:
	.loc 1 498 5 is_stmt 1
	lw	a5,8(s0)
	li	a4,1
	beq	a5,a4,.L40
.L41:
	.loc 1 492 19 is_stmt 0
	li	a0,-20480
	addi	a0,a0,128
.L37:
	.loc 1 517 1
	lw	ra,12(sp)
	.cfi_remember_state
	.cfi_restore 1
	lw	s0,8(sp)
	.cfi_restore 8
.LVL107:
	lw	s1,4(sp)
	.cfi_restore 9
.LVL108:
	lw	s2,0(sp)
	.cfi_restore 18
.LVL109:
	addi	sp,sp,16
	.cfi_def_cfa_offset 0
	jr	ra
.LVL110:
.L38:
	.cfi_restore_state
	.loc 1 491 9 is_stmt 1
	.loc 1 53 5
	.loc 1 491 11 is_stmt 0
	beq	a5,a1,.L42
	j	.L41
.LVL111:
.L40:
	.loc 1 511 13 is_stmt 1
.LBB68:
.LBB69:
	.loc 1 449 5
	.loc 1 452 5
	.loc 1 452 7 is_stmt 0
	bne	s2,a5,.L43
	.loc 1 453 9 is_stmt 1
	.loc 1 453 17 is_stmt 0
	addi	a0,s0,184
.LBE69:
.LBE68:
	.loc 1 517 1
	lw	s0,8(sp)
	.cfi_remember_state
	.cfi_restore 8
.LVL112:
	lw	ra,12(sp)
	.cfi_restore 1
	lw	s2,0(sp)
	.cfi_restore 18
.LVL113:
.LBB74:
.LBB70:
	.loc 1 453 17
	addi	a1,s1,136
.LBE70:
.LBE74:
	.loc 1 517 1
	lw	s1,4(sp)
	.cfi_restore 9
.LVL114:
	addi	sp,sp,16
	.cfi_def_cfa_offset 0
.LBB75:
.LBB71:
	.loc 1 453 17
	tail	mbedtls_ecp_copy
.LVL115:
.L43:
	.cfi_restore_state
	.loc 1 456 5 is_stmt 1
	.loc 1 456 7 is_stmt 0
	bne	s2,zero,.L41
	.loc 1 459 5 is_stmt 1
	.loc 1 459 17 is_stmt 0
	addi	a1,s1,136
	addi	a0,s0,148
	call	mbedtls_ecp_copy
.LVL116:
	.loc 1 459 7
	bne	a0,zero,.L37
	.loc 1 460 17
	addi	a0,s0,136
.LVL117:
.LBE71:
.LBE75:
	.loc 1 517 1
	lw	s0,8(sp)
	.cfi_restore 8
.LVL118:
	lw	ra,12(sp)
	.cfi_restore 1
	lw	s2,0(sp)
	.cfi_restore 18
.LVL119:
.LBB76:
.LBB72:
	.loc 1 460 17
	addi	a1,s1,124
.LBE72:
.LBE76:
	.loc 1 517 1
	lw	s1,4(sp)
	.cfi_restore 9
.LVL120:
	addi	sp,sp,16
	.cfi_def_cfa_offset 0
.LBB77:
.LBB73:
	.loc 1 460 17
	tail	mbedtls_mpi_copy
.LVL121:
.LBE73:
.LBE77:
	.cfi_endproc
.LFE22:
	.size	mbedtls_ecdh_get_params, .-mbedtls_ecdh_get_params
	.section	.text.mbedtls_ecdh_make_public,"ax",@progbits
	.align	1
	.globl	mbedtls_ecdh_make_public
	.type	mbedtls_ecdh_make_public, @function
mbedtls_ecdh_make_public:
.LFB24:
	.loc 1 564 1 is_stmt 1
	.cfi_startproc
.LVL122:
	.loc 1 565 5
	.loc 1 566 5
	.loc 1 566 10
	.loc 1 566 17
	.loc 1 567 5
	.loc 1 567 10
	.loc 1 567 17
	.loc 1 568 5
	.loc 1 568 10
	.loc 1 568 17
	.loc 1 569 5
	.loc 1 569 10
	.loc 1 569 17
	.loc 1 579 5
	.loc 1 564 1 is_stmt 0
	addi	sp,sp,-32
	.cfi_def_cfa_offset 32
	sw	s1,20(sp)
	sw	s2,16(sp)
	sw	ra,28(sp)
	sw	s0,24(sp)
	sw	s3,12(sp)
	sw	s4,8(sp)
	sw	s5,4(sp)
	.cfi_offset 9, -12
	.cfi_offset 18, -16
	.cfi_offset 1, -4
	.cfi_offset 8, -8
	.cfi_offset 19, -20
	.cfi_offset 20, -24
	.cfi_offset 21, -28
	.loc 1 564 1
	mv	s1,a2
	.loc 1 579 5
	lw	a2,8(a0)
.LVL123:
	.loc 1 564 1
	mv	s2,a3
	mv	a3,a4
.LVL124:
	mv	a4,a5
.LVL125:
	.loc 1 579 5
	li	a5,1
.LVL126:
	bne	a2,a5,.L48
	.loc 1 587 13 is_stmt 1
.LBB80:
.LBB81:
	.loc 1 533 7 is_stmt 0
	lw	a5,100(a0)
.LBE81:
.LBE80:
	.loc 1 588 51
	lbu	s5,0(a0)
.LVL127:
.LBB87:
.LBB82:
	.loc 1 528 5 is_stmt 1
	.loc 1 533 5
	.loc 1 533 7 is_stmt 0
	beq	a5,zero,.L48
	.loc 1 548 17
	addi	s4,a0,148
	addi	s3,a0,12
.LVL128:
	mv	s0,a1
	.loc 1 540 5 is_stmt 1
	.loc 1 548 5
	.loc 1 548 17 is_stmt 0
	mv	a2,s4
	addi	a1,a0,136
.LVL129:
	mv	a0,s3
.LVL130:
	call	mbedtls_ecdh_gen_public
.LVL131:
	.loc 1 548 7
	bne	a0,zero,.L45
	.loc 1 553 5 is_stmt 1
	.loc 1 553 12 is_stmt 0
	mv	a3,s0
.LBE82:
.LBE87:
	.loc 1 595 1
	lw	s0,24(sp)
	.cfi_remember_state
	.cfi_restore 8
.LVL132:
	lw	ra,28(sp)
	.cfi_restore 1
.LBB88:
.LBB83:
	.loc 1 553 12
	mv	a5,s2
	mv	a4,s1
.LBE83:
.LBE88:
	.loc 1 595 1
	lw	s2,16(sp)
	.cfi_restore 18
.LVL133:
	lw	s1,20(sp)
	.cfi_restore 9
.LVL134:
.LBB89:
.LBB84:
	.loc 1 553 12
	mv	a2,s5
	mv	a1,s4
.LBE84:
.LBE89:
	.loc 1 595 1
	lw	s5,4(sp)
	.cfi_restore 21
.LVL135:
	lw	s4,8(sp)
	.cfi_restore 20
.LBB90:
.LBB85:
	.loc 1 553 12
	mv	a0,s3
.LVL136:
.LBE85:
.LBE90:
	.loc 1 595 1
	lw	s3,12(sp)
	.cfi_restore 19
.LVL137:
	addi	sp,sp,32
	.cfi_def_cfa_offset 0
.LBB91:
.LBB86:
	.loc 1 553 12
	tail	mbedtls_ecp_tls_write_point
.LVL138:
.L48:
	.cfi_restore_state
.LBE86:
.LBE91:
	.loc 1 592 20
	li	a0,-20480
.LVL139:
	addi	a0,a0,128
.LVL140:
.L45:
	.loc 1 595 1
	lw	ra,28(sp)
	.cfi_restore 1
	lw	s0,24(sp)
	.cfi_restore 8
	lw	s1,20(sp)
	.cfi_restore 9
.LVL141:
	lw	s2,16(sp)
	.cfi_restore 18
.LVL142:
	lw	s3,12(sp)
	.cfi_restore 19
	lw	s4,8(sp)
	.cfi_restore 20
	lw	s5,4(sp)
	.cfi_restore 21
	addi	sp,sp,32
	.cfi_def_cfa_offset 0
	jr	ra
	.cfi_endproc
.LFE24:
	.size	mbedtls_ecdh_make_public, .-mbedtls_ecdh_make_public
	.section	.text.mbedtls_ecdh_read_public,"ax",@progbits
	.align	1
	.globl	mbedtls_ecdh_read_public
	.type	mbedtls_ecdh_read_public, @function
mbedtls_ecdh_read_public:
.LFB26:
	.loc 1 618 1 is_stmt 1
	.cfi_startproc
.LVL143:
	.loc 1 619 5
	.loc 1 619 10
	.loc 1 619 17
	.loc 1 620 5
	.loc 1 620 10
	.loc 1 620 17
	.loc 1 625 5
	lw	a4,8(a0)
	li	a5,1
	bne	a4,a5,.L53
	.loc 1 618 1 is_stmt 0
	addi	sp,sp,-32
	.cfi_def_cfa_offset 32
	sw	s0,24(sp)
	sw	s1,20(sp)
	.cfi_offset 8, -8
	.cfi_offset 9, -12
	mv	s0,a2
	.loc 1 633 13 is_stmt 1
.LVL144:
.LBB94:
.LBB95:
	.loc 1 600 5
	.loc 1 601 5
	mv	s1,a1
	.loc 1 601 26 is_stmt 0
	sw	a1,12(sp)
	.loc 1 603 5 is_stmt 1
	.loc 1 603 17 is_stmt 0
	mv	a3,a2
	addi	a1,a0,184
.LVL145:
	addi	a2,sp,12
.LVL146:
	addi	a0,a0,12
.LVL147:
.LBE95:
.LBE94:
	.loc 1 618 1
	sw	ra,28(sp)
	.cfi_offset 1, -4
.LBB97:
.LBB96:
	.loc 1 603 17
	call	mbedtls_ecp_tls_read_point
.LVL148:
	.loc 1 603 7
	bne	a0,zero,.L50
	.loc 1 607 5 is_stmt 1
	.loc 1 607 21 is_stmt 0
	lw	a1,12(sp)
	sub	s1,a1,s1
.LVL149:
	.loc 1 607 7
	beq	s1,s0,.L50
	.loc 1 608 15
	li	a0,-20480
.LVL150:
	addi	a0,a0,128
.LVL151:
.L50:
.LBE96:
.LBE97:
	.loc 1 639 1
	lw	ra,28(sp)
	.cfi_restore 1
	lw	s0,24(sp)
	.cfi_restore 8
.LVL152:
	lw	s1,20(sp)
	.cfi_restore 9
	addi	sp,sp,32
	.cfi_def_cfa_offset 0
	jr	ra
.LVL153:
.L53:
	.loc 1 636 20
	li	a0,-20480
.LVL154:
	addi	a0,a0,128
	.loc 1 639 1
	ret
	.cfi_endproc
.LFE26:
	.size	mbedtls_ecdh_read_public, .-mbedtls_ecdh_read_public
	.section	.text.mbedtls_ecdh_calc_secret,"ax",@progbits
	.align	1
	.globl	mbedtls_ecdh_calc_secret
	.type	mbedtls_ecdh_calc_secret, @function
mbedtls_ecdh_calc_secret:
.LFB28:
	.loc 1 698 1 is_stmt 1
	.cfi_startproc
.LVL155:
	.loc 1 699 5
	.loc 1 700 5
	.loc 1 700 10
	.loc 1 700 17
	.loc 1 701 5
	.loc 1 701 10
	.loc 1 701 17
	.loc 1 702 5
	.loc 1 702 10
	.loc 1 702 17
	.loc 1 712 5
	.loc 1 698 1 is_stmt 0
	addi	sp,sp,-32
	.cfi_def_cfa_offset 32
	sw	s2,16(sp)
	sw	s5,4(sp)
	sw	ra,28(sp)
	sw	s0,24(sp)
	sw	s1,20(sp)
	sw	s3,12(sp)
	sw	s4,8(sp)
	.cfi_offset 18, -16
	.cfi_offset 21, -28
	.cfi_offset 1, -4
	.cfi_offset 8, -8
	.cfi_offset 9, -12
	.cfi_offset 19, -20
	.cfi_offset 20, -24
	.loc 1 698 1
	mv	s2,a2
	.loc 1 712 5
	lw	a2,8(a0)
.LVL156:
	.loc 1 698 1
	mv	s5,a3
	.loc 1 712 5
	li	a3,1
.LVL157:
	beq	a2,a3,.L59
.LVL158:
.L61:
	.loc 1 724 19
	li	a0,-20480
	addi	a0,a0,128
.L58:
	.loc 1 727 1
	lw	ra,28(sp)
	.cfi_remember_state
	.cfi_restore 1
	lw	s0,24(sp)
	.cfi_restore 8
	lw	s1,20(sp)
	.cfi_restore 9
	lw	s2,16(sp)
	.cfi_restore 18
.LVL159:
	lw	s3,12(sp)
	.cfi_restore 19
	lw	s4,8(sp)
	.cfi_restore 20
	lw	s5,4(sp)
	.cfi_restore 21
.LVL160:
	addi	sp,sp,32
	.cfi_def_cfa_offset 0
	jr	ra
.LVL161:
.L59:
	.cfi_restore_state
.LBB100:
.LBB101:
	.loc 1 655 20
	lw	a3,100(a0)
	mv	s0,a0
.LBE101:
.LBE100:
	.loc 1 720 13 is_stmt 1
	.loc 1 720 21 is_stmt 0
	addi	s4,a0,12
.LVL162:
.LBB107:
.LBB102:
	.loc 1 650 5 is_stmt 1
	.loc 1 655 5
	.loc 1 655 20 is_stmt 0
	beq	a3,zero,.L61
.LVL163:
	.loc 1 673 17
	addi	s1,a0,220
	mv	s3,a1
	.loc 1 662 5 is_stmt 1
	.loc 1 673 5
	.loc 1 673 17 is_stmt 0
	addi	a3,a0,136
	addi	a2,a0,184
	mv	a1,s1
.LVL164:
	mv	a0,s4
	call	mbedtls_ecdh_compute_shared
.LVL165:
	.loc 1 673 7
	bne	a0,zero,.L58
	.loc 1 680 5 is_stmt 1
	.loc 1 680 9 is_stmt 0
	mv	a0,s1
.LVL166:
	call	mbedtls_mpi_size
.LVL167:
	.loc 1 680 7
	bltu	s5,a0,.L61
	.loc 1 683 5 is_stmt 1
	.loc 1 683 21 is_stmt 0
	lw	a4,100(s0)
	.loc 1 685 9
	mv	a0,s4
	.loc 1 683 53
	andi	a5,a4,7
	.loc 1 683 59
	snez	a5,a5
	.loc 1 683 28
	srli	a4,a4,3
	.loc 1 683 32
	add	a5,a5,a4
	.loc 1 683 11
	sw	a5,0(s3)
	.loc 1 685 5 is_stmt 1
	.loc 1 685 9 is_stmt 0
	call	mbedtls_ecp_get_type
.LVL168:
	.loc 1 685 7
	li	a5,2
	lw	a2,0(s3)
	.loc 1 686 16
	mv	a1,s2
	.loc 1 685 7
	bne	a0,a5,.L62
.LVL169:
	.loc 1 686 9 is_stmt 1
.LBE102:
.LBE107:
	.loc 1 727 1 is_stmt 0
	lw	s0,24(sp)
	.cfi_remember_state
	.cfi_restore 8
.LVL170:
	lw	ra,28(sp)
	.cfi_restore 1
	lw	s2,16(sp)
	.cfi_restore 18
	lw	s3,12(sp)
	.cfi_restore 19
.LVL171:
	lw	s4,8(sp)
	.cfi_restore 20
.LVL172:
	lw	s5,4(sp)
	.cfi_restore 21
.LVL173:
.LBB108:
.LBB103:
	.loc 1 686 16
	mv	a0,s1
.LBE103:
.LBE108:
	.loc 1 727 1
	lw	s1,20(sp)
	.cfi_restore 9
.LVL174:
	addi	sp,sp,32
	.cfi_def_cfa_offset 0
.LBB109:
.LBB104:
	.loc 1 686 16
	tail	mbedtls_mpi_write_binary_le
.LVL175:
.L62:
	.cfi_restore_state
	.loc 1 688 5 is_stmt 1
.LBE104:
.LBE109:
	.loc 1 727 1 is_stmt 0
	lw	s0,24(sp)
	.cfi_restore 8
.LVL176:
	lw	ra,28(sp)
	.cfi_restore 1
	lw	s2,16(sp)
	.cfi_restore 18
	lw	s3,12(sp)
	.cfi_restore 19
.LVL177:
	lw	s4,8(sp)
	.cfi_restore 20
.LVL178:
	lw	s5,4(sp)
	.cfi_restore 21
.LVL179:
.LBB110:
.LBB105:
	.loc 1 688 12
	mv	a0,s1
.LBE105:
.LBE110:
	.loc 1 727 1
	lw	s1,20(sp)
	.cfi_restore 9
.LVL180:
	addi	sp,sp,32
	.cfi_def_cfa_offset 0
.LBB111:
.LBB106:
	.loc 1 688 12
	tail	mbedtls_mpi_write_binary
.LVL181:
.LBE106:
.LBE111:
	.cfi_endproc
.LFE28:
	.size	mbedtls_ecdh_calc_secret, .-mbedtls_ecdh_calc_secret
	.text
.Letext0:
	.file 2 "/home/anh/Desktop/wb2/Ai-Thinker-WB2/toolchain/riscv/Linux/lib/gcc/riscv64-unknown-elf/10.2.0/include/stddef.h"
	.file 3 "/home/anh/Desktop/wb2/Ai-Thinker-WB2/toolchain/riscv/Linux/lib/gcc/riscv64-unknown-elf/10.2.0/include/stdint-gcc.h"
	.file 4 "/home/anh/Desktop/wb2/Ai-Thinker-WB2/components/security/mbedtls_lts/mbedtls/include/mbedtls/bignum.h"
	.file 5 "/home/anh/Desktop/wb2/Ai-Thinker-WB2/components/security/mbedtls_lts/mbedtls/include/mbedtls/ecp.h"
	.file 6 "/home/anh/Desktop/wb2/Ai-Thinker-WB2/components/security/mbedtls_lts/mbedtls/include/mbedtls/ecdh.h"
	.file 7 "/home/anh/Desktop/wb2/Ai-Thinker-WB2/toolchain/riscv/Linux/riscv64-unknown-elf/include/string.h"