	.file	"tasks.c"
	.option nopic
	.attribute arch, "rv32i2p0_m2p0_f2p0_c2p0"
	.attribute unaligned_access, 0
	.attribute stack_align, 16
	.text
.Ltext0:
	.cfi_sections	.debug_frame
	.section	.text.prvAddCurrentTaskToDelayedList,"ax",@progbits
	.align	1
	.type	prvAddCurrentTaskToDelayedList, @function
prvAddCurrentTaskToDelayedList:
.LFB77:
	.file 1 "/home/anh/Desktop/wb2/Ai-Thinker-WB2/components/platform/soc/bl602/freertos_riscv_ram/tasks.c"
	.loc 1 5352 1
	.cfi_startproc
.LVL0:
	.loc 1 5353 1
	.loc 1 5354 1
	.loc 1 5352 1 is_stmt 0
	addi	sp,sp,-32
	.cfi_def_cfa_offset 32
	sw	s1,20(sp)
	.cfi_offset 9, -12
	.loc 1 5367 35
	lui	s1,%hi(.LANCHOR1)
	.loc 1 5354 18
	lui	a5,%hi(.LANCHOR0)
	.loc 1 5367 35
	addi	s1,s1,%lo(.LANCHOR1)
	.loc 1 5352 1
	sw	s2,16(sp)
	.cfi_offset 18, -16
	.loc 1 5354 18
	lw	s2,%lo(.LANCHOR0)(a5)
.LVL1:
	.loc 1 5367 2 is_stmt 1
	.loc 1 5367 35 is_stmt 0
	lw	a5,0(s1)
	.loc 1 5352 1
	sw	s0,24(sp)
	.cfi_offset 8, -8
	mv	s0,a0
	.loc 1 5367 6
	addi	a0,a5,4
.LVL2:
	.loc 1 5352 1
	sw	s3,12(sp)
	sw	ra,28(sp)
	.cfi_offset 19, -20
	.cfi_offset 1, -4
	.loc 1 5352 1
	mv	s3,a1
	.loc 1 5367 6
	call	uxListRemove
.LVL3:
	.loc 1 5367 4
	bne	a0,zero,.L2
	.loc 1 5371 3 is_stmt 1
	.loc 1 5371 53 is_stmt 0
	lw	a5,0(s1)
	.loc 1 5371 26
	lui	a4,%hi(.LANCHOR2)
	addi	a4,a4,%lo(.LANCHOR2)
	.loc 1 5371 36
	lw	a2,44(a5)
	.loc 1 5371 26
	lw	a3,0(a4)
	.loc 1 5371 36
	li	a5,1
	sll	a5,a5,a2
	.loc 1 5371 29
	not	a5,a5
	.loc 1 5371 26
	and	a5,a5,a3
	sw	a5,0(a4)
.L2:
	.loc 1 5375 3 is_stmt 1
	.loc 1 5380 3
	.loc 1 5380 5 is_stmt 0
	li	a5,-1
	beq	s0,a5,.L11
.L3:
	.loc 1 5392 4 is_stmt 1
	.loc 1 5395 23 is_stmt 0
	lw	a5,0(s1)
	.loc 1 5392 16
	add	s0,s2,s0
.LVL4:
	.loc 1 5395 4 is_stmt 1
	.loc 1 5395 56 is_stmt 0
	sw	s0,4(a5)
	.loc 1 5397 4 is_stmt 1
	.loc 1 5397 6 is_stmt 0
	bgtu	s2,s0,.L12
	.loc 1 5407 5 is_stmt 1
	lui	a5,%hi(.LANCHOR5)
	lw	a0,%lo(.LANCHOR5)(a5)
	.loc 1 5407 52 is_stmt 0
	lw	a1,0(s1)
	.loc 1 5407 5
	addi	a1,a1,4
	call	vListInsert
.LVL5:
	.loc 1 5412 5 is_stmt 1
	.loc 1 5412 21 is_stmt 0
	lui	a5,%hi(.LANCHOR6)
	addi	a5,a5,%lo(.LANCHOR6)
	lw	a4,0(a5)
	.loc 1 5412 7
	bleu	a4,s0,.L1
	.loc 1 5414 6 is_stmt 1
	.loc 1 5414 27 is_stmt 0
	sw	s0,0(a5)
	.loc 1 5418 6 is_stmt 1
.L1:
	.loc 1 5460 1 is_stmt 0
	lw	ra,28(sp)
	.cfi_remember_state
	.cfi_restore 1
	lw	s0,24(sp)
	.cfi_restore 8
.LVL6:
	lw	s1,20(sp)
	.cfi_restore 9
	lw	s2,16(sp)
	.cfi_restore 18
.LVL7:
	lw	s3,12(sp)
	.cfi_restore 19
.LVL8:
	addi	sp,sp,32
	.cfi_def_cfa_offset 0
	jr	ra
.LVL9:
.L12:
	.cfi_restore_state
	.loc 1 5401 5 is_stmt 1
	lui	a5,%hi(.LANCHOR4)
	lw	a0,%lo(.LANCHOR4)(a5)
	.loc 1 5460 1 is_stmt 0
	lw	s0,24(sp)
	.cfi_remember_state
	.cfi_restore 8
.LVL10:
	.loc 1 5401 60
	lw	a1,0(s1)
	.loc 1 5460 1
	lw	ra,28(sp)
	.cfi_restore 1
	lw	s1,20(sp)
	.cfi_restore 9
	lw	s2,16(sp)
	.cfi_restore 18
.LVL11:
	lw	s3,12(sp)
	.cfi_restore 19
.LVL12:
	.loc 1 5401 5
	addi	a1,a1,4
	.loc 1 5460 1
	addi	sp,sp,32
	.cfi_def_cfa_offset 0
	.loc 1 5401 5
	tail	vListInsert
.LVL13:
.L11:
	.cfi_restore_state
	.loc 1 5380 55 discriminator 1
	beq	s3,zero,.L3
	.loc 1 5385 4 is_stmt 1
	.loc 1 5385 56 is_stmt 0
	lw	a1,0(s1)
	.loc 1 5460 1
	lw	s0,24(sp)
	.cfi_restore 8
.LVL14:
	lw	ra,28(sp)
	.cfi_restore 1
	lw	s1,20(sp)
	.cfi_restore 9
	lw	s2,16(sp)
	.cfi_restore 18
.LVL15:
	lw	s3,12(sp)
	.cfi_restore 19
.LVL16:
	.loc 1 5385 4
	lui	a0,%hi(.LANCHOR3)
	.loc 1 5460 1
	.loc 1 5385 4
	addi	a0,a0,%lo(.LANCHOR3)
	addi	a1,a1,4
	.loc 1 5460 1
	addi	sp,sp,32
	.cfi_def_cfa_offset 0
	.loc 1 5385 4
	tail	vListInsertEnd
.LVL17:
	.cfi_endproc
.LFE77:
	.size	prvAddCurrentTaskToDelayedList, .-prvAddCurrentTaskToDelayedList
	.section	.text.prvAddTaskToAllListWithSingleList.part.0,"ax",@progbits
	.align	1
	.type	prvAddTaskToAllListWithSingleList.part.0, @function
prvAddTaskToAllListWithSingleList.part.0:
.LFB81:
	.loc 1 3965 21 is_stmt 1
	.cfi_startproc
.LVL18:
.LBB47:
	.loc 1 3973 6
.LBE47:
	.loc 1 3965 21 is_stmt 0
	addi	sp,sp,-48
	.cfi_def_cfa_offset 48
	sw	s2,32(sp)
	sw	s4,24(sp)
	sw	ra,44(sp)
	sw	s0,40(sp)
	sw	s1,36(sp)
	sw	s3,28(sp)
	sw	s5,20(sp)
	sw	s6,16(sp)
	sw	s7,12(sp)
	.cfi_offset 18, -16
	.cfi_offset 20, -24
	.cfi_offset 1, -4
	.cfi_offset 8, -8
	.cfi_offset 9, -12
	.cfi_offset 19, -20
	.cfi_offset 21, -28
	.cfi_offset 22, -32
	.cfi_offset 23, -36
.LBB48:
	.loc 1 3973 98
	lw	a5,4(a0)
	.loc 1 3973 162
	addi	s4,a0,8
.LBE48:
	.loc 1 3965 21
	mv	s2,a0
.LVL19:
.LBB49:
	.loc 1 3973 47 is_stmt 1
	.loc 1 3973 98 is_stmt 0
	lw	a5,4(a5)
	.loc 1 3973 72
	sw	a5,4(a0)
	.loc 1 3973 108 is_stmt 1
	.loc 1 3973 110 is_stmt 0
	beq	a5,s4,.L21
.L14:
	.loc 1 3973 260 is_stmt 1
	.loc 1 3973 275 is_stmt 0
	lw	s6,12(a5)
.LVL20:
.LBE49:
	.loc 1 3968 14
	li	s3,0
	lui	s5,%hi(.LANCHOR7)
	.loc 1 3982 29
	lui	s7,%hi(.LANCHOR1)
	j	.L18
.LVL21:
.L15:
.LBB50:
	.loc 1 3981 275
	lw	s1,12(a5)
.LVL22:
.LBE50:
	.loc 1 3981 313 is_stmt 1
	.loc 1 3982 5
	mv	s0,s1
	.loc 1 3982 29 is_stmt 0
	beq	s1,zero,.L22
.L16:
.LVL23:
	.loc 1 3983 5 is_stmt 1
	addi	s0,s0,4
.LVL24:
	mv	a0,s0
	call	uxListRemove
.LVL25:
	.loc 1 3983 53
	mv	a1,s0
	addi	a0,s5,%lo(.LANCHOR7)
	call	vListInsertEnd
.LVL26:
	.loc 1 3984 5
	.loc 1 3985 11
	.loc 1 3985 4 is_stmt 0
	beq	s6,s1,.L13
.LBB51:
	.loc 1 3981 90
	lw	a5,4(s2)
.LVL27:
.L18:
.LBE51:
	.loc 1 3973 313 is_stmt 1
	.loc 1 3979 4
.LBB52:
	.loc 1 3981 7
	.loc 1 3981 48
	.loc 1 3981 261
	.loc 1 3981 99 is_stmt 0
	lw	a5,4(a5)
.LBE52:
	.loc 1 3984 11
	addi	s3,s3,1
.LVL28:
.LBB53:
	.loc 1 3981 73
	sw	a5,4(s2)
	.loc 1 3981 109 is_stmt 1
	.loc 1 3981 111 is_stmt 0
	bne	s4,a5,.L15
	.loc 1 3981 198 is_stmt 1
	.loc 1 3981 249 is_stmt 0
	lw	a5,4(s4)
	.loc 1 3981 223
	sw	a5,4(s2)
	.loc 1 3981 275
	lw	s1,12(a5)
.LVL29:
.LBE53:
	.loc 1 3981 313 is_stmt 1
	.loc 1 3982 5
	mv	s0,s1
	.loc 1 3982 29 is_stmt 0
	bne	s1,zero,.L16
.LVL30:
.L22:
	addi	a5,s7,%lo(.LANCHOR1)
	lw	s0,0(a5)
.LVL31:
	j	.L16
.LVL32:
.L13:
	.loc 1 3993 2
	lw	ra,44(sp)
	.cfi_remember_state
	.cfi_restore 1
	lw	s0,40(sp)
	.cfi_restore 8
.LVL33:
	lw	s1,36(sp)
	.cfi_restore 9
.LVL34:
	lw	s2,32(sp)
	.cfi_restore 18
.LVL35:
	lw	s4,24(sp)
	.cfi_restore 20
.LVL36:
	lw	s5,20(sp)
	.cfi_restore 21
	lw	s6,16(sp)
	.cfi_restore 22
.LVL37:
	lw	s7,12(sp)
	.cfi_restore 23
	mv	a0,s3
	lw	s3,28(sp)
	.cfi_restore 19
.LVL38:
	addi	sp,sp,48
	.cfi_def_cfa_offset 0
	jr	ra
.LVL39:
.L21:
	.cfi_restore_state
.LBB54:
	.loc 1 3973 197 is_stmt 1
	.loc 1 3973 248 is_stmt 0
	lw	a5,12(a0)
	.loc 1 3973 222
	sw	a5,4(a0)
	j	.L14
.LBE54:
	.cfi_endproc
.LFE81:
	.size	prvAddTaskToAllListWithSingleList.part.0, .-prvAddTaskToAllListWithSingleList.part.0
	.globl	__clzsi2
	.section	.text.vTaskSwitchContext.part.0,"ax",@progbits
	.align	1
	.type	vTaskSwitchContext.part.0, @function
vTaskSwitchContext.part.0:
.LFB83:
	.loc 1 3170 6 is_stmt 1
	.cfi_startproc
	.loc 1 3180 3
	.loc 1 3170 6 is_stmt 0
	addi	sp,sp,-32
	.cfi_def_cfa_offset 32
	sw	s2,16(sp)
	.loc 1 3180 17
	lui	a5,%hi(.LANCHOR8)
	.cfi_offset 18, -16
.LBB55:
	.loc 1 3211 66
	lui	s2,%hi(.LANCHOR1)
.LBE55:
	.loc 1 3180 17
	sw	zero,%lo(.LANCHOR8)(a5)
	.loc 1 3181 3 is_stmt 1
.LBB56:
	.loc 1 3211 5
	.loc 1 3211 66 is_stmt 0
	addi	s2,s2,%lo(.LANCHOR1)
	lw	a4,0(s2)
.LBE56:
	.loc 1 3170 6
	sw	ra,28(sp)
	sw	s0,24(sp)
	sw	s1,20(sp)
	sw	s3,12(sp)
	.cfi_offset 1, -4
	.cfi_offset 8, -8
	.cfi_offset 9, -12
	.cfi_offset 19, -20
.LBB57:
	.loc 1 3211 28
	lw	a4,48(a4)
.LVL40:
	.loc 1 3211 77 is_stmt 1
	.loc 1 3211 132
	.loc 1 3211 134 is_stmt 0
	li	a5,-1515872256
	addi	a5,a5,1445
	lw	a3,0(a4)
	bne	a3,a5,.L24
	.loc 1 3211 170
	lw	a5,4(a4)
	beq	a5,a3,.L29
.L24:
	.loc 1 3211 285 is_stmt 1
	lw	a0,0(s2)
	.loc 1 3211 359 is_stmt 0
	lw	a1,0(s2)
	.loc 1 3211 285
	addi	a1,a1,52
	call	vApplicationStackOverflowHook
.LVL41:
.L25:
.LBE57:
	.loc 1 3211 378 is_stmt 1
.LBB58:
	.loc 1 3222 5
	.loc 1 3222 32
	.loc 1 3222 57 is_stmt 0
	lui	a5,%hi(.LANCHOR2)
	lw	a0,%lo(.LANCHOR2)(a5)
	.loc 1 3222 46
	li	s0,31
	.loc 1 3222 147
	lui	s1,%hi(.LANCHOR9)
	.loc 1 3222 57
	call	__clzsi2
.LVL42:
	.loc 1 3222 46
	sub	s3,s0,a0
.LVL43:
	.loc 1 3222 96 is_stmt 1
	.loc 1 3222 147 is_stmt 0
	slli	s0,s3,2
	add	a5,s0,s3
	addi	s1,s1,%lo(.LANCHOR9)
	slli	a5,a5,2
	add	a5,s1,a5
	lw	a5,0(a5)
	.loc 1 3222 98
	beq	a5,zero,.L30
.L26:
.LBB59:
	.loc 1 3222 210 is_stmt 1
.LVL44:
	.loc 1 3222 284
	.loc 1 3222 326 is_stmt 0
	add	s0,s0,s3
	slli	s0,s0,2
	add	a4,s1,s0
	.loc 1 3222 335
	lw	a5,4(a4)
	.loc 1 3222 399
	addi	s0,s0,8
	add	s0,s1,s0
	.loc 1 3222 335
	lw	a5,4(a5)
	.loc 1 3222 309
	sw	a5,4(a4)
	.loc 1 3222 345 is_stmt 1
	.loc 1 3222 347 is_stmt 0
	beq	a5,s0,.L31
.L27:
	.loc 1 3222 497 is_stmt 1
	.loc 1 3222 540 is_stmt 0
	lw	a5,12(a5)
.LBE59:
.LBE58:
	.loc 1 3240 1
	lw	ra,28(sp)
	.cfi_remember_state
	.cfi_restore 1
	lw	s0,24(sp)
	.cfi_restore 8
.LBB62:
.LBB60:
	.loc 1 3222 514
	sw	a5,0(s2)
.LBE60:
	.loc 1 3222 552 is_stmt 1
.LBE62:
	.loc 1 3222 555
	.loc 1 3223 3
	.loc 1 3240 1 is_stmt 0
	lw	s1,20(sp)
	.cfi_restore 9
	lw	s2,16(sp)
	.cfi_restore 18
	lw	s3,12(sp)
	.cfi_restore 19
.LVL45:
	addi	sp,sp,32
	.cfi_def_cfa_offset 0
	jr	ra
.LVL46:
.L30:
	.cfi_restore_state
.LBB63:
	.loc 1 3222 180 is_stmt 1
	li	a0,2
	call	vEnvironmentCall
.LVL47:
	j	.L26
.LVL48:
.L31:
.LBB61:
	.loc 1 3222 434
	.loc 1 3222 485 is_stmt 0
	lw	a5,4(a5)
	.loc 1 3222 459
	sw	a5,4(a4)
	j	.L27
.LVL49:
.L29:
.LBE61:
.LBE63:
.LBB64:
	.loc 1 3211 207
	lw	a3,8(a4)
	bne	a3,a5,.L24
	.loc 1 3211 244
	lw	a5,12(a4)
	bne	a5,a3,.L24
	j	.L25
.LBE64:
	.cfi_endproc
.LFE83:
	.size	vTaskSwitchContext.part.0, .-vTaskSwitchContext.part.0
	.section	.text.prvInitialiseNewTask.constprop.0,"ax",@progbits
	.align	1
	.type	prvInitialiseNewTask.constprop.0, @function
prvInitialiseNewTask.constprop.0:
.LFB90:
	.loc 1 866 13 is_stmt 1
	.cfi_startproc
.LVL50:
	addi	sp,sp,-32
	.cfi_def_cfa_offset 32
	sw	s0,24(sp)
	sw	s1,20(sp)
	sw	s2,16(sp)
	sw	s3,12(sp)
	sw	s4,8(sp)
	sw	s5,4(sp)
	sw	s6,0(sp)
	sw	ra,28(sp)
	.cfi_offset 8, -8
	.cfi_offset 9, -12
	.cfi_offset 18, -16
	.cfi_offset 19, -20
	.cfi_offset 20, -24
	.cfi_offset 21, -28
	.cfi_offset 22, -32
	.cfi_offset 1, -4
	.loc 1 866 13 is_stmt 0
	mv	s4,a0
	.loc 1 896 12
	lw	a0,48(a6)
.LVL51:
	slli	s3,a2,2
	mv	a2,s3
.LVL52:
	.loc 1 866 13
	mv	s0,a1
	.loc 1 896 12
	li	a1,165
.LVL53:
	.loc 1 875 1 is_stmt 1
	.loc 1 876 1
	.loc 1 896 3
	.loc 1 866 13 is_stmt 0
	mv	s1,a6
	mv	s6,a5
	mv	s5,a3
	mv	s2,a4
	.loc 1 896 12
	call	memset
.LVL54:
	.loc 1 906 3 is_stmt 1
	.loc 1 907 3
	.loc 1 906 16 is_stmt 0
	lw	a5,48(s1)
	.loc 1 906 38
	addi	s3,s3,-4
.LVL55:
	.loc 1 906 16
	add	s3,a5,s3
.LVL56:
	.loc 1 907 68
	andi	s3,s3,-8
.LVL57:
	.loc 1 910 3 is_stmt 1
	.loc 1 934 2
	.loc 1 934 4 is_stmt 0
	beq	s0,zero,.L33
	mv	a1,s0
	addi	a6,s1,52
	addi	a5,s0,16
.L35:
.LVL58:
	.loc 1 938 4 is_stmt 1
	.loc 1 949 5
	.loc 1 936 59
	.loc 1 936 31
	.loc 1 938 38 is_stmt 0
	lbu	a7,0(a1)
	.loc 1 936 3
	addi	a6,a6,1
	addi	a1,a1,1
	.loc 1 938 30
	sb	a7,-1(a6)
	.loc 1 943 4 is_stmt 1
	.loc 1 943 6 is_stmt 0
	beq	a7,zero,.L34
	.loc 1 936 3
	bne	a1,a5,.L35
.L34:
	.loc 1 955 3 is_stmt 1
	.loc 1 955 38 is_stmt 0
	sb	zero,67(s1)
.L36:
	.loc 1 966 2 is_stmt 1
	li	a5,31
	bleu	s2,a5,.L37
	li	s2,31
.LVL59:
.L37:
	.loc 1 972 3
	.loc 1 975 2
	.loc 1 983 2 is_stmt 0
	addi	a0,s1,4
	.loc 1 975 23
	sw	s2,44(s1)
	.loc 1 978 3 is_stmt 1
	.loc 1 978 28 is_stmt 0
	sw	s2,80(s1)
	.loc 1 979 3 is_stmt 1
	.loc 1 979 27 is_stmt 0
	sw	zero,84(s1)
	.loc 1 983 2 is_stmt 1
	call	vListInitialiseItem
.LVL60:
	.loc 1 984 2
	addi	a0,s1,24
	call	vListInitialiseItem
.LVL61:
	.loc 1 988 2
	.loc 1 991 76 is_stmt 0
	li	a5,32
	sub	s0,a5,s2
.LVL62:
	.loc 1 1037 29
	sw	zero,96(s1)
	.loc 1 988 47
	sw	s1,16(s1)
	.loc 1 991 2 is_stmt 1
	.loc 1 991 50 is_stmt 0
	sw	s0,24(s1)
	.loc 1 992 2 is_stmt 1
	.loc 1 992 47 is_stmt 0
	sw	s1,36(s1)
	.loc 1 996 3 is_stmt 1
	.loc 1 996 31 is_stmt 0
	sw	zero,68(s1)
	.loc 1 1019 3 is_stmt 1
	.loc 1 1025 3
.LVL63:
	.loc 1 1025 15
	.loc 1 1027 4
	.loc 1 1027 48 is_stmt 0
	sw	zero,88(s1)
	.loc 1 1029 4 is_stmt 1
	.loc 1 1029 59 is_stmt 0
	sw	zero,92(s1)
	.loc 1 1025 38 is_stmt 1
.LVL64:
	.loc 1 1025 15
	.loc 1 1037 3
	.loc 1 1038 3
	.loc 1 1038 27 is_stmt 0
	sb	zero,100(s1)
	.loc 1 1101 4 is_stmt 1
	.loc 1 1101 29 is_stmt 0
	mv	a2,s5
	mv	a1,s4
	mv	a0,s3
	call	pxPortInitialiseStack
.LVL65:
	.loc 1 1101 27
	sw	a0,0(s1)
	.loc 1 1107 2 is_stmt 1
	.loc 1 1107 4 is_stmt 0
	beq	s6,zero,.L32
	.loc 1 1111 3 is_stmt 1
	.loc 1 1111 18 is_stmt 0
	sw	s1,0(s6)
	.loc 1 1115 3 is_stmt 1
.L32:
	.loc 1 1117 1 is_stmt 0
	lw	ra,28(sp)
	.cfi_remember_state
	.cfi_restore 1
	lw	s0,24(sp)
	.cfi_restore 8
	lw	s1,20(sp)
	.cfi_restore 9
.LVL66:
	lw	s2,16(sp)
	.cfi_restore 18
.LVL67:
	lw	s3,12(sp)
	.cfi_restore 19
.LVL68:
	lw	s4,8(sp)
	.cfi_restore 20
.LVL69:
	lw	s5,4(sp)
	.cfi_restore 21
.LVL70:
	lw	s6,0(sp)
	.cfi_restore 22
.LVL71:
	addi	sp,sp,32
	.cfi_def_cfa_offset 0
	jr	ra
.LVL72:
.L33:
	.cfi_restore_state
	.loc 1 961 3 is_stmt 1
	.loc 1 961 29 is_stmt 0
	sb	zero,52(s1)
	j	.L36
	.cfi_endproc
.LFE90:
	.size	prvInitialiseNewTask.constprop.0, .-prvInitialiseNewTask.constprop.0
	.section	.text.prvIdleTask,"ax",@progbits
	.align	1
	.type	prvIdleTask, @function
prvIdleTask:
.LFB48:
	.loc 1 3558 1 is_stmt 1
	.cfi_startproc
.LVL73:
	addi	sp,sp,-48
	.cfi_def_cfa_offset 48
	sw	s1,36(sp)
	sw	s2,32(sp)
	sw	s3,28(sp)
	sw	s4,24(sp)
	sw	s5,20(sp)
	sw	s8,8(sp)
	.cfi_offset 9, -12
	.cfi_offset 18, -16
	.cfi_offset 19, -20
	.cfi_offset 20, -24
	.cfi_offset 21, -28
	.cfi_offset 24, -40
	lui	s1,%hi(.LANCHOR10)
	lui	s4,%hi(.LANCHOR11)
	lui	s3,%hi(.LANCHOR1)
	lui	s5,%hi(.LANCHOR12)
	lui	s2,%hi(.LANCHOR13)
	lui	s8,%hi(.LANCHOR9)
	sw	s6,16(sp)
	sw	s7,12(sp)
	sw	ra,44(sp)
	sw	s0,40(sp)
	.cfi_offset 22, -32
	.cfi_offset 23, -36
	.cfi_offset 1, -4
	.cfi_offset 8, -8
	addi	s1,s1,%lo(.LANCHOR10)
	addi	s4,s4,%lo(.LANCHOR11)
	addi	s3,s3,%lo(.LANCHOR1)
	addi	s5,s5,%lo(.LANCHOR12)
	addi	s2,s2,%lo(.LANCHOR13)
	addi	s8,s8,%lo(.LANCHOR9)
.LBB84:
.LBB85:
.LBB86:
.LBB87:
	.loc 1 4128 11 is_stmt 0
	li	s6,1
	.loc 1 4138 7
	li	s7,2
.LVL74:
.L59:
.LBE87:
.LBE86:
.LBE85:
.LBE84:
	.loc 1 3560 2 is_stmt 1
	.loc 1 3568 2
	.loc 1 3570 2
	.loc 1 3574 3
.LBB113:
.LBB110:
	.loc 1 3814 3
	.loc 1 3818 3
	.loc 1 3818 8
	.loc 1 3818 39 is_stmt 0
	lw	a5,0(s1)
	.loc 1 3818 8
	beq	a5,zero,.L48
.L76:
	.loc 1 3820 4 is_stmt 1
.LBB100:
.LBB101:
	.loc 1 4490 3
 #APP
# 4490 "/home/anh/Desktop/wb2/Ai-Thinker-WB2/components/platform/soc/bl602/freertos_riscv_ram/tasks.c" 1
	csrc mstatus, 8
# 0 "" 2
	.loc 1 4492 3
	.loc 1 4492 25 is_stmt 0
 #NO_APP
	lw	a5,0(s4)
	.loc 1 4492 5
	beq	a5,zero,.L49
.LBB102:
.LBB103:
	.loc 1 4494 4 is_stmt 1
	.loc 1 4494 18 is_stmt 0
	lw	a4,0(s3)
	.loc 1 4502 20
	lw	a5,0(s3)
	.loc 1 4494 39
	lw	a5,68(a4)
	addi	a5,a5,1
	sw	a5,68(a4)
	.loc 1 4502 4 is_stmt 1
	.loc 1 4504 5
	.loc 1 4509 4
.L49:
.LBE103:
.LBE102:
	.loc 1 4509 4
.LBE101:
.LBE100:
	.loc 1 3822 5
	.loc 1 3822 11 is_stmt 0
	lw	a5,12(s5)
	lw	s0,12(a5)
.LVL75:
	.loc 1 3823 5 is_stmt 1
	.loc 1 3823 14 is_stmt 0
	addi	a0,s0,4
	call	uxListRemove
.LVL76:
	.loc 1 3824 5 is_stmt 1
	lw	a5,0(s2)
	addi	a5,a5,-1
	sw	a5,0(s2)
	.loc 1 3825 5
	lw	a5,0(s1)
	addi	a5,a5,-1
	sw	a5,0(s1)
	.loc 1 3827 4
.LBB104:
.LBB105:
	.loc 1 4520 3
	.loc 1 4520 25 is_stmt 0
	lw	a5,0(s4)
	.loc 1 4520 5
	beq	a5,zero,.L51
	.loc 1 4522 4 is_stmt 1
	.loc 1 4522 20 is_stmt 0
	lw	a5,0(s3)
	.loc 1 4522 6
	lw	a5,68(a5)
	beq	a5,zero,.L51
.LBB106:
.LBB107:
	.loc 1 4524 5 is_stmt 1
	.loc 1 4524 19 is_stmt 0
	lw	a4,0(s3)
	.loc 1 4526 21
	lw	a3,0(s3)
	.loc 1 4524 40
	lw	a5,68(a4)
	addi	a5,a5,-1
	sw	a5,68(a4)
	.loc 1 4526 5 is_stmt 1
	.loc 1 4526 7 is_stmt 0
	lw	a5,68(a3)
	bne	a5,zero,.L51
	.loc 1 4528 6 is_stmt 1
 #APP
# 4528 "/home/anh/Desktop/wb2/Ai-Thinker-WB2/components/platform/soc/bl602/freertos_riscv_ram/tasks.c" 1
	csrs mstatus, 8
# 0 "" 2
 #NO_APP
.L51:
.LBE107:
.LBE106:
	.loc 1 4542 4
.LBE105:
.LBE104:
	.loc 1 3829 4
.LVL77:
.LBB108:
.LBB98:
	.loc 1 4092 3
	.loc 1 4097 4
.LBB88:
.LBB89:
	.loc 1 1227 9
	.loc 1 1227 11 is_stmt 0
	beq	s0,zero,.L73
.L53:
.LVL78:
.LBB90:
	.loc 1 1228 25 is_stmt 1
	.loc 1 1230 13
	.loc 1 1230 63 is_stmt 0
	lw	a5,92(s0)
	.loc 1 1230 16
	beq	a5,zero,.L61
	.loc 1 1232 17 is_stmt 1
	lw	a1,88(s0)
	li	a0,0
	jalr	a5
.LVL79:
.L61:
	.loc 1 1235 13
.LBE90:
.LBE89:
.LBE88:
	.loc 1 4121 13 is_stmt 0
	lbu	a5,101(s0)
.LBB94:
.LBB92:
.LBB91:
	.loc 1 1235 54
	sw	zero,88(s0)
	.loc 1 1236 13 is_stmt 1
	.loc 1 1236 65 is_stmt 0
	sw	zero,92(s0)
	.loc 1 1228 32 is_stmt 1
.LVL80:
	.loc 1 1228 25
.LBE91:
.LBE92:
.LBE94:
	.loc 1 4121 4
	.loc 1 4121 6 is_stmt 0
	beq	a5,zero,.L74
	.loc 1 4128 9 is_stmt 1
	.loc 1 4128 11 is_stmt 0
	beq	a5,s6,.L75
	.loc 1 4138 5 is_stmt 1
	.loc 1 4138 7 is_stmt 0
	beq	a5,s7,.L59
	.loc 1 4138 70 is_stmt 1
	li	a0,2
	call	vEnvironmentCall
.LVL81:
.LBE98:
.LBE108:
	.loc 1 3818 8
.LBE110:
.LBE113:
	.loc 1 3560 2
	.loc 1 3568 2
	.loc 1 3570 2
	.loc 1 3574 3
.LBB114:
.LBB111:
	.loc 1 3814 3
	.loc 1 3818 3
	.loc 1 3818 8
	.loc 1 3818 39 is_stmt 0
	lw	a5,0(s1)
	.loc 1 3818 8
	bne	a5,zero,.L76
.LVL82:
.L48:
.LBE111:
.LBE114:
	.loc 1 3597 4 is_stmt 1
	.loc 1 3597 62 is_stmt 0
	lw	a5,0(s8)
	.loc 1 3597 6
	bleu	a5,s6,.L58
	.loc 1 3599 5 is_stmt 1
	li	a0,1
	call	vEnvironmentCall
.LVL83:
.L58:
	.loc 1 3603 5
.LBB115:
	.loc 1 3610 4
	.loc 1 3617 4
	call	vApplicationIdleHook
.LVL84:
.LBE115:
	.loc 1 3570 8
	.loc 1 3574 3 is_stmt 0
	j	.L59
.LVL85:
.L74:
.LBB116:
.LBB112:
.LBB109:
.LBB99:
.LBB95:
.LBB96:
	.loc 1 4125 5 is_stmt 1
	lw	a0,48(s0)
	call	vPortFree
.LVL86:
	.loc 1 4126 5
	mv	a0,s0
	call	vPortFree
.LVL87:
	.loc 1 4139 5
	.loc 1 4143 2 is_stmt 0
	j	.L59
.LVL88:
.L73:
.LBE96:
.LBE95:
.LBB97:
.LBB93:
	.loc 1 1227 30 is_stmt 1
	li	a0,2
	call	vEnvironmentCall
.LVL89:
	j	.L53
.LVL90:
.L75:
.LBE93:
.LBE97:
	.loc 1 4132 5
	mv	a0,s0
	call	vPortFree
.LVL91:
	j	.L59
.LBE99:
.LBE109:
.LBE112:
.LBE116:
	.cfi_endproc
.LFE48:
	.size	prvIdleTask, .-prvIdleTask
	.section	.text.xTaskIncrementTick.part.0,"ax",@progbits
	.align	1
	.type	xTaskIncrementTick.part.0, @function
xTaskIncrementTick.part.0:
.LFB82:
	.loc 1 2877 12
	.cfi_startproc
	.loc 1 2897 2
	.loc 1 2898 2
	.loc 1 2898 27 is_stmt 0
	lui	a5,%hi(.LANCHOR14)
	lw	a5,%lo(.LANCHOR14)(a5)
	.loc 1 2877 12
	addi	sp,sp,-48
	.cfi_def_cfa_offset 48
	sw	ra,44(sp)
	sw	s0,40(sp)
	sw	s1,36(sp)
	sw	s2,32(sp)
	sw	s3,28(sp)
	sw	s4,24(sp)
	sw	s5,20(sp)
	sw	s6,16(sp)
	sw	s7,12(sp)
	sw	s8,8(sp)
	sw	s9,4(sp)
	.cfi_offset 1, -4
	.cfi_offset 8, -8
	.cfi_offset 9, -12
	.cfi_offset 18, -16
	.cfi_offset 19, -20
	.cfi_offset 20, -24
	.cfi_offset 21, -28
	.cfi_offset 22, -32
	.cfi_offset 23, -36
	.cfi_offset 24, -40
	.cfi_offset 25, -44
	.loc 1 2898 4
	bne	a5,zero,.L78
.LBB123:
	.loc 1 2902 3 is_stmt 1
	.loc 1 2902 49 is_stmt 0
	lui	a5,%hi(.LANCHOR0)
	addi	a5,a5,%lo(.LANCHOR0)
	lw	s2,0(a5)
	.loc 1 2902 20
	addi	s2,s2,1
.LVL92:
	.loc 1 2906 3 is_stmt 1
	.loc 1 2906 14 is_stmt 0
	sw	s2,0(a5)
	.loc 1 2908 3 is_stmt 1
	.loc 1 2908 5 is_stmt 0
	beq	s2,zero,.L103
	lui	s6,%hi(.LANCHOR6)
	addi	s6,s6,%lo(.LANCHOR6)
.L79:
	.loc 1 2914 4 is_stmt 1
	.loc 1 2921 3
	.loc 1 2921 23 is_stmt 0
	lw	a5,0(s6)
	.loc 1 2921 5
	bltu	s2,a5,.L90
.L106:
.LVL93:
	.loc 1 2923 4 is_stmt 1
	.loc 1 2925 5
	.loc 1 2925 34 is_stmt 0
	lui	s1,%hi(.LANCHOR5)
	addi	s1,s1,%lo(.LANCHOR5)
	lw	a5,0(s1)
	lui	s3,%hi(.LANCHOR9)
	lui	s4,%hi(.LANCHOR1)
	lw	a5,0(a5)
.LBE123:
	.loc 1 2881 12
	li	s5,0
	addi	s3,s3,%lo(.LANCHOR9)
	addi	s4,s4,%lo(.LANCHOR1)
.LBB132:
	.loc 1 2925 7
	beq	a5,zero,.L83
	.loc 1 2975 31
	lui	s8,%hi(.LANCHOR2)
	.loc 1 2975 40
	li	s7,1
	j	.L84
.LVL94:
.L85:
	.loc 1 2960 15
	call	uxListRemove
.LVL95:
	.loc 1 2964 6 is_stmt 1
	.loc 1 2966 7
	.loc 1 2964 8 is_stmt 0
	lw	a5,40(s0)
	.loc 1 2966 16
	addi	a0,s0,24
	.loc 1 2964 8
	beq	a5,zero,.L86
	.loc 1 2966 16
	call	uxListRemove
.LVL96:
.L86:
	.loc 1 2970 7 is_stmt 1
	.loc 1 2975 6
	.loc 1 2975 8
	.loc 1 2975 54 is_stmt 0
	lw	a5,44(s0)
	.loc 1 2975 31
	addi	a4,s8,%lo(.LANCHOR2)
	lw	a3,0(a4)
	.loc 1 2975 72
	slli	a0,a5,2
	add	a0,a0,a5
	slli	a0,a0,2
	.loc 1 2975 40
	sll	a5,s7,a5
	.loc 1 2975 31
	or	a5,a5,a3
	.loc 1 2975 72
	mv	a1,s9
	add	a0,s3,a0
	.loc 1 2975 31
	sw	a5,0(a4)
	.loc 1 2975 72 is_stmt 1
	call	vListInsertEnd
.LVL97:
	.loc 1 2975 171
	.loc 1 2985 7
	.loc 1 2985 44 is_stmt 0
	lw	a5,0(s4)
	.loc 1 2985 9
	lw	a4,44(s0)
	lw	a5,44(a5)
	bltu	a4,a5,.L87
	.loc 1 2987 24
	li	s5,1
.LVL98:
.L87:
	.loc 1 2923 4 is_stmt 1
	.loc 1 2925 5
	.loc 1 2925 34 is_stmt 0
	lw	a5,0(s1)
	lw	a5,0(a5)
	.loc 1 2925 7
	beq	a5,zero,.L83
.LVL99:
.L84:
	.loc 1 2941 6 is_stmt 1
	.loc 1 2956 7
	.loc 1 2960 6
	.loc 1 2941 41 is_stmt 0
	lw	a5,0(s1)
	.loc 1 2941 12
	lw	a5,12(a5)
	lw	s0,12(a5)
.LVL100:
	.loc 1 2942 6 is_stmt 1
	.loc 1 2942 17 is_stmt 0
	lw	a5,4(s0)
.LVL101:
	.loc 1 2944 6 is_stmt 1
	.loc 1 2960 15 is_stmt 0
	addi	s9,s0,4
	mv	a0,s9
	.loc 1 2944 8
	bgeu	s2,a5,.L85
	.loc 1 2951 7 is_stmt 1
	.loc 1 2951 28 is_stmt 0
	sw	a5,0(s6)
	.loc 1 2952 7 is_stmt 1
	j	.L82
.LVL102:
.L78:
.LBE132:
	.loc 1 3032 3
	lui	a5,%hi(.LANCHOR16)
	addi	a5,a5,%lo(.LANCHOR16)
	lw	a4,0(a5)
	.loc 1 2881 12 is_stmt 0
	li	s5,0
	.loc 1 3032 3
	addi	a4,a4,1
	sw	a4,0(a5)
.L88:
.LVL103:
	.loc 1 3045 3 is_stmt 1
	.loc 1 3045 21 is_stmt 0
	lui	a5,%hi(.LANCHOR8)
	lw	a5,%lo(.LANCHOR8)(a5)
	.loc 1 3045 5
	beq	a5,zero,.L77
	.loc 1 3047 20
	li	s5,1
.LVL104:
.L77:
	.loc 1 3057 1
	lw	ra,44(sp)
	.cfi_remember_state
	.cfi_restore 1
	lw	s0,40(sp)
	.cfi_restore 8
	lw	s1,36(sp)
	.cfi_restore 9
	lw	s2,32(sp)
	.cfi_restore 18
	lw	s3,28(sp)
	.cfi_restore 19
	lw	s4,24(sp)
	.cfi_restore 20
	lw	s6,16(sp)
	.cfi_restore 22
	lw	s7,12(sp)
	.cfi_restore 23
	lw	s8,8(sp)
	.cfi_restore 24
	lw	s9,4(sp)
	.cfi_restore 25
	mv	a0,s5
	lw	s5,20(sp)
	.cfi_restore 21
	addi	sp,sp,48
	.cfi_def_cfa_offset 0
	jr	ra
.LVL105:
.L103:
	.cfi_restore_state
.LBB133:
.LBB124:
	.loc 1 2910 6 is_stmt 1
	.loc 1 2910 22
	.loc 1 2910 55 is_stmt 0
	lui	s1,%hi(.LANCHOR5)
	addi	s1,s1,%lo(.LANCHOR5)
	lw	a5,0(s1)
	lw	a5,0(a5)
	.loc 1 2910 24
	bne	a5,zero,.L105
.L80:
	.loc 1 2910 183 is_stmt 1
	.loc 1 2910 229 is_stmt 0
	lui	a4,%hi(.LANCHOR4)
	addi	a4,a4,%lo(.LANCHOR4)
	.loc 1 2910 190
	lw	a3,0(s1)
.LVL106:
	.loc 1 2910 211 is_stmt 1
	.loc 1 2910 229 is_stmt 0
	lw	a2,0(a4)
	.loc 1 2910 309
	lui	a5,%hi(.LANCHOR15)
	addi	a5,a5,%lo(.LANCHOR15)
	.loc 1 2910 229
	sw	a2,0(s1)
	.loc 1 2910 258 is_stmt 1
	.loc 1 2910 284 is_stmt 0
	sw	a3,0(a4)
	.loc 1 2910 294 is_stmt 1
	.loc 1 2910 309 is_stmt 0
	lw	a4,0(a5)
	addi	a4,a4,1
	sw	a4,0(a5)
	.loc 1 2910 313 is_stmt 1
.LBB125:
.LBB126:
	.loc 1 4150 1
	.loc 1 4152 2
	.loc 1 4152 31 is_stmt 0
	lw	a5,0(s1)
	lw	a5,0(a5)
	.loc 1 4152 4
	bne	a5,zero,.L81
	.loc 1 4158 3 is_stmt 1
	.loc 1 4158 24 is_stmt 0
	lui	s6,%hi(.LANCHOR6)
	addi	s6,s6,%lo(.LANCHOR6)
	li	a5,-1
	sw	a5,0(s6)
.LBE126:
.LBE125:
.LBE124:
	.loc 1 2914 4 is_stmt 1
	.loc 1 2921 3
	.loc 1 2921 23 is_stmt 0
	lw	a5,0(s6)
	.loc 1 2921 5
	bgeu	s2,a5,.L106
.LVL107:
.L90:
	lui	s3,%hi(.LANCHOR9)
	lui	s4,%hi(.LANCHOR1)
.LBE133:
	.loc 1 2881 12
	li	s5,0
	addi	s3,s3,%lo(.LANCHOR9)
	addi	s4,s4,%lo(.LANCHOR1)
.L82:
.LVL108:
.LBB134:
	.loc 1 3004 4 is_stmt 1
	.loc 1 3004 46 is_stmt 0
	lw	a5,0(s4)
	.loc 1 3004 6
	li	a3,1
	.loc 1 3004 46
	lw	a4,44(a5)
	.loc 1 3004 64
	slli	a5,a4,2
	add	a5,a5,a4
	slli	a5,a5,2
	add	s3,s3,a5
	lw	a5,0(s3)
	.loc 1 3004 6
	bleu	a5,a3,.L88
	.loc 1 3006 21
	li	s5,1
.LVL109:
	j	.L88
.LVL110:
.L81:
.LBB131:
.LBB130:
.LBB129:
.LBB127:
.LBB128:
	.loc 1 4166 3 is_stmt 1
	.loc 1 4166 42 is_stmt 0
	lw	a5,0(s1)
.LVL111:
	.loc 1 4167 3 is_stmt 1
	.loc 1 4167 24 is_stmt 0
	lui	s6,%hi(.LANCHOR6)
	addi	s6,s6,%lo(.LANCHOR6)
	.loc 1 4166 13
	lw	a5,12(a5)
.LVL112:
	.loc 1 4167 62
	lw	a5,12(a5)
.LVL113:
	lw	a5,4(a5)
.LVL114:
	.loc 1 4167 24
	sw	a5,0(s6)
	.loc 1 4169 1
	j	.L79
.LVL115:
.L105:
.LBE128:
.LBE127:
.LBE129:
.LBE130:
	.loc 1 2910 155 is_stmt 1
	li	a0,2
	call	vEnvironmentCall
.LVL116:
	j	.L80
.L83:
.LBE131:
	.loc 1 2932 6
	.loc 1 2932 27 is_stmt 0
	li	a5,-1
	sw	a5,0(s6)
	.loc 1 2933 6 is_stmt 1
	j	.L82
.LBE134:
	.cfi_endproc
.LFE82:
	.size	xTaskIncrementTick.part.0, .-xTaskIncrementTick.part.0
	.section	.text.xTaskGetStackBase,"ax",@progbits
	.align	1
	.globl	xTaskGetStackBase
	.type	xTaskGetStackBase, @function
xTaskGetStackBase:
.LFB4:
	.loc 1 609 1
	.cfi_startproc
.LVL117:
	.loc 1 610 3
	.loc 1 614 2
	.loc 1 609 1 is_stmt 0
	mv	a5,a0
	.loc 1 614 26
	beq	a0,zero,.L112
.LVL118:
	.loc 1 618 4 is_stmt 1
	.loc 1 618 16 is_stmt 0
	lw	a0,48(a5)
.LVL119:
.L107:
	.loc 1 619 1
	ret
.LVL120:
.L112:
	.loc 1 614 26 discriminator 1
	lui	a5,%hi(.LANCHOR1)
	lw	a5,%lo(.LANCHOR1)(a5)
.LVL121:
	.loc 1 615 2 is_stmt 1 discriminator 1
	.loc 1 616 10 is_stmt 0 discriminator 1
	li	a0,0
	.loc 1 615 5 discriminator 1
	beq	a5,zero,.L107
	.loc 1 618 4 is_stmt 1
	.loc 1 618 16 is_stmt 0
	lw	a0,48(a5)
	j	.L107
	.cfi_endproc
.LFE4:
	.size	xTaskGetStackBase, .-xTaskGetStackBase
	.section	.text.uxTaskPriorityGet,"ax",@progbits
	.align	1
	.globl	uxTaskPriorityGet
	.type	uxTaskPriorityGet, @function
uxTaskPriorityGet:
.LFB15:
	.loc 1 1565 2 is_stmt 1
	.cfi_startproc
.LVL122:
	.loc 1 1566 2
	.loc 1 1567 2
	.loc 1 1569 3
.LBB143:
.LBB144:
	.loc 1 4490 3
 #APP
# 4490 "/home/anh/Desktop/wb2/Ai-Thinker-WB2/components/platform/soc/bl602/freertos_riscv_ram/tasks.c" 1
	csrc mstatus, 8
# 0 "" 2
	.loc 1 4492 3
	.loc 1 4492 25 is_stmt 0
 #NO_APP
	lui	a5,%hi(.LANCHOR11)
	addi	a5,a5,%lo(.LANCHOR11)
	lw	a4,0(a5)
	.loc 1 4492 5
	beq	a4,zero,.L114
.LBB145:
.LBB146:
	.loc 1 4494 4 is_stmt 1
	.loc 1 4494 18 is_stmt 0
	lui	a4,%hi(.LANCHOR1)
	addi	a4,a4,%lo(.LANCHOR1)
	lw	a3,0(a4)
	.loc 1 4502 20
	lw	a4,0(a4)
	.loc 1 4494 39
	lw	a4,68(a3)
	addi	a4,a4,1
	sw	a4,68(a3)
	.loc 1 4502 4 is_stmt 1
	.loc 1 4504 5
	.loc 1 4509 4
.L114:
.LBE146:
.LBE145:
	.loc 1 4509 4
.LBE144:
.LBE143:
	.loc 1 1573 4
	.loc 1 1573 28 is_stmt 0
	beq	a0,zero,.L125
.LVL123:
.L115:
	.loc 1 1574 4 is_stmt 1 discriminator 4
.LBB147:
.LBB148:
	.loc 1 4520 25 is_stmt 0 discriminator 4
	lw	a5,0(a5)
.LBE148:
.LBE147:
	.loc 1 1574 13 discriminator 4
	lw	a0,44(a0)
.LVL124:
	.loc 1 1576 3 is_stmt 1 discriminator 4
.LBB152:
.LBB151:
	.loc 1 4520 3 discriminator 4
	.loc 1 4520 5 is_stmt 0 discriminator 4
	beq	a5,zero,.L113
	.loc 1 4522 4 is_stmt 1
	.loc 1 4522 20 is_stmt 0
	lui	a5,%hi(.LANCHOR1)
	addi	a5,a5,%lo(.LANCHOR1)
	lw	a4,0(a5)
	.loc 1 4522 6
	lw	a4,68(a4)
	beq	a4,zero,.L113
.LBB149:
.LBB150:
	.loc 1 4524 5 is_stmt 1
	.loc 1 4524 19 is_stmt 0
	lw	a4,0(a5)
	.loc 1 4526 21
	lw	a3,0(a5)
	.loc 1 4524 40
	lw	a5,68(a4)
	addi	a5,a5,-1
	sw	a5,68(a4)
	.loc 1 4526 5 is_stmt 1
	.loc 1 4526 7 is_stmt 0
	lw	a5,68(a3)
	bne	a5,zero,.L113
	.loc 1 4528 6 is_stmt 1
 #APP
# 4528 "/home/anh/Desktop/wb2/Ai-Thinker-WB2/components/platform/soc/bl602/freertos_riscv_ram/tasks.c" 1
	csrs mstatus, 8
# 0 "" 2
 #NO_APP
.LBE150:
.LBE149:
	.loc 1 4542 4
.LBE151:
.LBE152:
	.loc 1 1578 3
.L113:
	.loc 1 1579 2 is_stmt 0
	ret
.LVL125:
.L125:
	.loc 1 1573 28 discriminator 1
	lui	a4,%hi(.LANCHOR1)
	lw	a0,%lo(.LANCHOR1)(a4)
.LVL126:
	j	.L115
	.cfi_endproc
.LFE15:
	.size	uxTaskPriorityGet, .-uxTaskPriorityGet
	.section	.text.uxTaskPriorityGetFromISR,"ax",@progbits
	.align	1
	.globl	uxTaskPriorityGetFromISR
	.type	uxTaskPriorityGetFromISR, @function
uxTaskPriorityGetFromISR:
.LFB16:
	.loc 1 1587 2 is_stmt 1
	.cfi_startproc
.LVL127:
	.loc 1 1588 2
	.loc 1 1589 2
	.loc 1 1607 3
	.loc 1 1609 3
	.loc 1 1613 4
	.loc 1 1613 28 is_stmt 0
	beq	a0,zero,.L128
.LVL128:
	.loc 1 1614 4 is_stmt 1 discriminator 4
	.loc 1 1616 3 discriminator 4
	.loc 1 1618 3 discriminator 4
	.loc 1 1619 2 is_stmt 0 discriminator 4
	lw	a0,44(a0)
.LVL129:
	ret
.LVL130:
.L128:
	.loc 1 1613 28 discriminator 1
	lui	a5,%hi(.LANCHOR1)
	lw	a0,%lo(.LANCHOR1)(a5)
.LVL131:
	.loc 1 1614 4 is_stmt 1 discriminator 1
	.loc 1 1616 3 discriminator 1
	.loc 1 1618 3 discriminator 1
	.loc 1 1619 2 is_stmt 0 discriminator 1
	lw	a0,44(a0)
.LVL132:
	ret
	.cfi_endproc
.LFE16:
	.size	uxTaskPriorityGetFromISR, .-uxTaskPriorityGetFromISR
	.section	.text.xTaskResumeFromISR,"ax",@progbits
	.align	1
	.globl	xTaskResumeFromISR
	.type	xTaskResumeFromISR, @function
xTaskResumeFromISR:
.LFB21:
	.loc 1 1992 2 is_stmt 1
	.cfi_startproc
.LVL133:
	.loc 1 1993 2
	.loc 1 1994 2
	.loc 1 1992 2 is_stmt 0
	addi	sp,sp,-16
	.cfi_def_cfa_offset 16
	sw	s0,8(sp)
	sw	ra,12(sp)
	sw	s1,4(sp)
	sw	s2,0(sp)
	.cfi_offset 8, -8
	.cfi_offset 1, -4
	.cfi_offset 9, -12
	.cfi_offset 18, -16
	.loc 1 1992 2
	mv	s0,a0
.LVL134:
	.loc 1 1995 2 is_stmt 1
	.loc 1 1997 3
	.loc 1 1997 5 is_stmt 0
	beq	a0,zero,.L137
.LVL135:
.L130:
.LBB157:
.LBB158:
	.loc 1 1903 3 is_stmt 1
	.loc 1 1903 5 is_stmt 0
	lw	a4,20(s0)
	lui	a5,%hi(.LANCHOR3)
	addi	a5,a5,%lo(.LANCHOR3)
.LBE158:
.LBE157:
	.loc 1 1993 13
	li	s1,0
.LBB164:
.LBB161:
	.loc 1 1903 5
	beq	a4,a5,.L138
.L129:
.LBE161:
.LBE164:
	.loc 1 2056 2
	lw	ra,12(sp)
	.cfi_remember_state
	.cfi_restore 1
	lw	s0,8(sp)
	.cfi_restore 8
.LVL136:
	lw	s2,0(sp)
	.cfi_restore 18
	mv	a0,s1
	lw	s1,4(sp)
	.cfi_restore 9
	addi	sp,sp,16
	.cfi_def_cfa_offset 0
	jr	ra
.LVL137:
.L138:
	.cfi_restore_state
.LBB165:
.LBB162:
.LBB159:
.LBB160:
	.loc 1 1906 4 is_stmt 1
	.loc 1 1906 42 is_stmt 0
	lw	a5,40(s0)
	.loc 1 1906 6
	lui	a0,%hi(.LANCHOR17)
	addi	a4,a0,%lo(.LANCHOR17)
	beq	a5,a4,.L129
	.loc 1 1910 5 is_stmt 1
	.loc 1 1910 7 is_stmt 0
	bne	a5,zero,.L129
	.loc 1 1912 6 is_stmt 1
.LVL138:
.LBE160:
.LBE159:
	.loc 1 1926 4
	.loc 1 1929 3
.LBE162:
.LBE165:
	.loc 1 2021 5
	.loc 1 2024 5
	.loc 1 2024 30 is_stmt 0
	lui	a5,%hi(.LANCHOR14)
	lw	a5,%lo(.LANCHOR14)(a5)
	.loc 1 2024 7
	bne	a5,zero,.L132
	.loc 1 2028 6 is_stmt 1
	.loc 1 2028 43 is_stmt 0
	lui	a5,%hi(.LANCHOR1)
	lw	a5,%lo(.LANCHOR1)(a5)
	.loc 1 2028 8
	lw	s1,44(s0)
	.loc 1 2037 15
	addi	s2,s0,4
	.loc 1 2028 8
	lw	a5,44(a5)
	.loc 1 2037 15
	mv	a0,s2
	.loc 1 2028 8
	sltu	s1,s1,a5
	.loc 1 2037 15
	call	uxListRemove
.LVL139:
	.loc 1 2038 54
	lw	a2,44(s0)
	.loc 1 2038 31
	lui	a3,%hi(.LANCHOR2)
	addi	a3,a3,%lo(.LANCHOR2)
	lw	a1,0(a3)
	.loc 1 2038 72
	slli	a4,a2,2
	add	a4,a4,a2
	.loc 1 2038 40
	li	a5,1
	.loc 1 2038 72
	lui	a0,%hi(.LANCHOR9)
	.loc 1 2038 40
	sll	a5,a5,a2
	.loc 1 2038 72
	slli	a4,a4,2
	addi	a0,a0,%lo(.LANCHOR9)
	.loc 1 2038 31
	or	a5,a5,a1
	.loc 1 2038 72
	add	a0,a0,a4
	mv	a1,s2
	.loc 1 2038 31
	sw	a5,0(a3)
	.loc 1 2038 72
	call	vListInsertEnd
.LVL140:
	.loc 1 2056 2
	lw	ra,12(sp)
	.cfi_remember_state
	.cfi_restore 1
	lw	s0,8(sp)
	.cfi_restore 8
.LVL141:
	.loc 1 2028 8
	xori	s1,s1,1
.LVL142:
	.loc 1 2034 7 is_stmt 1
	.loc 1 2037 6
	.loc 1 2038 6
	.loc 1 2038 8
	.loc 1 2038 72
	.loc 1 2038 171
	.loc 1 2056 2 is_stmt 0
	lw	s2,0(sp)
	.cfi_restore 18
.LVL143:
	mv	a0,s1
	lw	s1,4(sp)
	.cfi_restore 9
.LVL144:
	addi	sp,sp,16
	.cfi_def_cfa_offset 0
	jr	ra
.LVL145:
.L137:
	.cfi_restore_state
	.loc 1 1997 32 is_stmt 1 discriminator 1
	li	a0,2
	call	vEnvironmentCall
.LVL146:
	.loc 1 2015 3 discriminator 1
	.loc 1 2017 3 discriminator 1
	.loc 1 2019 4 discriminator 1
.LBB166:
.LBB163:
	.loc 1 1893 2 discriminator 1
	.loc 1 1894 2 discriminator 1
	.loc 1 1900 3 discriminator 1
	.loc 1 1900 24 discriminator 1
	li	a0,2
	call	vEnvironmentCall
.LVL147:
	j	.L130
.LVL148:
.L132:
.LBE163:
.LBE166:
	.loc 1 2045 6
	addi	a1,s0,24
	addi	a0,a0,%lo(.LANCHOR17)
	call	vListInsertEnd
.LVL149:
	.loc 1 2056 2 is_stmt 0
	lw	ra,12(sp)
	.cfi_restore 1
	lw	s0,8(sp)
	.cfi_restore 8
.LVL150:
	lw	s2,0(sp)
	.cfi_restore 18
	mv	a0,s1
	lw	s1,4(sp)
	.cfi_restore 9
	addi	sp,sp,16
	.cfi_def_cfa_offset 0
	jr	ra
	.cfi_endproc
.LFE21:
	.size	xTaskResumeFromISR, .-xTaskResumeFromISR
	.section	.text.vTaskEndScheduler,"ax",@progbits
	.align	1
	.globl	vTaskEndScheduler
	.type	vTaskEndScheduler, @function
vTaskEndScheduler:
.LFB23:
	.loc 1 2184 1 is_stmt 1
	.cfi_startproc
	.loc 1 2188 2
 #APP
# 2188 "/home/anh/Desktop/wb2/Ai-Thinker-WB2/components/platform/soc/bl602/freertos_riscv_ram/tasks.c" 1
	csrc mstatus, 8
# 0 "" 2
	.loc 1 2189 2
	.loc 1 2189 20 is_stmt 0
 #NO_APP
	lui	a5,%hi(.LANCHOR11)
	sw	zero,%lo(.LANCHOR11)(a5)
	.loc 1 2190 2 is_stmt 1
	tail	vPortEndScheduler
.LVL151:
	.cfi_endproc
.LFE23:
	.size	vTaskEndScheduler, .-vTaskEndScheduler
	.section	.text.vTaskSuspendAll,"ax",@progbits
	.align	1
	.globl	vTaskSuspendAll
	.type	vTaskSuspendAll, @function
vTaskSuspendAll:
.LFB24:
	.loc 1 2195 1
	.cfi_startproc
	.loc 1 2200 2
	lui	a5,%hi(.LANCHOR14)
	addi	a5,a5,%lo(.LANCHOR14)
	lw	a4,0(a5)
	addi	a4,a4,1
	sw	a4,0(a5)
	.loc 1 2201 2
	.loc 1 2202 1 is_stmt 0
	ret
	.cfi_endproc
.LFE24:
	.size	vTaskSuspendAll, .-vTaskSuspendAll
	.section	.text.xTaskGetTickCount,"ax",@progbits
	.align	1
	.globl	xTaskGetTickCount
	.type	xTaskGetTickCount, @function
xTaskGetTickCount:
.LFB26:
	.loc 1 2379 1 is_stmt 1
	.cfi_startproc
	.loc 1 2380 1
	.loc 1 2383 2
	.loc 1 2385 3
	.loc 1 2385 10 is_stmt 0
	lui	a5,%hi(.LANCHOR0)
	lw	a0,%lo(.LANCHOR0)(a5)
.LVL152:
	.loc 1 2387 2 is_stmt 1
	.loc 1 2389 2
	.loc 1 2390 1 is_stmt 0
	ret
	.cfi_endproc
.LFE26:
	.size	xTaskGetTickCount, .-xTaskGetTickCount
	.section	.text.xTaskGetTickCount2,"ax",@progbits
	.align	1
	.globl	xTaskGetTickCount2
	.type	xTaskGetTickCount2, @function
xTaskGetTickCount2:
.LFB27:
	.loc 1 2393 1 is_stmt 1
	.cfi_startproc
.LVL153:
	.loc 1 2395 2
	.loc 1 2397 3
	.loc 1 2397 10 is_stmt 0
	lui	a4,%hi(.LANCHOR0)
	lw	a4,%lo(.LANCHOR0)(a4)
	.loc 1 2398 19
	lui	a5,%hi(.LANCHOR15)
	lw	a5,%lo(.LANCHOR15)(a5)
	.loc 1 2397 10
	sw	a4,0(a0)
	.loc 1 2398 9 is_stmt 1
	.loc 1 2403 1 is_stmt 0
	li	a0,1
.LVL154:
	.loc 1 2398 19
	sw	a5,0(a1)
	.loc 1 2400 2 is_stmt 1
	.loc 1 2402 2
	.loc 1 2403 1 is_stmt 0
	ret
	.cfi_endproc
.LFE27:
	.size	xTaskGetTickCount2, .-xTaskGetTickCount2
	.section	.text.xTaskGetTickCountFromISR,"ax",@progbits
	.align	1
	.globl	xTaskGetTickCountFromISR
	.type	xTaskGetTickCountFromISR, @function
xTaskGetTickCountFromISR:
.LFB89:
	.cfi_startproc
	lui	a5,%hi(.LANCHOR0)
	lw	a0,%lo(.LANCHOR0)(a5)
	ret
	.cfi_endproc
.LFE89:
	.size	xTaskGetTickCountFromISR, .-xTaskGetTickCountFromISR
	.section	.text.uxTaskGetNumberOfTasks,"ax",@progbits
	.align	1
	.globl	uxTaskGetNumberOfTasks
	.type	uxTaskGetNumberOfTasks, @function
uxTaskGetNumberOfTasks:
.LFB29:
	.loc 1 2438 1 is_stmt 1
	.cfi_startproc
	.loc 1 2441 2
	.loc 1 2441 9 is_stmt 0
	lui	a5,%hi(.LANCHOR13)
	lw	a0,%lo(.LANCHOR13)(a5)
	.loc 1 2442 1
	ret
	.cfi_endproc
.LFE29:
	.size	uxTaskGetNumberOfTasks, .-uxTaskGetNumberOfTasks
	.section	.text.pcTaskGetName,"ax",@progbits
	.align	1
	.globl	pcTaskGetName
	.type	pcTaskGetName, @function
pcTaskGetName:
.LFB30:
	.loc 1 2446 1 is_stmt 1
	.cfi_startproc
.LVL155:
	.loc 1 2447 1
	.loc 1 2451 2
	.loc 1 2446 1 is_stmt 0
	addi	sp,sp,-16
	.cfi_def_cfa_offset 16
	sw	s0,8(sp)
	sw	ra,12(sp)
	.cfi_offset 8, -8
	.cfi_offset 1, -4
	.loc 1 2446 1
	mv	s0,a0
	.loc 1 2451 26
	beq	a0,zero,.L148
.LVL156:
.L146:
	.loc 1 2453 2 is_stmt 1
	.loc 1 2454 1 is_stmt 0
	lw	ra,12(sp)
	.cfi_remember_state
	.cfi_restore 1
	addi	a0,s0,52
	lw	s0,8(sp)
	.cfi_restore 8
	addi	sp,sp,16
	.cfi_def_cfa_offset 0
	jr	ra
.LVL157:
.L148:
	.cfi_restore_state
	.loc 1 2451 26 discriminator 1
	lui	a5,%hi(.LANCHOR1)
	lw	s0,%lo(.LANCHOR1)(a5)
.LVL158:
	.loc 1 2452 2 is_stmt 1 discriminator 1
	.loc 1 2452 4 is_stmt 0 discriminator 1
	bne	s0,zero,.L146
	.loc 1 2452 23 is_stmt 1 discriminator 1
	li	a0,2
	call	vEnvironmentCall
.LVL159:
	.loc 1 2453 2 discriminator 1
	.loc 1 2454 1 is_stmt 0 discriminator 1
	lw	ra,12(sp)
	.cfi_restore 1
	addi	a0,s0,52
	lw	s0,8(sp)
	.cfi_restore 8
	addi	sp,sp,16
	.cfi_def_cfa_offset 0
	jr	ra
	.cfi_endproc
.LFE30:
	.size	pcTaskGetName, .-pcTaskGetName
	.section	.text.xAddTasksToAllList,"ax",@progbits
	.align	1
	.globl	xAddTasksToAllList
	.type	xAddTasksToAllList, @function
xAddTasksToAllList:
.LFB32:
	.loc 1 2667 2 is_stmt 1
	.cfi_startproc
	.loc 1 2668 5
.LVL160:
	.loc 1 2667 2 is_stmt 0
	addi	sp,sp,-32
	.cfi_def_cfa_offset 32
	sw	s3,12(sp)
	.cfi_offset 19, -20
	lui	s3,%hi(.LANCHOR9)
	addi	s3,s3,%lo(.LANCHOR9)
	sw	s0,24(sp)
	sw	s1,20(sp)
	sw	s2,16(sp)
	sw	ra,28(sp)
	.cfi_offset 8, -8
	.cfi_offset 9, -12
	.cfi_offset 18, -16
	.cfi_offset 1, -4
	addi	s1,s3,620
	.loc 1 2668 29
	li	s0,32
	.loc 1 2668 17
	li	s2,0
.LVL161:
.L151:
	.loc 1 2672 9 is_stmt 1 discriminator 1
	.loc 1 2674 13 discriminator 1
	.loc 1 2674 20 is_stmt 0 discriminator 1
	addi	s0,s0,-1
.LVL162:
	.loc 1 2675 13 is_stmt 1 discriminator 1
.LBB167:
.LBB168:
	.loc 1 3967 2 discriminator 1
	.loc 1 3968 2 discriminator 1
	.loc 1 3969 2 discriminator 1
	.loc 1 3971 3 discriminator 1
	.loc 1 3971 19 is_stmt 0 discriminator 1
	slli	a5,s0,2
	add	a5,a5,s0
	slli	a5,a5,2
	add	a5,s3,a5
	lw	a5,0(a5)
	mv	a0,s1
.LBE168:
.LBE167:
	.loc 1 2676 9 discriminator 1
	addi	s1,s1,-20
.LBB171:
.LBB169:
	.loc 1 3971 5 discriminator 1
	beq	a5,zero,.L150
	call	prvAddTaskToAllListWithSingleList.part.0
.LVL163:
.LBE169:
.LBE171:
	.loc 1 2675 20
	add	s2,s2,a0
.LVL164:
.L150:
.LBB172:
.LBB170:
	.loc 1 3989 4 is_stmt 1
	.loc 1 3992 3
.LBE170:
.LBE172:
	.loc 1 2676 17
	.loc 1 2676 9 is_stmt 0
	bne	s0,zero,.L151
	.loc 1 2680 9 is_stmt 1
	.loc 1 2680 19 is_stmt 0
	lui	a5,%hi(.LANCHOR5)
	lw	a0,%lo(.LANCHOR5)(a5)
.LVL165:
.LBB173:
.LBB174:
	.loc 1 3967 2 is_stmt 1
	.loc 1 3968 2
	.loc 1 3969 2
	.loc 1 3971 3
	.loc 1 3971 19 is_stmt 0
	lw	a5,0(a0)
	.loc 1 3971 5
	beq	a5,zero,.L152
	call	prvAddTaskToAllListWithSingleList.part.0
.LVL166:
.LBE174:
.LBE173:
	.loc 1 2680 16
	add	s2,s2,a0
.L152:
.LVL167:
.LBB176:
.LBB175:
	.loc 1 3989 4 is_stmt 1
	.loc 1 3992 3
.LBE175:
.LBE176:
	.loc 1 2681 9
	.loc 1 2681 19 is_stmt 0
	lui	a5,%hi(.LANCHOR4)
	lw	a0,%lo(.LANCHOR4)(a5)
.LVL168:
.LBB177:
.LBB178:
	.loc 1 3967 2 is_stmt 1
	.loc 1 3968 2
	.loc 1 3969 2
	.loc 1 3971 3
	.loc 1 3971 19 is_stmt 0
	lw	a5,0(a0)
	.loc 1 3971 5
	beq	a5,zero,.L153
	call	prvAddTaskToAllListWithSingleList.part.0
.LVL169:
.LBE178:
.LBE177:
	.loc 1 2681 16
	add	s2,s2,a0
.L153:
.LVL170:
.LBB180:
.LBB179:
	.loc 1 3989 4 is_stmt 1
	.loc 1 3992 3
.LBE179:
.LBE180:
	.loc 1 2687 13
.LBB181:
.LBB182:
	.loc 1 3967 2
	.loc 1 3968 2
	.loc 1 3969 2
	.loc 1 3971 3
	.loc 1 3971 19 is_stmt 0
	lui	a0,%hi(.LANCHOR12)
	addi	a5,a0,%lo(.LANCHOR12)
	lw	a5,0(a5)
	.loc 1 3971 5
	beq	a5,zero,.L154
	addi	a0,a0,%lo(.LANCHOR12)
	call	prvAddTaskToAllListWithSingleList.part.0
.LVL171:
.LBE182:
.LBE181:
	.loc 1 2687 20
	add	s2,s2,a0
.L154:
.LVL172:
.LBB184:
.LBB183:
	.loc 1 3989 4 is_stmt 1
	.loc 1 3992 3
.LBE183:
.LBE184:
	.loc 1 2695 13
.LBB185:
.LBB186:
	.loc 1 3967 2
	.loc 1 3968 2
	.loc 1 3969 2
	.loc 1 3971 3
	.loc 1 3971 19 is_stmt 0
	lui	a0,%hi(.LANCHOR3)
	addi	a5,a0,%lo(.LANCHOR3)
	lw	a5,0(a5)
	.loc 1 3971 5
	beq	a5,zero,.L149
	addi	a0,a0,%lo(.LANCHOR3)
	call	prvAddTaskToAllListWithSingleList.part.0
.LVL173:
.LBE186:
.LBE185:
	.loc 1 2695 20
	add	s2,s2,a0
.LVL174:
.LBB188:
.LBB187:
	.loc 1 3989 4 is_stmt 1
	.loc 1 3992 3
.LBE187:
.LBE188:
	.loc 1 2699 9
.L149:
	.loc 1 2700 5 is_stmt 0
	lw	ra,28(sp)
	.cfi_restore 1
	lw	s0,24(sp)
	.cfi_restore 8
.LVL175:
	lw	s1,20(sp)
	.cfi_restore 9
	lw	s3,12(sp)
	.cfi_restore 19
	mv	a0,s2
	lw	s2,16(sp)
	.cfi_restore 18
	addi	sp,sp,32
	.cfi_def_cfa_offset 0
	jr	ra
	.cfi_endproc
.LFE32:
	.size	xAddTasksToAllList, .-xAddTasksToAllList
	.section	.text.pxTaskGetAllList,"ax",@progbits
	.align	1
	.globl	pxTaskGetAllList
	.type	pxTaskGetAllList, @function
pxTaskGetAllList:
.LFB33:
	.loc 1 2708 2 is_stmt 1
	.cfi_startproc
	.loc 1 2709 3
	.loc 1 2709 10 is_stmt 0
	lui	a0,%hi(.LANCHOR7)
	.loc 1 2710 5
	addi	a0,a0,%lo(.LANCHOR7)
	ret
	.cfi_endproc
.LFE33:
	.size	pxTaskGetAllList, .-pxTaskGetAllList
	.section	.text.vTaskStepTickSafe,"ax",@progbits
	.align	1
	.globl	vTaskStepTickSafe
	.type	vTaskStepTickSafe, @function
vTaskStepTickSafe:
.LFB34:
	.loc 1 2748 1 is_stmt 1
	.cfi_startproc
.LVL176:
	.loc 1 2749 2
	.loc 1 2750 2
	.loc 1 2748 1 is_stmt 0
	addi	sp,sp,-48
	.cfi_def_cfa_offset 48
	sw	s2,32(sp)
	.cfi_offset 18, -16
	.loc 1 2750 43
	lui	s2,%hi(.LANCHOR0)
	addi	s2,s2,%lo(.LANCHOR0)
	lw	a5,0(s2)
.LVL177:
	.loc 1 2752 2 is_stmt 1
	.loc 1 2748 1 is_stmt 0
	sw	s4,24(sp)
	sw	ra,44(sp)
	sw	s0,40(sp)
	sw	s1,36(sp)
	sw	s3,28(sp)
	sw	s5,20(sp)
	sw	s6,16(sp)
	sw	s7,12(sp)
	.cfi_offset 20, -24
	.cfi_offset 1, -4
	.cfi_offset 8, -8
	.cfi_offset 9, -12
	.cfi_offset 19, -20
	.cfi_offset 21, -28
	.cfi_offset 22, -32
	.cfi_offset 23, -36
	.loc 1 2750 13
	neg	a5,a5
.LVL178:
	.loc 1 2748 1
	mv	s4,a0
	.loc 1 2752 4
	bgtu	a5,a0,.L175
	.loc 1 2754 3 is_stmt 1
	.loc 1 2756 4
	.loc 1 2756 33 is_stmt 0
	lui	s0,%hi(.LANCHOR5)
	addi	s0,s0,%lo(.LANCHOR5)
	lw	a5,0(s0)
.LVL179:
	lw	a5,0(a5)
	.loc 1 2756 6
	beq	a5,zero,.L176
	lui	s1,%hi(.LANCHOR2)
	lui	s3,%hi(.LANCHOR9)
	addi	s1,s1,%lo(.LANCHOR2)
	addi	s3,s3,%lo(.LANCHOR9)
	.loc 1 2785 39
	li	s5,1
.LVL180:
.L178:
	.loc 1 2767 5 is_stmt 1
	.loc 1 2767 40 is_stmt 0
	lw	a5,0(s0)
	.loc 1 2767 11
	lw	a5,12(a5)
	lw	s6,12(a5)
.LVL181:
	.loc 1 2770 5 is_stmt 1
	.loc 1 2770 14 is_stmt 0
	addi	s7,s6,4
	mv	a0,s7
	call	uxListRemove
.LVL182:
	.loc 1 2774 5 is_stmt 1
	.loc 1 2776 6
	.loc 1 2774 7 is_stmt 0
	lw	a5,40(s6)
	.loc 1 2776 15
	addi	a0,s6,24
	.loc 1 2774 7
	beq	a5,zero,.L177
	.loc 1 2776 15
	call	uxListRemove
.LVL183:
.L177:
	.loc 1 2780 6 is_stmt 1
	.loc 1 2785 5
	.loc 1 2785 7
	.loc 1 2785 53 is_stmt 0
	lw	a5,44(s6)
	.loc 1 2785 30
	lw	a4,0(s1)
	.loc 1 2785 71
	mv	a1,s7
	slli	a0,a5,2
	add	a0,a0,a5
	slli	a0,a0,2
	.loc 1 2785 39
	sll	a5,s5,a5
	.loc 1 2785 30
	or	a5,a5,a4
	.loc 1 2785 71
	add	a0,s3,a0
	.loc 1 2785 30
	sw	a5,0(s1)
	.loc 1 2785 71 is_stmt 1
	call	vListInsertEnd
.LVL184:
	.loc 1 2785 170
	.loc 1 2754 9
	.loc 1 2754 3
	.loc 1 2756 4
	.loc 1 2756 33 is_stmt 0
	lw	a5,0(s0)
	lw	a5,0(a5)
	.loc 1 2756 6
	bne	a5,zero,.L178
.LVL185:
.L176:
.LBB194:
	.loc 1 2789 5 is_stmt 1
	.loc 1 2789 21
	.loc 1 2789 54 is_stmt 0
	lw	a5,0(s0)
	lw	a5,0(a5)
	.loc 1 2789 23
	bne	a5,zero,.L192
.L179:
	.loc 1 2789 182 is_stmt 1 discriminator 3
	.loc 1 2789 228 is_stmt 0 discriminator 3
	lui	a4,%hi(.LANCHOR4)
	addi	a4,a4,%lo(.LANCHOR4)
	.loc 1 2789 189 discriminator 3
	lw	a3,0(s0)
.LVL186:
	.loc 1 2789 210 is_stmt 1 discriminator 3
	.loc 1 2789 228 is_stmt 0 discriminator 3
	lw	a2,0(a4)
	.loc 1 2789 308 discriminator 3
	lui	a5,%hi(.LANCHOR15)
	addi	a5,a5,%lo(.LANCHOR15)
	.loc 1 2789 228 discriminator 3
	sw	a2,0(s0)
	.loc 1 2789 257 is_stmt 1 discriminator 3
	.loc 1 2789 283 is_stmt 0 discriminator 3
	sw	a3,0(a4)
	.loc 1 2789 293 is_stmt 1 discriminator 3
	.loc 1 2789 308 is_stmt 0 discriminator 3
	lw	a4,0(a5)
	addi	a4,a4,1
	sw	a4,0(a5)
	.loc 1 2789 312 is_stmt 1 discriminator 3
.LBB195:
.LBB196:
	.loc 1 4150 1 discriminator 3
	.loc 1 4152 2 discriminator 3
	.loc 1 4152 31 is_stmt 0 discriminator 3
	lw	a5,0(s0)
	lw	a5,0(a5)
	.loc 1 4152 4 discriminator 3
	bne	a5,zero,.L180
	.loc 1 4158 3 is_stmt 1
	.loc 1 4158 24 is_stmt 0
	lui	a5,%hi(.LANCHOR6)
	li	a4,-1
	sw	a4,%lo(.LANCHOR6)(a5)
.LVL187:
.L175:
.LBE196:
.LBE195:
.LBE194:
	.loc 1 2793 3 is_stmt 1
	.loc 1 2796 2
	.loc 1 2796 13 is_stmt 0
	lw	a0,0(s2)
	.loc 1 2798 1
	lw	ra,44(sp)
	.cfi_remember_state
	.cfi_restore 1
	lw	s0,40(sp)
	.cfi_restore 8
	.loc 1 2796 13
	add	s4,a0,s4
.LVL188:
	sw	s4,0(s2)
	.loc 1 2797 2 is_stmt 1
	.loc 1 2798 1 is_stmt 0
	lw	s1,36(sp)
	.cfi_restore 9
	lw	s2,32(sp)
	.cfi_restore 18
	lw	s3,28(sp)
	.cfi_restore 19
	lw	s4,24(sp)
	.cfi_restore 20
	lw	s5,20(sp)
	.cfi_restore 21
	lw	s6,16(sp)
	.cfi_restore 22
	lw	s7,12(sp)
	.cfi_restore 23
	addi	sp,sp,48
	.cfi_def_cfa_offset 0
	jr	ra
.LVL189:
.L180:
	.cfi_restore_state
.LBB201:
.LBB200:
.LBB199:
.LBB197:
.LBB198:
	.loc 1 4166 3 is_stmt 1
	.loc 1 4166 42 is_stmt 0
	lw	a4,0(s0)
.LVL190:
	.loc 1 4167 3 is_stmt 1
	.loc 1 4167 24 is_stmt 0
	lui	a5,%hi(.LANCHOR6)
	.loc 1 4166 13
	lw	a4,12(a4)
.LVL191:
	.loc 1 4167 62
	lw	a4,12(a4)
.LVL192:
	lw	a4,4(a4)
.LVL193:
	.loc 1 4167 24
	sw	a4,%lo(.LANCHOR6)(a5)
	.loc 1 4169 1
	j	.L175
.LVL194:
.L192:
.LBE198:
.LBE197:
.LBE199:
.LBE200:
	.loc 1 2789 154 is_stmt 1 discriminator 1
	li	a0,2
	call	vEnvironmentCall
.LVL195:
	j	.L179
.LBE201:
	.cfi_endproc
.LFE34:
	.size	vTaskStepTickSafe, .-vTaskStepTickSafe
	.section	.text.xTaskIncrementTick,"ax",@progbits
	.align	1
	.globl	xTaskIncrementTick
	.type	xTaskIncrementTick, @function
xTaskIncrementTick:
.LFB35:
	.loc 1 2878 1
	.cfi_startproc
	.loc 1 2879 1
	.loc 1 2880 1
	.loc 1 2881 1
.LVL196:
	.loc 1 2884 2
	.loc 1 2887 2
	.loc 1 2888 2
	.loc 1 2878 1 is_stmt 0
	addi	sp,sp,-32
	.cfi_def_cfa_offset 32
	.loc 1 2888 6
	addi	a0,sp,12
	.loc 1 2878 1
	sw	ra,28(sp)
	.cfi_offset 1, -4
	.loc 1 2888 6
	call	bl_sys_time_sync_state
.LVL197:
	.loc 1 2888 4
	beq	a0,zero,.L193
	call	xTaskIncrementTick.part.0
.LVL198:
.L193:
	.loc 1 3057 1
	lw	ra,28(sp)
	.cfi_restore 1
	addi	sp,sp,32
	.cfi_def_cfa_offset 0
	jr	ra
	.cfi_endproc
.LFE35:
	.size	xTaskIncrementTick, .-xTaskIncrementTick
	.section	.text.vTaskSwitchContext,"ax",@progbits
	.align	1
	.globl	vTaskSwitchContext
	.type	vTaskSwitchContext, @function
vTaskSwitchContext:
.LFB36:
	.loc 1 3171 1 is_stmt 1
	.cfi_startproc
	.loc 1 3172 2
	.loc 1 3172 27 is_stmt 0
	lui	a5,%hi(.LANCHOR14)
	lw	a5,%lo(.LANCHOR14)(a5)
	.loc 1 3172 4
	beq	a5,zero,.L200
	.loc 1 3176 3 is_stmt 1
	.loc 1 3176 17 is_stmt 0
	lui	a5,%hi(.LANCHOR8)
	li	a4,1
	sw	a4,%lo(.LANCHOR8)(a5)
	.loc 1 3240 1
	ret
.L200:
	tail	vTaskSwitchContext.part.0
.LVL199:
	.cfi_endproc
.LFE36:
	.size	vTaskSwitchContext, .-vTaskSwitchContext
	.section	.text.vTaskPlaceOnEventList,"ax",@progbits
	.align	1
	.globl	vTaskPlaceOnEventList
	.type	vTaskPlaceOnEventList, @function
vTaskPlaceOnEventList:
.LFB37:
	.loc 1 3244 1 is_stmt 1
	.cfi_startproc
.LVL200:
	.loc 1 3245 2
	.loc 1 3244 1 is_stmt 0
	addi	sp,sp,-16
	.cfi_def_cfa_offset 16
	sw	s0,8(sp)
	sw	s1,4(sp)
	sw	ra,12(sp)
	.cfi_offset 8, -8
	.cfi_offset 9, -12
	.cfi_offset 1, -4
	.loc 1 3244 1
	mv	s0,a0
	mv	s1,a1
	.loc 1 3245 4
	beq	a0,zero,.L206
.LVL201:
.L204:
	.loc 1 3254 2 is_stmt 1
	.loc 1 3254 43 is_stmt 0
	lui	a5,%hi(.LANCHOR1)
	lw	a1,%lo(.LANCHOR1)(a5)
	.loc 1 3254 2
	mv	a0,s0
	addi	a1,a1,24
	call	vListInsert
.LVL202:
	.loc 1 3256 2 is_stmt 1
	.loc 1 3257 1 is_stmt 0
	lw	s0,8(sp)
	.cfi_remember_state
	.cfi_restore 8
.LVL203:
	lw	ra,12(sp)
	.cfi_restore 1
	.loc 1 3256 2
	mv	a0,s1
	.loc 1 3257 1
	lw	s1,4(sp)
	.cfi_restore 9
.LVL204:
	.loc 1 3256 2
	li	a1,1
	.loc 1 3257 1
	addi	sp,sp,16
	.cfi_def_cfa_offset 0
	.loc 1 3256 2
	tail	prvAddCurrentTaskToDelayedList
.LVL205:
.L206:
	.cfi_restore_state
	.loc 1 3245 29 is_stmt 1 discriminator 1
	li	a0,2
	call	vEnvironmentCall
.LVL206:
	j	.L204
	.cfi_endproc
.LFE37:
	.size	vTaskPlaceOnEventList, .-vTaskPlaceOnEventList
	.section	.text.vTaskPlaceOnUnorderedEventList,"ax",@progbits
	.align	1
	.globl	vTaskPlaceOnUnorderedEventList
	.type	vTaskPlaceOnUnorderedEventList, @function
vTaskPlaceOnUnorderedEventList:
.LFB38:
	.loc 1 3261 1
	.cfi_startproc
.LVL207:
	.loc 1 3262 2
	.loc 1 3261 1 is_stmt 0
	addi	sp,sp,-16
	.cfi_def_cfa_offset 16
	sw	s0,8(sp)
	sw	s1,4(sp)
	sw	s2,0(sp)
	sw	ra,12(sp)
	.cfi_offset 8, -8
	.cfi_offset 9, -12
	.cfi_offset 18, -16
	.cfi_offset 1, -4
	.loc 1 3261 1
	mv	s1,a0
	mv	s0,a1
	mv	s2,a2
	.loc 1 3262 4
	beq	a0,zero,.L211
.LVL208:
.L208:
	.loc 1 3266 2 is_stmt 1
	.loc 1 3266 36 is_stmt 0
	lui	a5,%hi(.LANCHOR14)
	lw	a5,%lo(.LANCHOR14)(a5)
	.loc 1 3266 4
	beq	a5,zero,.L212
.L209:
	.loc 1 3271 2 is_stmt 1
	.loc 1 3271 21 is_stmt 0
	lui	a5,%hi(.LANCHOR1)
	addi	a5,a5,%lo(.LANCHOR1)
	lw	a4,0(a5)
	.loc 1 3278 46
	lw	a1,0(a5)
	.loc 1 3271 69
	li	a5,-2147483648
	or	s0,s0,a5
.LVL209:
	.loc 1 3278 2
	mv	a0,s1
	addi	a1,a1,24
	.loc 1 3271 54
	sw	s0,24(a4)
	.loc 1 3278 2 is_stmt 1
	call	vListInsertEnd
.LVL210:
	.loc 1 3280 2
	.loc 1 3281 1 is_stmt 0
	lw	s0,8(sp)
	.cfi_remember_state
	.cfi_restore 8
	lw	ra,12(sp)
	.cfi_restore 1
	lw	s1,4(sp)
	.cfi_restore 9
.LVL211:
	.loc 1 3280 2
	mv	a0,s2
	.loc 1 3281 1
	lw	s2,0(sp)
	.cfi_restore 18
.LVL212:
	.loc 1 3280 2
	li	a1,1
	.loc 1 3281 1
	addi	sp,sp,16
	.cfi_def_cfa_offset 0
	.loc 1 3280 2
	tail	prvAddCurrentTaskToDelayedList
.LVL213:
.L212:
	.cfi_restore_state
	.loc 1 3266 43 is_stmt 1 discriminator 1
	li	a0,2
	call	vEnvironmentCall
.LVL214:
	j	.L209
.LVL215:
.L211:
	.loc 1 3262 29 discriminator 1
	li	a0,2
	call	vEnvironmentCall
.LVL216:
	j	.L208
	.cfi_endproc
.LFE38:
	.size	vTaskPlaceOnUnorderedEventList, .-vTaskPlaceOnUnorderedEventList
	.section	.text.vTaskPlaceOnEventListRestricted,"ax",@progbits
	.align	1
	.globl	vTaskPlaceOnEventListRestricted
	.type	vTaskPlaceOnEventListRestricted, @function
vTaskPlaceOnEventListRestricted:
.LFB39:
	.loc 1 3287 2
	.cfi_startproc
.LVL217:
	.loc 1 3288 3
	.loc 1 3287 2 is_stmt 0
	addi	sp,sp,-16
	.cfi_def_cfa_offset 16
	sw	s0,8(sp)
	sw	s1,4(sp)
	sw	s2,0(sp)
	sw	ra,12(sp)
	.cfi_offset 8, -8
	.cfi_offset 9, -12
	.cfi_offset 18, -16
	.cfi_offset 1, -4
	.loc 1 3287 2
	mv	s1,a0
	mv	s2,a1
	mv	s0,a2
	.loc 1 3288 5
	beq	a0,zero,.L220
.LVL218:
.L214:
	.loc 1 3300 3 is_stmt 1
	.loc 1 3300 47 is_stmt 0
	lui	a5,%hi(.LANCHOR1)
	lw	a1,%lo(.LANCHOR1)(a5)
	.loc 1 3300 3
	mv	a0,s1
	addi	a1,a1,24
	call	vListInsertEnd
.LVL219:
	.loc 1 3305 3 is_stmt 1
	.loc 1 3305 5 is_stmt 0
	beq	s0,zero,.L215
	.loc 1 3307 17
	li	s2,-1
.LVL220:
.L215:
	.loc 1 3310 3 is_stmt 1
	.loc 1 3311 3
	mv	a1,s0
	.loc 1 3312 2 is_stmt 0
	lw	s0,8(sp)
	.cfi_remember_state
	.cfi_restore 8
.LVL221:
	lw	ra,12(sp)
	.cfi_restore 1
	lw	s1,4(sp)
	.cfi_restore 9
.LVL222:
	.loc 1 3311 3
	mv	a0,s2
	.loc 1 3312 2
	lw	s2,0(sp)
	.cfi_restore 18
.LVL223:
	addi	sp,sp,16
	.cfi_def_cfa_offset 0
	.loc 1 3311 3
	tail	prvAddCurrentTaskToDelayedList
.LVL224:
.L220:
	.cfi_restore_state
	.loc 1 3288 30 is_stmt 1 discriminator 1
	li	a0,2
	call	vEnvironmentCall
.LVL225:
	j	.L214
	.cfi_endproc
.LFE39:
	.size	vTaskPlaceOnEventListRestricted, .-vTaskPlaceOnEventListRestricted
	.section	.text.xTaskRemoveFromEventList,"ax",@progbits
	.align	1
	.globl	xTaskRemoveFromEventList
	.type	xTaskRemoveFromEventList, @function
xTaskRemoveFromEventList:
.LFB40:
	.loc 1 3318 1
	.cfi_startproc
.LVL226:
	.loc 1 3319 1
	.loc 1 3320 1
	.loc 1 3335 2
	.loc 1 3318 1 is_stmt 0
	addi	sp,sp,-16
	.cfi_def_cfa_offset 16
	sw	ra,12(sp)
	sw	s0,8(sp)
	sw	s1,4(sp)
	.cfi_offset 1, -4
	.cfi_offset 8, -8
	.cfi_offset 9, -12
	.loc 1 3335 17
	lw	a5,12(a0)
	lw	s0,12(a5)
.LVL227:
	.loc 1 3336 2 is_stmt 1
	.loc 1 3336 4 is_stmt 0
	beq	s0,zero,.L228
.LVL228:
.L222:
	.loc 1 3337 2 is_stmt 1
	.loc 1 3337 11 is_stmt 0
	addi	s1,s0,24
	mv	a0,s1
	call	uxListRemove
.LVL229:
	.loc 1 3339 2 is_stmt 1
	.loc 1 3339 27 is_stmt 0
	lui	a5,%hi(.LANCHOR14)
	lw	a5,%lo(.LANCHOR14)(a5)
	.loc 1 3339 4
	bne	a5,zero,.L223
	.loc 1 3341 3 is_stmt 1
	.loc 1 3341 12 is_stmt 0
	addi	s1,s0,4
	mv	a0,s1
	call	uxListRemove
.LVL230:
	.loc 1 3342 3 is_stmt 1
	.loc 1 3342 5
	.loc 1 3342 60 is_stmt 0
	lw	a2,44(s0)
	.loc 1 3342 28
	lui	a3,%hi(.LANCHOR2)
	addi	a3,a3,%lo(.LANCHOR2)
	lw	a1,0(a3)
	.loc 1 3342 78
	slli	a4,a2,2
	add	a4,a4,a2
	.loc 1 3342 37
	li	a5,1
	.loc 1 3342 78
	lui	a0,%hi(.LANCHOR9)
	.loc 1 3342 37
	sll	a5,a5,a2
	.loc 1 3342 78
	slli	a4,a4,2
	addi	a0,a0,%lo(.LANCHOR9)
	.loc 1 3342 28
	or	a5,a5,a1
	.loc 1 3342 78
	add	a0,a0,a4
	mv	a1,s1
	.loc 1 3342 28
	sw	a5,0(a3)
	.loc 1 3342 78 is_stmt 1
	call	vListInsertEnd
.LVL231:
	.loc 1 3342 195
.L224:
	.loc 1 3365 2
	.loc 1 3365 47 is_stmt 0
	lui	a5,%hi(.LANCHOR1)
	lw	a5,%lo(.LANCHOR1)(a5)
	.loc 1 3365 4
	lw	a4,44(s0)
	.loc 1 3378 11
	li	a0,0
	.loc 1 3365 4
	lw	a5,44(a5)
	bleu	a4,a5,.L221
	.loc 1 3370 3 is_stmt 1
.LVL232:
	.loc 1 3374 3
	.loc 1 3374 17 is_stmt 0
	lui	a5,%hi(.LANCHOR8)
	li	a4,1
	sw	a4,%lo(.LANCHOR8)(a5)
	.loc 1 3370 11
	li	a0,1
.LVL233:
.L221:
	.loc 1 3382 1
	lw	ra,12(sp)
	.cfi_remember_state
	.cfi_restore 1
	lw	s0,8(sp)
	.cfi_restore 8
.LVL234:
	lw	s1,4(sp)
	.cfi_restore 9
	addi	sp,sp,16
	.cfi_def_cfa_offset 0
	jr	ra
.LVL235:
.L223:
	.cfi_restore_state
	.loc 1 3362 3 is_stmt 1
	lui	a0,%hi(.LANCHOR17)
	mv	a1,s1
	addi	a0,a0,%lo(.LANCHOR17)
	call	vListInsertEnd
.LVL236:
	j	.L224
.LVL237:
.L228:
	.loc 1 3336 32 discriminator 1
	li	a0,2
.LVL238:
	call	vEnvironmentCall
.LVL239:
	j	.L222
	.cfi_endproc
.LFE40:
	.size	xTaskRemoveFromEventList, .-xTaskRemoveFromEventList
	.section	.text.vTaskRemoveFromUnorderedEventList,"ax",@progbits
	.align	1
	.globl	vTaskRemoveFromUnorderedEventList
	.type	vTaskRemoveFromUnorderedEventList, @function
vTaskRemoveFromUnorderedEventList:
.LFB41:
	.loc 1 3386 1
	.cfi_startproc
.LVL240:
	.loc 1 3387 1
	.loc 1 3391 2
	.loc 1 3391 55 is_stmt 0
	lui	a5,%hi(.LANCHOR14)
	lw	a5,%lo(.LANCHOR14)(a5)
	.loc 1 3386 1
	addi	sp,sp,-16
	.cfi_def_cfa_offset 16
	sw	s0,8(sp)
	sw	s1,4(sp)
	sw	ra,12(sp)
	sw	s2,0(sp)
	.cfi_offset 8, -8
	.cfi_offset 9, -12
	.cfi_offset 1, -4
	.cfi_offset 18, -16
	.loc 1 3386 1
	mv	s0,a0
	mv	s1,a1
	.loc 1 3391 4
	beq	a5,zero,.L234
	.loc 1 3394 2 is_stmt 1
	.loc 1 3394 51 is_stmt 0
	li	a1,-2147483648
.LVL241:
	.loc 1 3398 17
	lw	s2,12(s0)
	.loc 1 3394 51
	or	s1,s1,a1
.LVL242:
	.loc 1 3394 36
	sw	s1,0(s0)
	.loc 1 3398 2 is_stmt 1
.LVL243:
	.loc 1 3399 2
	.loc 1 3399 4 is_stmt 0
	beq	s2,zero,.L235
.LVL244:
.L231:
	.loc 1 3400 2 is_stmt 1
	.loc 1 3400 11 is_stmt 0
	mv	a0,s0
	call	uxListRemove
.LVL245:
	.loc 1 3405 2 is_stmt 1
	.loc 1 3405 11 is_stmt 0
	addi	s0,s2,4
.LVL246:
	mv	a0,s0
	call	uxListRemove
.LVL247:
	.loc 1 3406 2 is_stmt 1
	.loc 1 3406 4
	.loc 1 3406 59 is_stmt 0
	lw	a5,44(s2)
	.loc 1 3406 27
	lui	a3,%hi(.LANCHOR2)
	addi	a3,a3,%lo(.LANCHOR2)
	lw	a2,0(a3)
	.loc 1 3406 77
	slli	a4,a5,2
	add	a4,a4,a5
	.loc 1 3406 36
	li	s1,1
	.loc 1 3406 77
	lui	a0,%hi(.LANCHOR9)
	slli	a4,a4,2
	.loc 1 3406 36
	sll	a5,s1,a5
	.loc 1 3406 77
	addi	a0,a0,%lo(.LANCHOR9)
	.loc 1 3406 27
	or	a5,a5,a2
	.loc 1 3406 77
	add	a0,a0,a4
	mv	a1,s0
	.loc 1 3406 27
	sw	a5,0(a3)
	.loc 1 3406 77 is_stmt 1
	call	vListInsertEnd
.LVL248:
	.loc 1 3406 194
	.loc 1 3408 2
	.loc 1 3408 47 is_stmt 0
	lui	a5,%hi(.LANCHOR1)
	lw	a5,%lo(.LANCHOR1)(a5)
	.loc 1 3408 4
	lw	a4,44(s2)
	lw	a5,44(a5)
	bleu	a4,a5,.L229
	.loc 1 3414 3 is_stmt 1
	.loc 1 3414 17 is_stmt 0
	lui	a5,%hi(.LANCHOR8)
	sw	s1,%lo(.LANCHOR8)(a5)
.L229:
	.loc 1 3416 1
	lw	ra,12(sp)
	.cfi_remember_state
	.cfi_restore 1
	lw	s0,8(sp)
	.cfi_restore 8
	lw	s1,4(sp)
	.cfi_restore 9
	lw	s2,0(sp)
	.cfi_restore 18
.LVL249:
	addi	sp,sp,16
	.cfi_def_cfa_offset 0
	jr	ra
.LVL250:
.L234:
	.cfi_restore_state
	.loc 1 3391 62 is_stmt 1 discriminator 1
	li	a0,2
	call	vEnvironmentCall
.LVL251:
	.loc 1 3394 2 discriminator 1
	.loc 1 3394 51 is_stmt 0 discriminator 1
	li	a1,-2147483648
	.loc 1 3398 17 discriminator 1
	lw	s2,12(s0)
	.loc 1 3394 51 discriminator 1
	or	s1,s1,a1
.LVL252:
	.loc 1 3394 36 discriminator 1
	sw	s1,0(s0)
	.loc 1 3398 2 is_stmt 1 discriminator 1
.LVL253:
	.loc 1 3399 2 discriminator 1
	.loc 1 3399 4 is_stmt 0 discriminator 1
	bne	s2,zero,.L231
.L235:
	.loc 1 3399 32 is_stmt 1 discriminator 1
	li	a0,2
	call	vEnvironmentCall
.LVL254:
	j	.L231
	.cfi_endproc
.LFE41:
	.size	vTaskRemoveFromUnorderedEventList, .-vTaskRemoveFromUnorderedEventList
	.section	.text.vTaskSetTimeOutState,"ax",@progbits
	.align	1
	.globl	vTaskSetTimeOutState
	.type	vTaskSetTimeOutState, @function
vTaskSetTimeOutState:
.LFB42:
	.loc 1 3420 1
	.cfi_startproc
.LVL255:
	.loc 1 3421 2
	.loc 1 3420 1 is_stmt 0
	addi	sp,sp,-16
	.cfi_def_cfa_offset 16
	sw	s0,8(sp)
	sw	ra,12(sp)
	.cfi_offset 8, -8
	.cfi_offset 1, -4
	.loc 1 3420 1
	mv	s0,a0
	.loc 1 3421 4
	beq	a0,zero,.L249
.LVL256:
.L237:
	.loc 1 3422 2 is_stmt 1
.LBB210:
.LBB211:
	.loc 1 4490 3
 #APP
# 4490 "/home/anh/Desktop/wb2/Ai-Thinker-WB2/components/platform/soc/bl602/freertos_riscv_ram/tasks.c" 1
	csrc mstatus, 8
# 0 "" 2
	.loc 1 4492 3
	.loc 1 4492 25 is_stmt 0
 #NO_APP
	lui	a5,%hi(.LANCHOR11)
	addi	a5,a5,%lo(.LANCHOR11)
	lw	a4,0(a5)
	.loc 1 4492 5
	beq	a4,zero,.L238
.LBB212:
.LBB213:
	.loc 1 4494 4 is_stmt 1
	.loc 1 4494 18 is_stmt 0
	lui	a4,%hi(.LANCHOR1)
	addi	a4,a4,%lo(.LANCHOR1)
	lw	a3,0(a4)
	.loc 1 4502 20
	lw	a4,0(a4)
	.loc 1 4494 39
	lw	a4,68(a3)
	addi	a4,a4,1
	sw	a4,68(a3)
	.loc 1 4502 4 is_stmt 1
	.loc 1 4504 5
	.loc 1 4509 4
.L238:
.LBE213:
.LBE212:
	.loc 1 4509 4
.LBE211:
.LBE210:
	.loc 1 3424 3
	.loc 1 3424 29 is_stmt 0
	lui	a3,%hi(.LANCHOR15)
	.loc 1 3425 30
	lui	a4,%hi(.LANCHOR0)
	.loc 1 3424 29
	lw	a3,%lo(.LANCHOR15)(a3)
	.loc 1 3425 30
	lw	a4,%lo(.LANCHOR0)(a4)
.LBB214:
.LBB215:
	.loc 1 4520 25
	lw	a5,0(a5)
.LBE215:
.LBE214:
	.loc 1 3424 29
	sw	a3,0(s0)
	.loc 1 3425 3 is_stmt 1
	.loc 1 3425 30 is_stmt 0
	sw	a4,4(s0)
	.loc 1 3427 2 is_stmt 1
.LBB219:
.LBB218:
	.loc 1 4520 3
	.loc 1 4520 5 is_stmt 0
	beq	a5,zero,.L236
	.loc 1 4522 4 is_stmt 1
	.loc 1 4522 20 is_stmt 0
	lui	a5,%hi(.LANCHOR1)
	addi	a5,a5,%lo(.LANCHOR1)
	lw	a4,0(a5)
	.loc 1 4522 6
	lw	a4,68(a4)
	beq	a4,zero,.L236
.LBB216:
.LBB217:
	.loc 1 4524 5 is_stmt 1
	.loc 1 4524 19 is_stmt 0
	lw	a4,0(a5)
	.loc 1 4526 21
	lw	a3,0(a5)
	.loc 1 4524 40
	lw	a5,68(a4)
	addi	a5,a5,-1
	sw	a5,68(a4)
	.loc 1 4526 5 is_stmt 1
	.loc 1 4526 7 is_stmt 0
	lw	a5,68(a3)
	bne	a5,zero,.L236
	.loc 1 4528 6 is_stmt 1
 #APP
# 4528 "/home/anh/Desktop/wb2/Ai-Thinker-WB2/components/platform/soc/bl602/freertos_riscv_ram/tasks.c" 1
	csrs mstatus, 8
# 0 "" 2
 #NO_APP
.LBE217:
.LBE216:
	.loc 1 4542 4
.L236:
.LBE218:
.LBE219:
	.loc 1 3428 1 is_stmt 0
	lw	ra,12(sp)
	.cfi_remember_state
	.cfi_restore 1
	lw	s0,8(sp)
	.cfi_restore 8
.LVL257:
	addi	sp,sp,16
	.cfi_def_cfa_offset 0
	jr	ra
.LVL258:
.L249:
	.cfi_restore_state
	.loc 1 3421 27 is_stmt 1 discriminator 1
	li	a0,2
	call	vEnvironmentCall
.LVL259:
	j	.L237
	.cfi_endproc
.LFE42:
	.size	vTaskSetTimeOutState, .-vTaskSetTimeOutState
	.section	.text.vTaskInternalSetTimeOutState,"ax",@progbits
	.align	1
	.globl	vTaskInternalSetTimeOutState
	.type	vTaskInternalSetTimeOutState, @function
vTaskInternalSetTimeOutState:
.LFB43:
	.loc 1 3432 1
	.cfi_startproc
.LVL260:
	.loc 1 3434 2
	.loc 1 3434 28 is_stmt 0
	lui	a4,%hi(.LANCHOR15)
	.loc 1 3435 29
	lui	a5,%hi(.LANCHOR0)
	.loc 1 3434 28
	lw	a4,%lo(.LANCHOR15)(a4)
	.loc 1 3435 29
	lw	a5,%lo(.LANCHOR0)(a5)
	.loc 1 3434 28
	sw	a4,0(a0)
	.loc 1 3435 2 is_stmt 1
	.loc 1 3435 29 is_stmt 0
	sw	a5,4(a0)
	.loc 1 3436 1
	ret
	.cfi_endproc
.LFE43:
	.size	vTaskInternalSetTimeOutState, .-vTaskInternalSetTimeOutState
	.section	.text.vTaskMissedYield,"ax",@progbits
	.align	1
	.globl	vTaskMissedYield
	.type	vTaskMissedYield, @function
vTaskMissedYield:
.LFB45:
	.loc 1 3503 1 is_stmt 1
	.cfi_startproc
	.loc 1 3504 2
	.loc 1 3504 16 is_stmt 0
	lui	a5,%hi(.LANCHOR8)
	li	a4,1
	sw	a4,%lo(.LANCHOR8)(a5)
	.loc 1 3505 1
	ret
	.cfi_endproc
.LFE45:
	.size	vTaskMissedYield, .-vTaskMissedYield
	.section	.text.uxTaskGetTaskNumber,"ax",@progbits
	.align	1
	.globl	uxTaskGetTaskNumber
	.type	uxTaskGetTaskNumber, @function
uxTaskGetTaskNumber:
.LFB46:
	.loc 1 3511 2 is_stmt 1
	.cfi_startproc
.LVL261:
	.loc 1 3512 2
	.loc 1 3513 2
	.loc 1 3515 3
	.loc 1 3515 5 is_stmt 0
	beq	a0,zero,.L254
	.loc 1 3517 4 is_stmt 1
.LVL262:
	.loc 1 3518 4
	.loc 1 3518 13 is_stmt 0
	lw	a0,76(a0)
.LVL263:
	ret
.LVL264:
.L254:
	.loc 1 3522 13
	li	a0,0
.LVL265:
	.loc 1 3525 3 is_stmt 1
	.loc 1 3526 2 is_stmt 0
	ret
	.cfi_endproc
.LFE46:
	.size	uxTaskGetTaskNumber, .-uxTaskGetTaskNumber
	.section	.text.vTaskSetTaskNumber,"ax",@progbits
	.align	1
	.globl	vTaskSetTaskNumber
	.type	vTaskSetTaskNumber, @function
vTaskSetTaskNumber:
.LFB47:
	.loc 1 3534 2 is_stmt 1
	.cfi_startproc
.LVL266:
	.loc 1 3535 2
	.loc 1 3537 3
	.loc 1 3537 5 is_stmt 0
	beq	a0,zero,.L255
	.loc 1 3539 4 is_stmt 1
.LVL267:
	.loc 1 3540 4
	.loc 1 3540 24 is_stmt 0
	sw	a1,76(a0)
.LVL268:
.L255:
	.loc 1 3542 2
	ret
	.cfi_endproc
.LFE47:
	.size	vTaskSetTaskNumber, .-vTaskSetTaskNumber
	.section	.text.vTaskSetThreadLocalStoragePointer,"ax",@progbits
	.align	1
	.globl	vTaskSetThreadLocalStoragePointer
	.type	vTaskSetThreadLocalStoragePointer, @function
vTaskSetThreadLocalStoragePointer:
.LFB49:
	.loc 1 3717 2 is_stmt 1
	.cfi_startproc
.LVL269:
	.loc 1 3718 2
	.loc 1 3720 3
	.loc 1 3720 5 is_stmt 0
	ble	a1,zero,.L263
	.loc 1 3725 2
	ret
.L263:
	.loc 1 3722 4 is_stmt 1
	.loc 1 3722 28 is_stmt 0
	beq	a0,zero,.L264
.LVL270:
.L262:
	.loc 1 3723 4 is_stmt 1 discriminator 4
	.loc 1 3723 50 is_stmt 0 discriminator 4
	addi	a1,a1,20
.LVL271:
	slli	a1,a1,2
.LVL272:
	add	a0,a0,a1
.LVL273:
	sw	a2,8(a0)
	.loc 1 3725 2 discriminator 4
	ret
.LVL274:
.L264:
	.loc 1 3722 28 discriminator 1
	lui	a5,%hi(.LANCHOR1)
	lw	a0,%lo(.LANCHOR1)(a5)
.LVL275:
	j	.L262
	.cfi_endproc
.LFE49:
	.size	vTaskSetThreadLocalStoragePointer, .-vTaskSetThreadLocalStoragePointer
	.section	.text.pvTaskGetThreadLocalStoragePointer,"ax",@progbits
	.align	1
	.globl	pvTaskGetThreadLocalStoragePointer
	.type	pvTaskGetThreadLocalStoragePointer, @function
pvTaskGetThreadLocalStoragePointer:
.LFB50:
	.loc 1 3733 2 is_stmt 1
	.cfi_startproc
.LVL276:
	.loc 1 3734 2
	.loc 1 3735 2
	.loc 1 3737 3
	.loc 1 3737 5 is_stmt 0
	bgt	a1,zero,.L268
	.loc 1 3739 4 is_stmt 1
	.loc 1 3739 28 is_stmt 0
	beq	a0,zero,.L269
.LVL277:
	.loc 1 3740 4 is_stmt 1 discriminator 4
	.loc 1 3740 13 is_stmt 0 discriminator 4
	addi	a1,a1,20
.LVL278:
	slli	a1,a1,2
.LVL279:
	add	a1,a0,a1
	lw	a0,8(a1)
.LVL280:
	ret
.LVL281:
.L268:
	.loc 1 3744 13
	li	a0,0
.LVL282:
	.loc 1 3747 3 is_stmt 1
	.loc 1 3748 2 is_stmt 0
	ret
.LVL283:
.L269:
	.loc 1 3739 28 discriminator 1
	lui	a5,%hi(.LANCHOR1)
	lw	a0,%lo(.LANCHOR1)(a5)
.LVL284:
	.loc 1 3740 4 is_stmt 1 discriminator 1
	.loc 1 3740 13 is_stmt 0 discriminator 1
	addi	a1,a1,20
.LVL285:
	slli	a1,a1,2
.LVL286:
	add	a1,a0,a1
	lw	a0,8(a1)
.LVL287:
	ret
	.cfi_endproc
.LFE50:
	.size	pvTaskGetThreadLocalStoragePointer, .-pvTaskGetThreadLocalStoragePointer
	.section	.text.uxTaskGetStackHighWaterMark,"ax",@progbits
	.align	1
	.globl	uxTaskGetStackHighWaterMark
	.type	uxTaskGetStackHighWaterMark, @function
uxTaskGetStackHighWaterMark:
.LFB57:
	.loc 1 4060 2 is_stmt 1
	.cfi_startproc
.LVL288:
	.loc 1 4061 2
	.loc 1 4062 2
	.loc 1 4063 2
	.loc 1 4065 3
	.loc 1 4065 27 is_stmt 0
	beq	a0,zero,.L276
.LVL289:
	.loc 1 4069 4 is_stmt 1 discriminator 4
	.loc 1 4069 18 is_stmt 0 discriminator 4
	lw	a4,48(a0)
.LVL290:
	.loc 1 4077 3 is_stmt 1 discriminator 4
.LBB220:
.LBB221:
	.loc 1 4001 2 discriminator 4
	.loc 1 4003 3 discriminator 4
	.loc 1 4003 8 discriminator 4
	li	a5,165
	.loc 1 4001 11 is_stmt 0 discriminator 4
	li	a0,0
.LVL291:
	.loc 1 4003 8 discriminator 4
	lbu	a3,0(a4)
	bne	a3,a5,.L274
.LVL292:
.L277:
	.loc 1 4003 8
	li	a3,165
.LVL293:
.L273:
	.loc 1 4005 4 is_stmt 1
	.loc 1 4006 4
	.loc 1 4006 11 is_stmt 0
	addi	a0,a0,1
.LVL294:
	.loc 1 4003 8 is_stmt 1
	.loc 1 4003 10 is_stmt 0
	add	a5,a4,a0
	.loc 1 4003 8
	lbu	a5,0(a5)
	beq	a5,a3,.L273
	.loc 1 4009 11
	srli	a0,a0,2
.LVL295:
	slli	a0,a0,16
	srli	a0,a0,16
	ret
.LVL296:
.L276:
.LBE221:
.LBE220:
	.loc 1 4065 27 discriminator 1
	lui	a5,%hi(.LANCHOR1)
	lw	a0,%lo(.LANCHOR1)(a5)
.LVL297:
	.loc 1 4069 4 is_stmt 1 discriminator 1
.LBB224:
.LBB222:
	.loc 1 4003 8 is_stmt 0 discriminator 1
	li	a5,165
.LBE222:
.LBE224:
	.loc 1 4069 18 discriminator 1
	lw	a4,48(a0)
.LVL298:
	.loc 1 4077 3 is_stmt 1 discriminator 1
.LBB225:
.LBB223:
	.loc 1 4001 2 discriminator 1
	.loc 1 4003 3 discriminator 1
	.loc 1 4003 8 discriminator 1
	.loc 1 4001 11 is_stmt 0 discriminator 1
	li	a0,0
.LVL299:
	.loc 1 4003 8 discriminator 1
	lbu	a3,0(a4)
	beq	a3,a5,.L277
.L274:
	.loc 1 4009 3 is_stmt 1
.LVL300:
	.loc 1 4011 3
.LBE223:
.LBE225:
	.loc 1 4079 3
	.loc 1 4080 2 is_stmt 0
	ret
	.cfi_endproc
.LFE57:
	.size	uxTaskGetStackHighWaterMark, .-uxTaskGetStackHighWaterMark
	.section	.text.xTaskGetCurrentTaskHandle,"ax",@progbits
	.align	1
	.globl	xTaskGetCurrentTaskHandle
	.type	xTaskGetCurrentTaskHandle, @function
xTaskGetCurrentTaskHandle:
.LFB60:
	.loc 1 4175 2 is_stmt 1
	.cfi_startproc
	.loc 1 4176 2
	.loc 1 4181 3
	.loc 1 4181 11 is_stmt 0
	lui	a5,%hi(.LANCHOR1)
	lw	a0,%lo(.LANCHOR1)(a5)
.LVL301:
	.loc 1 4183 3 is_stmt 1
	.loc 1 4184 2 is_stmt 0
	ret
	.cfi_endproc
.LFE60:
	.size	xTaskGetCurrentTaskHandle, .-xTaskGetCurrentTaskHandle
	.section	.text.xTaskGetSchedulerState,"ax",@progbits
	.align	1
	.globl	xTaskGetSchedulerState
	.type	xTaskGetSchedulerState, @function
xTaskGetSchedulerState:
.LFB61:
	.loc 1 4192 2 is_stmt 1
	.cfi_startproc
	.loc 1 4193 2
	.loc 1 4195 3
	.loc 1 4195 25 is_stmt 0
	lui	a5,%hi(.LANCHOR11)
	lw	a5,%lo(.LANCHOR11)(a5)
	.loc 1 4197 12
	li	a0,1
	.loc 1 4195 5
	beq	a5,zero,.L279
	.loc 1 4201 4 is_stmt 1
	.loc 1 4201 29 is_stmt 0
	lui	a5,%hi(.LANCHOR14)
	lw	a0,%lo(.LANCHOR14)(a5)
	.loc 1 4207 13
	seqz	a0,a0
	slli	a0,a0,1
.L279:
	.loc 1 4212 2
	ret
	.cfi_endproc
.LFE61:
	.size	xTaskGetSchedulerState, .-xTaskGetSchedulerState
	.section	.text.xTaskPriorityInherit,"ax",@progbits
	.align	1
	.globl	xTaskPriorityInherit
	.type	xTaskPriorityInherit, @function
xTaskPriorityInherit:
.LFB62:
	.loc 1 4220 2 is_stmt 1
	.cfi_startproc
.LVL302:
	.loc 1 4221 2
	.loc 1 4222 2
	.loc 1 4227 3
	.loc 1 4227 5 is_stmt 0
	beq	a0,zero,.L290
	.loc 1 4220 2
	addi	sp,sp,-32
	.cfi_def_cfa_offset 32
	sw	s1,20(sp)
	.cfi_offset 9, -12
	.loc 1 4232 51
	lui	s1,%hi(.LANCHOR1)
	addi	s1,s1,%lo(.LANCHOR1)
	lw	a5,0(s1)
	.loc 1 4220 2
	sw	s0,24(sp)
	sw	ra,28(sp)
	sw	s2,16(sp)
	sw	s3,12(sp)
	.cfi_offset 8, -8
	.cfi_offset 1, -4
	.cfi_offset 18, -16
	.cfi_offset 19, -20
	.loc 1 4232 24
	lw	a4,44(a0)
	.loc 1 4232 6
	lw	a5,44(a5)
	mv	s0,a0
	.loc 1 4232 4 is_stmt 1
	.loc 1 4232 6 is_stmt 0
	bgeu	a4,a5,.L286
	.loc 1 4237 5 is_stmt 1
	.loc 1 4237 7 is_stmt 0
	lw	a5,24(a0)
	blt	a5,zero,.L287
	.loc 1 4239 6 is_stmt 1
	.loc 1 4239 117 is_stmt 0
	lw	a5,0(s1)
	.loc 1 4239 88
	lw	a3,44(a5)
	li	a5,32
	sub	a5,a5,a3
	.loc 1 4239 62
	sw	a5,24(a0)
.L287:
	.loc 1 4243 6 is_stmt 1
	.loc 1 4248 5
	.loc 1 4248 73 is_stmt 0
	slli	a5,a4,2
	add	a5,a5,a4
	lui	s2,%hi(.LANCHOR9)
	.loc 1 4248 7
	lw	a4,20(s0)
	.loc 1 4248 73
	addi	s2,s2,%lo(.LANCHOR9)
	slli	a5,a5,2
	add	a5,s2,a5
	.loc 1 4248 7
	beq	a4,a5,.L299
	.loc 1 4266 6 is_stmt 1
	.loc 1 4266 49 is_stmt 0
	lw	a5,0(s1)
	.loc 1 4272 13
	li	a0,1
.LVL303:
	.loc 1 4266 49
	lw	a5,44(a5)
	.loc 1 4266 35
	sw	a5,44(s0)
	.loc 1 4299 2
	lw	ra,28(sp)
	.cfi_remember_state
	.cfi_restore 1
	lw	s0,24(sp)
	.cfi_restore 8
.LVL304:
	lw	s1,20(sp)
	.cfi_restore 9
	lw	s2,16(sp)
	.cfi_restore 18
	lw	s3,12(sp)
	.cfi_restore 19
	addi	sp,sp,32
	.cfi_def_cfa_offset 0
	jr	ra
.LVL305:
.L286:
	.cfi_restore_state
	.loc 1 4276 5 is_stmt 1
	.loc 1 4276 56 is_stmt 0
	lw	a5,0(s1)
	.loc 1 4276 7
	lw	a0,80(a0)
	lw	a5,44(a5)
	sltu	a0,a0,a5
.L284:
	.loc 1 4299 2
	lw	ra,28(sp)
	.cfi_restore 1
	lw	s0,24(sp)
	.cfi_restore 8
.LVL306:
	lw	s1,20(sp)
	.cfi_restore 9
	lw	s2,16(sp)
	.cfi_restore 18
	lw	s3,12(sp)
	.cfi_restore 19
	addi	sp,sp,32
	.cfi_def_cfa_offset 0
	jr	ra
.LVL307:
.L290:
	.loc 1 4222 13
	li	a0,0
.LVL308:
	.loc 1 4295 4 is_stmt 1
	.loc 1 4298 3
	.loc 1 4299 2 is_stmt 0
	ret
.LVL309:
.L299:
	.cfi_def_cfa_offset 32
	.cfi_offset 1, -4
	.cfi_offset 8, -8
	.cfi_offset 9, -12
	.cfi_offset 18, -16
	.cfi_offset 19, -20
	.loc 1 4250 6 is_stmt 1
	.loc 1 4250 10 is_stmt 0
	addi	s3,s0,4
	mv	a0,s3
	call	uxListRemove
.LVL310:
	.loc 1 4250 8
	bne	a0,zero,.L300
	.loc 1 4252 9 is_stmt 1
	.loc 1 4252 57 is_stmt 0
	lw	a3,44(s0)
	.loc 1 4252 149
	lui	a4,%hi(.LANCHOR2)
	addi	a4,a4,%lo(.LANCHOR2)
	.loc 1 4252 77
	slli	a5,a3,2
	add	a5,a5,a3
	slli	a5,a5,2
	add	a5,s2,a5
	lw	a5,0(a5)
	.loc 1 4252 11
	bne	a5,zero,.L289
	.loc 1 4252 122 is_stmt 1 discriminator 1
	.loc 1 4252 149 is_stmt 0 discriminator 1
	lw	a2,0(a4)
	.loc 1 4252 159 discriminator 1
	li	a5,1
	sll	a5,a5,a3
	.loc 1 4252 152 discriminator 1
	not	a5,a5
	.loc 1 4252 149 discriminator 1
	and	a5,a5,a2
	sw	a5,0(a4)
	j	.L289
.L300:
	lui	a4,%hi(.LANCHOR2)
	addi	a4,a4,%lo(.LANCHOR2)
.L289:
	.loc 1 4256 7 is_stmt 1
	.loc 1 4260 6
	.loc 1 4260 49 is_stmt 0
	lw	a5,0(s1)
	.loc 1 4261 31
	lw	a2,0(a4)
	.loc 1 4261 83
	mv	a1,s3
	.loc 1 4260 49
	lw	a3,44(a5)
	.loc 1 4261 40
	li	a5,1
	.loc 1 4261 83
	slli	a0,a3,2
	add	a0,a0,a3
	.loc 1 4261 40
	sll	a5,a5,a3
	.loc 1 4261 83
	slli	a0,a0,2
	.loc 1 4261 31
	or	a5,a5,a2
	.loc 1 4261 83
	add	a0,s2,a0
	.loc 1 4260 35
	sw	a3,44(s0)
	.loc 1 4261 6 is_stmt 1
	.loc 1 4261 8
	.loc 1 4261 31 is_stmt 0
	sw	a5,0(a4)
	.loc 1 4261 83 is_stmt 1
	call	vListInsertEnd
.LVL311:
	.loc 1 4261 204
	.loc 1 4272 13 is_stmt 0
	li	a0,1
	j	.L284
	.cfi_endproc
.LFE62:
	.size	xTaskPriorityInherit, .-xTaskPriorityInherit
	.section	.text.xTaskPriorityDisinherit,"ax",@progbits
	.align	1
	.globl	xTaskPriorityDisinherit
	.type	xTaskPriorityDisinherit, @function
xTaskPriorityDisinherit:
.LFB63:
	.loc 1 4307 2 is_stmt 1
	.cfi_startproc
.LVL312:
	.loc 1 4308 2
	.loc 1 4309 2
	.loc 1 4311 3
	.loc 1 4311 5 is_stmt 0
	beq	a0,zero,.L315
	.loc 1 4317 34
	lui	a5,%hi(.LANCHOR1)
	lw	a5,%lo(.LANCHOR1)(a5)
	.loc 1 4307 2
	addi	sp,sp,-16
	.cfi_def_cfa_offset 16
	sw	s0,8(sp)
	sw	ra,12(sp)
	sw	s1,4(sp)
	.cfi_offset 8, -8
	.cfi_offset 1, -4
	.cfi_offset 9, -12
	mv	s0,a0
	.loc 1 4317 4 is_stmt 1
	.loc 1 4317 6 is_stmt 0
	beq	a5,a0,.L304
	.loc 1 4317 41 is_stmt 1 discriminator 1
	li	a0,2
.LVL313:
	call	vEnvironmentCall
.LVL314:
.L304:
	.loc 1 4318 4
	.loc 1 4318 15 is_stmt 0
	lw	a5,84(s0)
	.loc 1 4318 6
	beq	a5,zero,.L316
	.loc 1 4319 4 is_stmt 1
	.loc 1 4323 6 is_stmt 0
	lw	a3,44(s0)
	lw	a4,80(s0)
	.loc 1 4319 28
	addi	a5,a5,-1
	sw	a5,84(s0)
	.loc 1 4323 4 is_stmt 1
	.loc 1 4323 6 is_stmt 0
	beq	a3,a4,.L306
.L318:
	.loc 1 4326 5 is_stmt 1
	.loc 1 4326 7 is_stmt 0
	beq	a5,zero,.L317
.L306:
	.loc 1 4379 2
	lw	ra,12(sp)
	.cfi_remember_state
	.cfi_restore 1
	lw	s0,8(sp)
	.cfi_restore 8
.LVL315:
	lw	s1,4(sp)
	.cfi_restore 9
	.loc 1 4309 13
	li	a0,0
	.loc 1 4379 2
	addi	sp,sp,16
	.cfi_def_cfa_offset 0
	jr	ra
.LVL316:
.L316:
	.cfi_restore_state
	.loc 1 4318 40 is_stmt 1 discriminator 1
	li	a0,2
	call	vEnvironmentCall
.LVL317:
	.loc 1 4319 11 is_stmt 0 discriminator 1
	lw	a5,84(s0)
	.loc 1 4319 4 is_stmt 1 discriminator 1
	.loc 1 4323 6 is_stmt 0 discriminator 1
	lw	a3,44(s0)
	lw	a4,80(s0)
	.loc 1 4319 28 discriminator 1
	addi	a5,a5,-1
	sw	a5,84(s0)
	.loc 1 4323 4 is_stmt 1 discriminator 1
	.loc 1 4323 6 is_stmt 0 discriminator 1
	bne	a3,a4,.L318
	j	.L306
.LVL318:
.L315:
	.cfi_def_cfa_offset 0
	.cfi_restore 1
	.cfi_restore 8
	.cfi_restore 9
	.loc 1 4309 13
	li	a0,0
.LVL319:
	.loc 1 4379 2
	ret
.LVL320:
.L317:
	.cfi_def_cfa_offset 16
	.cfi_offset 1, -4
	.cfi_offset 8, -8
	.cfi_offset 9, -12
	.loc 1 4333 6 is_stmt 1
	.loc 1 4333 10 is_stmt 0
	addi	s1,s0,4
	mv	a0,s1
	call	uxListRemove
.LVL321:
	.loc 1 4333 8
	beq	a0,zero,.L310
	lui	a0,%hi(.LANCHOR9)
	lui	a2,%hi(.LANCHOR2)
	addi	a0,a0,%lo(.LANCHOR9)
	addi	a2,a2,%lo(.LANCHOR2)
.L307:
	.loc 1 4339 7 is_stmt 1
	.loc 1 4344 6
	.loc 1 4345 6
	.loc 1 4345 31 is_stmt 0
	lw	a3,80(s0)
	.loc 1 4351 31
	lw	a1,0(a2)
	.loc 1 4350 77
	li	a6,32
	.loc 1 4351 72
	slli	a4,a3,2
	add	a4,a4,a3
	.loc 1 4351 40
	li	a5,1
	.loc 1 4350 77
	sub	a6,a6,a3
	.loc 1 4351 40
	sll	a5,a5,a3
	.loc 1 4351 72
	slli	a4,a4,2
	.loc 1 4351 31
	or	a5,a5,a1
	.loc 1 4345 24
	sw	a3,44(s0)
	.loc 1 4350 6 is_stmt 1
	.loc 1 4350 51 is_stmt 0
	sw	a6,24(s0)
	.loc 1 4351 6 is_stmt 1
	.loc 1 4351 8
	.loc 1 4351 72 is_stmt 0
	mv	a1,s1
	add	a0,a0,a4
	.loc 1 4351 31
	sw	a5,0(a2)
	.loc 1 4351 72 is_stmt 1
	call	vListInsertEnd
.LVL322:
	.loc 1 4351 171
	.loc 1 4361 6
	.loc 1 4379 2 is_stmt 0
	lw	ra,12(sp)
	.cfi_remember_state
	.cfi_restore 1
	lw	s0,8(sp)
	.cfi_restore 8
.LVL323:
	lw	s1,4(sp)
	.cfi_restore 9
.LVL324:
	.loc 1 4361 14
	li	a0,1
	.loc 1 4375 4 is_stmt 1
	.loc 1 4378 3
	.loc 1 4379 2 is_stmt 0
	addi	sp,sp,16
	.cfi_def_cfa_offset 0
	jr	ra
.LVL325:
.L310:
	.cfi_restore_state
	.loc 1 4335 9 is_stmt 1
	.loc 1 4335 46 is_stmt 0
	lw	a4,44(s0)
	.loc 1 4335 66
	lui	a0,%hi(.LANCHOR9)
	addi	a0,a0,%lo(.LANCHOR9)
	slli	a5,a4,2
	add	a5,a5,a4
	slli	a5,a5,2
	add	a5,a0,a5
	lw	a5,0(a5)
	.loc 1 4335 138
	lui	a2,%hi(.LANCHOR2)
	addi	a2,a2,%lo(.LANCHOR2)
	.loc 1 4335 11
	bne	a5,zero,.L307
	.loc 1 4335 111 is_stmt 1 discriminator 1
	.loc 1 4335 138 is_stmt 0 discriminator 1
	lw	a3,0(a2)
	.loc 1 4335 148 discriminator 1
	li	a5,1
	sll	a5,a5,a4
	.loc 1 4335 141 discriminator 1
	not	a5,a5
	.loc 1 4335 138 discriminator 1
	and	a5,a5,a3
	sw	a5,0(a2)
	j	.L307
	.cfi_endproc
.LFE63:
	.size	xTaskPriorityDisinherit, .-xTaskPriorityDisinherit
	.section	.text.vTaskPriorityDisinheritAfterTimeout,"ax",@progbits
	.align	1
	.globl	vTaskPriorityDisinheritAfterTimeout
	.type	vTaskPriorityDisinheritAfterTimeout, @function
vTaskPriorityDisinheritAfterTimeout:
.LFB64:
	.loc 1 4387 2 is_stmt 1
	.cfi_startproc
.LVL326:
	.loc 1 4388 2
	.loc 1 4389 2
	.loc 1 4390 2
	.loc 1 4392 3
	.loc 1 4392 5 is_stmt 0
	beq	a0,zero,.L332
	.loc 1 4387 2
	addi	sp,sp,-16
	.cfi_def_cfa_offset 16
	sw	s0,8(sp)
	sw	s1,4(sp)
	sw	ra,12(sp)
	sw	s2,0(sp)
	.cfi_offset 8, -8
	.cfi_offset 9, -12
	.cfi_offset 1, -4
	.cfi_offset 18, -16
	.loc 1 4396 6
	lw	a5,84(a0)
	mv	s0,a0
	mv	s1,a1
	.loc 1 4396 4 is_stmt 1
	.loc 1 4396 6 is_stmt 0
	beq	a5,zero,.L335
	.loc 1 4402 4 is_stmt 1
	lw	s2,80(s0)
	bltu	s2,s1,.L336
.LVL327:
.L323:
	.loc 1 4412 4
	.loc 1 4412 13 is_stmt 0
	lw	a5,44(s0)
	.loc 1 4412 6
	beq	a5,s2,.L319
.L338:
	.loc 1 4418 5 is_stmt 1
	.loc 1 4418 7 is_stmt 0
	lw	a3,84(s0)
	li	a4,1
	beq	a3,a4,.L337
.LVL328:
.L319:
	.loc 1 4481 2
	lw	ra,12(sp)
	.cfi_remember_state
	.cfi_restore 1
	lw	s0,8(sp)
	.cfi_restore 8
.LVL329:
	lw	s1,4(sp)
	.cfi_restore 9
	lw	s2,0(sp)
	.cfi_restore 18
	addi	sp,sp,16
	.cfi_def_cfa_offset 0
	jr	ra
.LVL330:
.L336:
	.cfi_restore_state
	.loc 1 4412 13
	lw	a5,44(s0)
	mv	s2,s1
.LVL331:
	.loc 1 4412 4 is_stmt 1
	.loc 1 4412 6 is_stmt 0
	bne	a5,s2,.L338
.LVL332:
	j	.L319
.LVL333:
.L335:
	.loc 1 4396 40 is_stmt 1 discriminator 1
	li	a0,2
	call	vEnvironmentCall
.LVL334:
	.loc 1 4402 4 discriminator 1
	lw	s2,80(s0)
	bgeu	s2,s1,.L323
	j	.L336
.LVL335:
.L332:
	.cfi_def_cfa_offset 0
	.cfi_restore 1
	.cfi_restore 8
	.cfi_restore 9
	.cfi_restore 18
	ret
.LVL336:
.L337:
	.cfi_def_cfa_offset 16
	.cfi_offset 1, -4
	.cfi_offset 8, -8
	.cfi_offset 9, -12
	.cfi_offset 18, -16
	.loc 1 4423 6
	.loc 1 4423 36 is_stmt 0
	lui	a4,%hi(.LANCHOR1)
	lw	a4,%lo(.LANCHOR1)(a4)
	.loc 1 4423 8
	beq	a4,s0,.L339
.L325:
	.loc 1 4428 6 is_stmt 1
	.loc 1 4429 6
.LVL337:
	.loc 1 4430 6
	.loc 1 4434 8 is_stmt 0
	lw	a4,24(s0)
	.loc 1 4430 24
	sw	s2,44(s0)
.LVL338:
	.loc 1 4434 6 is_stmt 1
	.loc 1 4434 8 is_stmt 0
	blt	a4,zero,.L326
	.loc 1 4436 7 is_stmt 1
	.loc 1 4436 78 is_stmt 0
	li	a4,32
	sub	s2,a4,s2
.LVL339:
	.loc 1 4436 52
	sw	s2,24(s0)
.L326:
	.loc 1 4440 7 is_stmt 1
	.loc 1 4449 6
	.loc 1 4449 63 is_stmt 0
	slli	a4,a5,2
	add	a5,a4,a5
	lui	s1,%hi(.LANCHOR9)
.LVL340:
	.loc 1 4449 8
	lw	a4,20(s0)
	.loc 1 4449 63
	addi	s1,s1,%lo(.LANCHOR9)
	slli	a5,a5,2
	add	a5,s1,a5
	.loc 1 4449 8
	bne	a4,a5,.L319
	.loc 1 4451 7 is_stmt 1
	.loc 1 4451 11 is_stmt 0
	addi	s2,s0,4
	mv	a0,s2
	call	uxListRemove
.LVL341:
	.loc 1 4451 9
	beq	a0,zero,.L327
	.loc 1 4453 47
	lw	a0,44(s0)
	.loc 1 4453 149
	li	a3,1
	lui	a4,%hi(.LANCHOR2)
	sll	a3,a3,a0
	slli	a5,a0,2
	addi	a4,a4,%lo(.LANCHOR2)
.L328:
	.loc 1 4457 8 is_stmt 1
	.loc 1 4460 7
	.loc 1 4460 9
	.loc 1 4460 32 is_stmt 0
	lw	a2,0(a4)
	.loc 1 4460 73
	add	a5,a5,a0
	slli	a0,a5,2
	.loc 1 4460 32
	or	a3,a2,a3
	sw	a3,0(a4)
	.loc 1 4460 73 is_stmt 1
	.loc 1 4481 2 is_stmt 0
	lw	s0,8(sp)
	.cfi_remember_state
	.cfi_restore 8
.LVL342:
	lw	ra,12(sp)
	.cfi_restore 1
	.loc 1 4460 73
	mv	a1,s2
	add	a0,s1,a0
	.loc 1 4481 2
	lw	s2,0(sp)
	.cfi_restore 18
.LVL343:
	lw	s1,4(sp)
	.cfi_restore 9
	addi	sp,sp,16
	.cfi_def_cfa_offset 0
	.loc 1 4460 73
	tail	vListInsertEnd
.LVL344:
.L339:
	.cfi_restore_state
	.loc 1 4423 43 is_stmt 1 discriminator 1
	li	a0,2
	call	vEnvironmentCall
.LVL345:
	.loc 1 4429 28 is_stmt 0 discriminator 1
	lw	a5,44(s0)
	j	.L325
.LVL346:
.L327:
	.loc 1 4453 10 is_stmt 1
	.loc 1 4453 47 is_stmt 0
	lw	a0,44(s0)
	.loc 1 4453 149
	li	a3,1
	.loc 1 4453 67
	slli	a5,a0,2
	add	a4,a5,a0
	slli	a4,a4,2
	add	a4,s1,a4
	lw	a4,0(a4)
	.loc 1 4453 149
	sll	a3,a3,a0
	.loc 1 4453 12
	beq	a4,zero,.L330
	lui	a4,%hi(.LANCHOR2)
	addi	a4,a4,%lo(.LANCHOR2)
	j	.L328
.L330:
	.loc 1 4453 112 is_stmt 1 discriminator 1
	.loc 1 4453 139 is_stmt 0 discriminator 1
	lui	a4,%hi(.LANCHOR2)
	addi	a4,a4,%lo(.LANCHOR2)
	lw	a1,0(a4)
	.loc 1 4453 142 discriminator 1
	not	a2,a3
	.loc 1 4453 139 discriminator 1
	and	a2,a2,a1
	sw	a2,0(a4)
	j	.L328
	.cfi_endproc
.LFE64:
	.size	vTaskPriorityDisinheritAfterTimeout, .-vTaskPriorityDisinheritAfterTimeout
	.section	.text.vTaskEnterCritical,"ax",@progbits
	.align	1
	.globl	vTaskEnterCritical
	.type	vTaskEnterCritical, @function
vTaskEnterCritical:
.LFB65:
	.loc 1 4489 2 is_stmt 1
	.cfi_startproc
	.loc 1 4490 3
 #APP
# 4490 "/home/anh/Desktop/wb2/Ai-Thinker-WB2/components/platform/soc/bl602/freertos_riscv_ram/tasks.c" 1
	csrc mstatus, 8
# 0 "" 2
	.loc 1 4492 3
	.loc 1 4492 25 is_stmt 0
 #NO_APP
	lui	a5,%hi(.LANCHOR11)
	lw	a5,%lo(.LANCHOR11)(a5)
	.loc 1 4492 5
	beq	a5,zero,.L340
.LBB228:
.LBB229:
	.loc 1 4494 4 is_stmt 1
	.loc 1 4494 18 is_stmt 0
	lui	a5,%hi(.LANCHOR1)
	addi	a5,a5,%lo(.LANCHOR1)
	lw	a4,0(a5)
	.loc 1 4502 20
	lw	a5,0(a5)
	.loc 1 4494 39
	lw	a5,68(a4)
	addi	a5,a5,1
	sw	a5,68(a4)
	.loc 1 4502 4 is_stmt 1
	.loc 1 4504 5
	.loc 1 4509 4
.LBE229:
.LBE228:
	.loc 1 4509 4
.L340:
	.loc 1 4511 2 is_stmt 0
	ret
	.cfi_endproc
.LFE65:
	.size	vTaskEnterCritical, .-vTaskEnterCritical
	.section	.text.vTaskExitCritical,"ax",@progbits
	.align	1
	.globl	vTaskExitCritical
	.type	vTaskExitCritical, @function
vTaskExitCritical:
.LFB66:
	.loc 1 4519 2 is_stmt 1
	.cfi_startproc
	.loc 1 4520 3
	.loc 1 4520 25 is_stmt 0
	lui	a5,%hi(.LANCHOR11)
	lw	a5,%lo(.LANCHOR11)(a5)
	.loc 1 4520 5
	beq	a5,zero,.L345
	.loc 1 4522 4 is_stmt 1
	.loc 1 4522 20 is_stmt 0
	lui	a5,%hi(.LANCHOR1)
	addi	a5,a5,%lo(.LANCHOR1)
	lw	a4,0(a5)
	.loc 1 4522 6
	lw	a4,68(a4)
	beq	a4,zero,.L345
.LBB232:
.LBB233:
	.loc 1 4524 5 is_stmt 1
	.loc 1 4524 19 is_stmt 0
	lw	a4,0(a5)
	.loc 1 4526 21
	lw	a3,0(a5)
	.loc 1 4524 40
	lw	a5,68(a4)
	addi	a5,a5,-1
	sw	a5,68(a4)
	.loc 1 4526 5 is_stmt 1
	.loc 1 4526 7 is_stmt 0
	lw	a5,68(a3)
	bne	a5,zero,.L345
	.loc 1 4528 6 is_stmt 1
 #APP
# 4528 "/home/anh/Desktop/wb2/Ai-Thinker-WB2/components/platform/soc/bl602/freertos_riscv_ram/tasks.c" 1
	csrs mstatus, 8
# 0 "" 2
 #NO_APP
.LBE233:
.LBE232:
	.loc 1 4542 4
.L345:
	.loc 1 4544 2 is_stmt 0
	ret
	.cfi_endproc
.LFE66:
	.size	vTaskExitCritical, .-vTaskExitCritical
	.section	.text.prvAddNewTaskToReadyList,"ax",@progbits
	.align	1
	.type	prvAddNewTaskToReadyList, @function
prvAddNewTaskToReadyList:
.LFB8:
	.loc 1 1121 1 is_stmt 1
	.cfi_startproc
.LVL347:
	.loc 1 1124 2
.LBB240:
.LBB241:
	.loc 1 4490 3
.LBE241:
.LBE240:
	.loc 1 1121 1 is_stmt 0
	addi	sp,sp,-32
	.cfi_def_cfa_offset 32
	sw	s1,20(sp)
	sw	ra,28(sp)
	sw	s0,24(sp)
	sw	s2,16(sp)
	sw	s3,12(sp)
	sw	s4,8(sp)
	sw	s5,4(sp)
	.cfi_offset 9, -12
	.cfi_offset 1, -4
	.cfi_offset 8, -8
	.cfi_offset 18, -16
	.cfi_offset 19, -20
	.cfi_offset 20, -24
	.cfi_offset 21, -28
	.loc 1 1121 1
	mv	s1,a0
.LBB247:
.LBB246:
	.loc 1 4490 3
 #APP
# 4490 "/home/anh/Desktop/wb2/Ai-Thinker-WB2/components/platform/soc/bl602/freertos_riscv_ram/tasks.c" 1
	csrc mstatus, 8
# 0 "" 2
	.loc 1 4492 3 is_stmt 1
	.loc 1 4492 25 is_stmt 0
 #NO_APP
	lui	s3,%hi(.LANCHOR11)
	addi	s3,s3,%lo(.LANCHOR11)
	lw	a5,0(s3)
.LBB242:
.LBB243:
	.loc 1 4494 18
	lui	s2,%hi(.LANCHOR1)
	addi	s2,s2,%lo(.LANCHOR1)
.LBE243:
.LBE242:
	.loc 1 4492 5
	beq	a5,zero,.L353
.LBB245:
.LBB244:
	.loc 1 4494 4 is_stmt 1
	.loc 1 4494 18 is_stmt 0
	lw	a4,0(s2)
	.loc 1 4502 20
	lw	a5,0(s2)
	.loc 1 4494 39
	lw	a5,68(a4)
	addi	a5,a5,1
	sw	a5,68(a4)
	.loc 1 4502 4 is_stmt 1
	.loc 1 4504 5
	.loc 1 4509 4
.L353:
.LBE244:
.LBE245:
	.loc 1 4509 4
.LBE246:
.LBE247:
	.loc 1 1126 3
	.loc 1 1126 25 is_stmt 0
	lui	a5,%hi(.LANCHOR13)
	addi	a5,a5,%lo(.LANCHOR13)
	lw	a4,0(a5)
	addi	a4,a4,1
	sw	a4,0(a5)
	.loc 1 1127 3 is_stmt 1
	.loc 1 1127 20 is_stmt 0
	lw	a4,0(s2)
	.loc 1 1127 5
	beq	a4,zero,.L372
	.loc 1 1150 4 is_stmt 1
	.loc 1 1150 26 is_stmt 0
	lw	a5,0(s3)
	.loc 1 1152 45
	lw	a1,44(s1)
	.loc 1 1150 6
	beq	a5,zero,.L368
.L371:
	lui	s4,%hi(.LANCHOR9)
	addi	s4,s4,%lo(.LANCHOR9)
.LVL348:
.L356:
	.loc 1 1163 5 is_stmt 1
	.loc 1 1167 3
	.loc 1 1167 15 is_stmt 0
	lui	a3,%hi(.LANCHOR20)
	addi	a3,a3,%lo(.LANCHOR20)
	.loc 1 1177 28
	lui	a4,%hi(.LANCHOR2)
	.loc 1 1167 15
	lw	a2,0(a3)
	.loc 1 1177 28
	addi	a4,a4,%lo(.LANCHOR2)
	lw	a6,0(a4)
	.loc 1 1177 72
	slli	a0,a1,2
	add	a0,a0,a1
	.loc 1 1177 37
	li	a5,1
	.loc 1 1167 15
	addi	a2,a2,1
	.loc 1 1177 37
	sll	a5,a5,a1
	.loc 1 1177 72
	slli	a0,a0,2
	.loc 1 1177 28
	or	a5,a5,a6
	.loc 1 1177 72
	addi	a1,s1,4
	add	a0,s4,a0
	.loc 1 1172 26
	sw	a2,72(s1)
	.loc 1 1177 28
	sw	a5,0(a4)
	.loc 1 1167 15
	sw	a2,0(a3)
	.loc 1 1172 4 is_stmt 1
	.loc 1 1175 3
	.loc 1 1177 3
	.loc 1 1177 5
	.loc 1 1177 72
	call	vListInsertEnd
.LVL349:
	.loc 1 1177 177
	.loc 1 1179 3
	.loc 1 1181 2
	call	vTaskExitCritical
.LVL350:
	.loc 1 1183 2
	.loc 1 1183 24 is_stmt 0
	lw	a5,0(s3)
	.loc 1 1183 4
	beq	a5,zero,.L352
	.loc 1 1187 3 is_stmt 1
	.loc 1 1187 19 is_stmt 0
	lw	a4,0(s2)
	.loc 1 1187 5
	lw	a5,44(s1)
	lw	a4,44(a4)
	bltu	a4,a5,.L373
.L352:
	.loc 1 1200 1
	lw	ra,28(sp)
	.cfi_remember_state
	.cfi_restore 1
	lw	s0,24(sp)
	.cfi_restore 8
	lw	s1,20(sp)
	.cfi_restore 9
.LVL351:
	lw	s2,16(sp)
	.cfi_restore 18
	lw	s3,12(sp)
	.cfi_restore 19
	lw	s4,8(sp)
	.cfi_restore 20
	lw	s5,4(sp)
	.cfi_restore 21
	addi	sp,sp,32
	.cfi_def_cfa_offset 0
	jr	ra
.LVL352:
.L368:
	.cfi_restore_state
	.loc 1 1152 5 is_stmt 1
	.loc 1 1152 21 is_stmt 0
	lw	a5,0(s2)
	.loc 1 1152 7
	lw	a5,44(a5)
	bgtu	a5,a1,.L371
	.loc 1 1154 6 is_stmt 1
	.loc 1 1154 19 is_stmt 0
	sw	s1,0(s2)
	j	.L371
.L372:
	.loc 1 1131 4 is_stmt 1
	.loc 1 1131 17 is_stmt 0
	sw	s1,0(s2)
	.loc 1 1133 4 is_stmt 1
	.loc 1 1133 31 is_stmt 0
	lw	a4,0(a5)
	.loc 1 1133 6
	li	a5,1
	beq	a4,a5,.L355
	lui	s4,%hi(.LANCHOR9)
	.loc 1 1177 54
	lw	a1,44(s1)
	addi	s4,s4,%lo(.LANCHOR9)
	j	.L356
.L373:
	.loc 1 1189 4 is_stmt 1
	.loc 1 1200 1 is_stmt 0
	lw	s0,24(sp)
	.cfi_remember_state
	.cfi_restore 8
	lw	ra,28(sp)
	.cfi_restore 1
	lw	s1,20(sp)
	.cfi_restore 9
.LVL353:
	lw	s2,16(sp)
	.cfi_restore 18
	lw	s3,12(sp)
	.cfi_restore 19
	lw	s4,8(sp)
	.cfi_restore 20
	lw	s5,4(sp)
	.cfi_restore 21
	.loc 1 1189 4
	li	a0,1
	.loc 1 1200 1
	addi	sp,sp,32
	.cfi_def_cfa_offset 0
	.loc 1 1189 4
	tail	vEnvironmentCall
.LVL354:
.L355:
	.cfi_restore_state
	lui	s0,%hi(.LANCHOR9)
	addi	s4,s0,%lo(.LANCHOR9)
	addi	s5,s4,640
	addi	s0,s0,%lo(.LANCHOR9)
.L357:
.LBB248:
.LBB249:
	.loc 1 3775 3 is_stmt 1
	mv	a0,s0
	.loc 1 3773 2 is_stmt 0
	addi	s0,s0,20
	.loc 1 3775 3
	call	vListInitialise
.LVL355:
	.loc 1 3773 77 is_stmt 1
	.loc 1 3773 40
	.loc 1 3773 2 is_stmt 0
	bne	s5,s0,.L357
	.loc 1 3778 2 is_stmt 1
	lui	a5,%hi(.LANCHOR18)
	addi	a0,a5,%lo(.LANCHOR18)
	addi	s5,a5,%lo(.LANCHOR18)
	call	vListInitialise
.LVL356:
	.loc 1 3779 2
	lui	a5,%hi(.LANCHOR19)
	addi	a0,a5,%lo(.LANCHOR19)
	addi	s0,a5,%lo(.LANCHOR19)
	call	vListInitialise
.LVL357:
	.loc 1 3780 2
	lui	a0,%hi(.LANCHOR17)
	addi	a0,a0,%lo(.LANCHOR17)
	call	vListInitialise
.LVL358:
	.loc 1 3784 3
	lui	a0,%hi(.LANCHOR12)
	addi	a0,a0,%lo(.LANCHOR12)
	call	vListInitialise
.LVL359:
	.loc 1 3790 3
	lui	a0,%hi(.LANCHOR3)
	addi	a0,a0,%lo(.LANCHOR3)
	call	vListInitialise
.LVL360:
	.loc 1 3796 3
	lui	a0,%hi(.LANCHOR7)
	addi	a0,a0,%lo(.LANCHOR7)
	call	vListInitialise
.LVL361:
	.loc 1 3802 2
	.loc 1 3802 20 is_stmt 0
	lui	a4,%hi(.LANCHOR5)
	.loc 1 3803 28
	lui	a5,%hi(.LANCHOR4)
	.loc 1 3802 20
	sw	s5,%lo(.LANCHOR5)(a4)
	.loc 1 3803 2 is_stmt 1
.LBE249:
.LBE248:
	.loc 1 1177 54 is_stmt 0
	lw	a1,44(s1)
.LBB251:
.LBB250:
	.loc 1 3803 28
	sw	s0,%lo(.LANCHOR4)(a5)
	.loc 1 3804 1
	j	.L356
.LBE250:
.LBE251:
	.cfi_endproc
.LFE8:
	.size	prvAddNewTaskToReadyList, .-prvAddNewTaskToReadyList
	.section	.text.xTaskCreateStatic,"ax",@progbits
	.align	1
	.globl	xTaskCreateStatic
	.type	xTaskCreateStatic, @function
xTaskCreateStatic:
.LFB5:
	.loc 1 630 2 is_stmt 1
	.cfi_startproc
.LVL362:
	.loc 1 631 2
	.loc 1 632 2
	.loc 1 634 3
	.loc 1 630 2 is_stmt 0
	addi	sp,sp,-48
	.cfi_def_cfa_offset 48
	sw	s0,40(sp)
	sw	s1,36(sp)
	sw	s2,32(sp)
	sw	s3,28(sp)
	sw	s4,24(sp)
	sw	s5,20(sp)
	sw	s6,16(sp)
	sw	ra,44(sp)
	.cfi_offset 8, -8
	.cfi_offset 9, -12
	.cfi_offset 18, -16
	.cfi_offset 19, -20
	.cfi_offset 20, -24
	.cfi_offset 21, -28
	.cfi_offset 22, -32
	.cfi_offset 1, -4
	.loc 1 630 2
	mv	s1,a5
	mv	s2,a0
	mv	s3,a1
	mv	s4,a2
	mv	s5,a3
	mv	s6,a4
	mv	s0,a6
	.loc 1 634 5
	beq	a5,zero,.L392
.LVL363:
.L375:
	.loc 1 635 3 is_stmt 1
	.loc 1 635 5 is_stmt 0
	beq	s0,zero,.L393
.LBB252:
	.loc 1 642 4 is_stmt 1
	.loc 1 642 20 is_stmt 0
	li	a5,104
	sw	a5,12(sp)
	.loc 1 643 4 is_stmt 1
	.loc 1 643 37 is_stmt 0
	lw	a4,12(sp)
	.loc 1 643 6
	bne	a4,a5,.L394
	.loc 1 644 4 is_stmt 1
	lw	a5,12(sp)
.LBE252:
	.loc 1 649 3
	.loc 1 649 31 is_stmt 0
	beq	s1,zero,.L379
.L395:
	.loc 1 653 4 is_stmt 1
.LVL364:
	.loc 1 654 4
	.loc 1 660 37 is_stmt 0
	li	a0,2
	.loc 1 664 4
	mv	a6,s0
	addi	a5,sp,8
	mv	a4,s6
	mv	a3,s5
	mv	a2,s4
	mv	a1,s3
	.loc 1 660 37
	sb	a0,101(s0)
	.loc 1 654 22
	sw	s1,48(s0)
	.loc 1 660 5 is_stmt 1
	.loc 1 664 4
	mv	a0,s2
	call	prvInitialiseNewTask.constprop.0
.LVL365:
	.loc 1 665 4
	mv	a0,s0
	call	prvAddNewTaskToReadyList
.LVL366:
	.loc 1 672 10 is_stmt 0
	lw	a0,8(sp)
	.loc 1 665 4
	j	.L374
.LVL367:
.L393:
	.loc 1 635 11 is_stmt 1 discriminator 1
	li	a0,2
	call	vEnvironmentCall
.LVL368:
.LBB253:
	.loc 1 642 4 discriminator 1
	.loc 1 642 20 is_stmt 0 discriminator 1
	li	a5,104
	sw	a5,12(sp)
	.loc 1 643 4 is_stmt 1 discriminator 1
	.loc 1 643 37 is_stmt 0 discriminator 1
	lw	a4,12(sp)
	.loc 1 643 6 discriminator 1
	beq	a4,a5,.L391
	.loc 1 643 44 is_stmt 1
	li	a0,2
	call	vEnvironmentCall
.LVL369:
.L391:
	.loc 1 644 4
	lw	a5,12(sp)
.LBE253:
	.loc 1 649 3
.L379:
	.loc 1 669 4
.LVL370:
	.loc 1 630 2 is_stmt 0
	li	a0,0
	.loc 1 672 3 is_stmt 1
.LVL371:
.L374:
	.loc 1 673 2 is_stmt 0
	lw	ra,44(sp)
	.cfi_remember_state
	.cfi_restore 1
	lw	s0,40(sp)
	.cfi_restore 8
.LVL372:
	lw	s1,36(sp)
	.cfi_restore 9
.LVL373:
	lw	s2,32(sp)
	.cfi_restore 18
.LVL374:
	lw	s3,28(sp)
	.cfi_restore 19
.LVL375:
	lw	s4,24(sp)
	.cfi_restore 20
.LVL376:
	lw	s5,20(sp)
	.cfi_restore 21
.LVL377:
	lw	s6,16(sp)
	.cfi_restore 22
.LVL378:
	addi	sp,sp,48
	.cfi_def_cfa_offset 0
	jr	ra
.LVL379:
.L394:
	.cfi_restore_state
.LBB254:
	.loc 1 643 44 is_stmt 1
	li	a0,2
	call	vEnvironmentCall
.LVL380:
	.loc 1 644 4
	lw	a5,12(sp)
.LBE254:
	.loc 1 649 3
	.loc 1 649 31 is_stmt 0
	bne	s1,zero,.L395
	j	.L379
.LVL381:
.L392:
	.loc 1 634 11 is_stmt 1 discriminator 1
	li	a0,2
.LVL382:
	call	vEnvironmentCall
.LVL383:
	j	.L375
	.cfi_endproc
.LFE5:
	.size	xTaskCreateStatic, .-xTaskCreateStatic
	.section	.rodata.vTaskStartScheduler.str1.4,"aMS",@progbits,1
	.align	2
.LC0:
	.string	"IDLE"
	.section	.text.vTaskStartScheduler,"ax",@progbits
	.align	1
	.globl	vTaskStartScheduler
	.type	vTaskStartScheduler, @function
vTaskStartScheduler:
.LFB22:
	.loc 1 2062 1
	.cfi_startproc
	.loc 1 2063 1
.LBB255:
	.loc 1 2068 3
.LBE255:
	.loc 1 2062 1 is_stmt 0
	addi	sp,sp,-32
	.cfi_def_cfa_offset 32
.LBB256:
	.loc 1 2074 3
	addi	a2,sp,12
	addi	a1,sp,8
	addi	a0,sp,4
.LBE256:
	.loc 1 2062 1
	sw	ra,28(sp)
	.cfi_offset 1, -4
.LBB257:
	.loc 1 2068 17
	sw	zero,4(sp)
	.loc 1 2069 3 is_stmt 1
	.loc 1 2069 16 is_stmt 0
	sw	zero,8(sp)
	.loc 1 2070 3 is_stmt 1
	.loc 1 2074 3
	call	vApplicationGetIdleTaskMemory
.LVL384:
	.loc 1 2075 3
	.loc 1 2075 21 is_stmt 0
	lw	a6,4(sp)
	lw	a5,8(sp)
	lw	a2,12(sp)
	lui	a1,%hi(.LC0)
	lui	a0,%hi(prvIdleTask)
	li	a4,0
	li	a3,0
	addi	a1,a1,%lo(.LC0)
	addi	a0,a0,%lo(prvIdleTask)
	call	xTaskCreateStatic
.LVL385:
	.loc 1 2083 3 is_stmt 1
	.loc 1 2083 5 is_stmt 0
	beq	a0,zero,.L396
.LVL386:
.LBE257:
	.loc 1 2106 3 is_stmt 1
	.loc 1 2108 4
	.loc 1 2108 14 is_stmt 0
	call	xTimerCreateTimerTask
.LVL387:
	.loc 1 2112 4 is_stmt 1
	.loc 1 2117 2
	.loc 1 2117 4 is_stmt 0
	li	a5,1
	bne	a0,a5,.L404
	.loc 1 2133 3 is_stmt 1
 #APP
# 2133 "/home/anh/Desktop/wb2/Ai-Thinker-WB2/components/platform/soc/bl602/freertos_riscv_ram/tasks.c" 1
	csrc mstatus, 8
# 0 "" 2
	.loc 1 2143 3
	.loc 1 2143 24 is_stmt 0
 #NO_APP
	lui	a5,%hi(.LANCHOR6)
	li	a3,-1
	sw	a3,%lo(.LANCHOR6)(a5)
	.loc 1 2144 3 is_stmt 1
	.loc 1 2144 21 is_stmt 0
	lui	a4,%hi(.LANCHOR11)
	.loc 1 2180 1
	lw	ra,28(sp)
	.cfi_remember_state
	.cfi_restore 1
	.loc 1 2144 21
	sw	a0,%lo(.LANCHOR11)(a4)
	.loc 1 2145 3 is_stmt 1
	.loc 1 2145 14 is_stmt 0
	lui	a5,%hi(.LANCHOR0)
	sw	zero,%lo(.LANCHOR0)(a5)
	.loc 1 2153 3 is_stmt 1
	.loc 1 2155 3
	.loc 1 2159 3
	.loc 1 2180 1 is_stmt 0
	addi	sp,sp,32
	.cfi_def_cfa_offset 0
	.loc 1 2159 7
	tail	xPortStartScheduler
.LVL388:
.L404:
	.cfi_restore_state
	.loc 1 2174 3 is_stmt 1
	.loc 1 2174 5 is_stmt 0
	li	a5,-1
	beq	a0,a5,.L406
.LVL389:
.L396:
	.loc 1 2180 1
	lw	ra,28(sp)
	.cfi_remember_state
	.cfi_restore 1
	addi	sp,sp,32
	.cfi_def_cfa_offset 0
	jr	ra
.LVL390:
.L406:
	.cfi_restore_state
	.loc 1 2174 36 is_stmt 1 discriminator 1
	.loc 1 2180 1 is_stmt 0 discriminator 1
	lw	ra,28(sp)
	.cfi_restore 1
	.loc 1 2174 36 discriminator 1
	li	a0,2
.LVL391:
	.loc 1 2180 1 discriminator 1
	addi	sp,sp,32
	.cfi_def_cfa_offset 0
	.loc 1 2174 36 discriminator 1
	tail	vEnvironmentCall
.LVL392:
	.cfi_endproc
.LFE22:
	.size	vTaskStartScheduler, .-vTaskStartScheduler
	.section	.text.xTaskCreate,"ax",@progbits
	.align	1
	.globl	xTaskCreate
	.type	xTaskCreate, @function
xTaskCreate:
.LFB6:
	.loc 1 781 2 is_stmt 1
	.cfi_startproc
.LVL393:
	.loc 1 782 2
	.loc 1 783 2
.LBB258:
	.loc 1 812 3
	.loc 1 815 4
.LBE258:
	.loc 1 781 2 is_stmt 0
	addi	sp,sp,-48
	.cfi_def_cfa_offset 48
	sw	s3,28(sp)
	.cfi_offset 19, -20
	mv	s3,a0
.LBB259:
	.loc 1 815 14
	slli	a0,a2,2
.LVL394:
.LBE259:
	.loc 1 781 2
	sw	s1,36(sp)
	sw	s4,24(sp)
	sw	s5,20(sp)
	sw	s6,16(sp)
	sw	s7,12(sp)
	sw	ra,44(sp)
	sw	s0,40(sp)
	sw	s2,32(sp)
	.cfi_offset 9, -12
	.cfi_offset 20, -24
	.cfi_offset 21, -28
	.cfi_offset 22, -32
	.cfi_offset 23, -36
	.cfi_offset 1, -4
	.cfi_offset 8, -8
	.cfi_offset 18, -16
	.loc 1 781 2
	mv	s1,a2
	mv	s4,a1
	mv	s5,a3
	mv	s6,a4
	mv	s7,a5
.LBB260:
	.loc 1 815 14
	call	pvPortMalloc
.LVL395:
	.loc 1 817 4 is_stmt 1
	.loc 1 817 6 is_stmt 0
	beq	a0,zero,.L410
	mv	s0,a0
	.loc 1 820 5 is_stmt 1
	.loc 1 820 28 is_stmt 0
	li	a0,104
.LVL396:
	call	pvPortMalloc
.LVL397:
	mv	s2,a0
.LVL398:
	.loc 1 822 5 is_stmt 1
	.loc 1 822 7 is_stmt 0
	beq	a0,zero,.L409
	.loc 1 825 6 is_stmt 1
.LBE260:
	.loc 1 851 4 is_stmt 0
	mv	a6,a0
	mv	a5,s7
	mv	a4,s6
	mv	a3,s5
	mv	a2,s1
	mv	a1,s4
.LBB261:
	.loc 1 825 24
	sw	s0,48(a0)
.LBE261:
	.loc 1 841 3 is_stmt 1
	.loc 1 847 5
	.loc 1 847 37 is_stmt 0
	sb	zero,101(a0)
	.loc 1 851 4 is_stmt 1
	mv	a0,s3
.LVL399:
	call	prvInitialiseNewTask.constprop.0
.LVL400:
	.loc 1 852 4
	mv	a0,s2
	call	prvAddNewTaskToReadyList
.LVL401:
	.loc 1 853 4
	.loc 1 853 12 is_stmt 0
	li	a0,1
.LVL402:
.L407:
	.loc 1 861 2
	lw	ra,44(sp)
	.cfi_remember_state
	.cfi_restore 1
	lw	s0,40(sp)
	.cfi_restore 8
	lw	s1,36(sp)
	.cfi_restore 9
	lw	s2,32(sp)
	.cfi_restore 18
	lw	s3,28(sp)
	.cfi_restore 19
.LVL403:
	lw	s4,24(sp)
	.cfi_restore 20
.LVL404:
	lw	s5,20(sp)
	.cfi_restore 21
.LVL405:
	lw	s6,16(sp)
	.cfi_restore 22
.LVL406:
	lw	s7,12(sp)
	.cfi_restore 23
.LVL407:
	addi	sp,sp,48
	.cfi_def_cfa_offset 0
	jr	ra
.LVL408:
.L410:
	.cfi_restore_state
	.loc 1 857 12
	li	a0,-1
.LVL409:
	.loc 1 860 3 is_stmt 1
	.loc 1 860 10 is_stmt 0
	j	.L407
.LVL410:
.L409:
.LBB262:
	.loc 1 831 6 is_stmt 1
	mv	a0,s0
.LVL411:
	call	vPortFree
.LVL412:
.LBE262:
	.loc 1 841 3
	.loc 1 857 12 is_stmt 0
	li	a0,-1
	j	.L407
	.cfi_endproc
.LFE6:
	.size	xTaskCreate, .-xTaskCreate
	.section	.text.vTaskSetThreadLocalStoragePointerAndDelCallback,"ax",@progbits
	.align	1
	.globl	vTaskSetThreadLocalStoragePointerAndDelCallback
	.type	vTaskSetThreadLocalStoragePointerAndDelCallback, @function
vTaskSetThreadLocalStoragePointerAndDelCallback:
.LFB9:
	.loc 1 1206 5 is_stmt 1
	.cfi_startproc
.LVL413:
	.loc 1 1207 5
	.loc 1 1208 2
	.loc 1 1210 3
	.loc 1 1210 5 is_stmt 0
	ble	a1,zero,.L424
	.loc 1 1212 11
	li	a0,0
.LVL414:
	.loc 1 1223 5
	ret
.LVL415:
.L424:
	.loc 1 1215 3 is_stmt 1
.LBB267:
.LBB268:
	.loc 1 4490 3
.LBE268:
.LBE267:
	.loc 1 1206 5 is_stmt 0
	addi	sp,sp,-16
	.cfi_def_cfa_offset 16
	sw	ra,12(sp)
	.cfi_offset 1, -4
.LBB273:
.LBB271:
	.loc 1 4490 3
 #APP
# 4490 "/home/anh/Desktop/wb2/Ai-Thinker-WB2/components/platform/soc/bl602/freertos_riscv_ram/tasks.c" 1
	csrc mstatus, 8
# 0 "" 2
	.loc 1 4492 3 is_stmt 1
	.loc 1 4492 25 is_stmt 0
 #NO_APP
	lui	a5,%hi(.LANCHOR11)
	lw	a5,%lo(.LANCHOR11)(a5)
	.loc 1 4492 5
	bne	a5,zero,.L425
	.loc 1 4509 4 is_stmt 1
.LBE271:
.LBE273:
	.loc 1 1216 3
	.loc 1 1216 27 is_stmt 0
	beq	a0,zero,.L426
.LVL416:
.L415:
	.loc 1 1217 3 is_stmt 1 discriminator 4
	slli	a1,a1,2
.LVL417:
	add	a0,a0,a1
.LVL418:
	.loc 1 1217 49 is_stmt 0 discriminator 4
	sw	a2,88(a0)
	.loc 1 1218 3 is_stmt 1 discriminator 4
	.loc 1 1218 60 is_stmt 0 discriminator 4
	sw	a3,92(a0)
	.loc 1 1219 3 is_stmt 1 discriminator 4
	call	vTaskExitCritical
.LVL419:
	.loc 1 1221 3 discriminator 4
	.loc 1 1222 3 discriminator 4
	.loc 1 1223 5 is_stmt 0 discriminator 4
	lw	ra,12(sp)
	.cfi_remember_state
	.cfi_restore 1
	.loc 1 1222 10 discriminator 4
	li	a0,1
	.loc 1 1223 5 discriminator 4
	addi	sp,sp,16
	.cfi_def_cfa_offset 0
	jr	ra
.LVL420:
.L425:
	.cfi_restore_state
.LBB274:
.LBB272:
.LBB269:
.LBB270:
	.loc 1 4494 4 is_stmt 1
	.loc 1 4494 18 is_stmt 0
	lui	a5,%hi(.LANCHOR1)
	addi	a5,a5,%lo(.LANCHOR1)
	lw	a4,0(a5)
	.loc 1 4502 20
	lw	a5,0(a5)
	.loc 1 4494 39
	lw	a5,68(a4)
	addi	a5,a5,1
	sw	a5,68(a4)
	.loc 1 4502 4 is_stmt 1
	.loc 1 4504 5
	.loc 1 4509 4
.LBE270:
.LBE269:
	.loc 1 4509 4
.LBE272:
.LBE274:
	.loc 1 1216 3
	.loc 1 1216 27 is_stmt 0
	bne	a0,zero,.L415
.L426:
	.loc 1 1216 27 discriminator 1
	lui	a5,%hi(.LANCHOR1)
	lw	a0,%lo(.LANCHOR1)(a5)
.LVL421:
	j	.L415
	.cfi_endproc
.LFE9:
	.size	vTaskSetThreadLocalStoragePointerAndDelCallback, .-vTaskSetThreadLocalStoragePointerAndDelCallback
	.section	.text.vTaskDelete,"ax",@progbits
	.align	1
	.globl	vTaskDelete
	.type	vTaskDelete, @function
vTaskDelete:
.LFB11:
	.loc 1 1246 2 is_stmt 1
	.cfi_startproc
.LVL422:
	.loc 1 1247 2
	.loc 1 1248 2
	.loc 1 1250 3
.LBB290:
.LBB291:
	.loc 1 4490 3
.LBE291:
.LBE290:
	.loc 1 1246 2 is_stmt 0
	addi	sp,sp,-32
	.cfi_def_cfa_offset 32
	sw	s0,24(sp)
	sw	ra,28(sp)
	sw	s1,20(sp)
	sw	s2,16(sp)
	sw	s3,12(sp)
	.cfi_offset 8, -8
	.cfi_offset 1, -4
	.cfi_offset 9, -12
	.cfi_offset 18, -16
	.cfi_offset 19, -20
	.loc 1 1246 2
	mv	s0,a0
.LBB297:
.LBB296:
	.loc 1 4490 3
 #APP
# 4490 "/home/anh/Desktop/wb2/Ai-Thinker-WB2/components/platform/soc/bl602/freertos_riscv_ram/tasks.c" 1
	csrc mstatus, 8
# 0 "" 2
	.loc 1 4492 3 is_stmt 1
	.loc 1 4492 25 is_stmt 0
 #NO_APP
	lui	s2,%hi(.LANCHOR11)
	addi	s2,s2,%lo(.LANCHOR11)
	lw	a5,0(s2)
.LBB292:
.LBB293:
	.loc 1 4494 18
	lui	s1,%hi(.LANCHOR1)
	addi	s1,s1,%lo(.LANCHOR1)
.LBE293:
.LBE292:
	.loc 1 4492 5
	beq	a5,zero,.L428
.LBB295:
.LBB294:
	.loc 1 4494 4 is_stmt 1
	.loc 1 4494 18 is_stmt 0
	lw	a4,0(s1)
	.loc 1 4502 20
	lw	a5,0(s1)
	.loc 1 4494 39
	lw	a5,68(a4)
	addi	a5,a5,1
	sw	a5,68(a4)
	.loc 1 4502 4 is_stmt 1
	.loc 1 4504 5
	.loc 1 4509 4
.L428:
.LBE294:
.LBE295:
	.loc 1 4509 4
.LBE296:
.LBE297:
	.loc 1 1254 4
	.loc 1 1254 28 is_stmt 0
	beq	s0,zero,.L455
.LVL423:
.L429:
	.loc 1 1257 4 is_stmt 1 discriminator 4
	.loc 1 1257 8 is_stmt 0 discriminator 4
	addi	s3,s0,4
	mv	a0,s3
	call	uxListRemove
.LVL424:
	.loc 1 1257 6 discriminator 4
	bne	a0,zero,.L430
	.loc 1 1259 7 is_stmt 1
	.loc 1 1259 44 is_stmt 0
	lw	a3,44(s0)
	.loc 1 1259 64
	slli	a5,a3,2
	add	a5,a5,a3
	slli	a4,a5,2
	lui	a5,%hi(.LANCHOR9)
	addi	a5,a5,%lo(.LANCHOR9)
	add	a5,a5,a4
	lw	a5,0(a5)
	.loc 1 1259 9
	beq	a5,zero,.L456
.L430:
	.loc 1 1263 5 is_stmt 1
	.loc 1 1267 4
	.loc 1 1267 6 is_stmt 0
	lw	a5,40(s0)
	beq	a5,zero,.L431
	.loc 1 1269 5 is_stmt 1
	.loc 1 1269 14 is_stmt 0
	addi	a0,s0,24
	call	uxListRemove
.LVL425:
.L431:
	.loc 1 1273 5 is_stmt 1
	.loc 1 1280 4
	.loc 1 1280 16 is_stmt 0
	lui	a5,%hi(.LANCHOR20)
	addi	a5,a5,%lo(.LANCHOR20)
	lw	a4,0(a5)
	.loc 1 1282 14
	lw	a3,0(s1)
	.loc 1 1280 16
	addi	a4,a4,1
	sw	a4,0(a5)
	.loc 1 1282 4 is_stmt 1
	.loc 1 1282 6 is_stmt 0
	beq	a3,s0,.L457
	.loc 1 1305 5 is_stmt 1
	lui	a5,%hi(.LANCHOR13)
	addi	a5,a5,%lo(.LANCHOR13)
	lw	a3,0(a5)
.LBB298:
.LBB299:
	.loc 1 4152 31 is_stmt 0
	lui	a4,%hi(.LANCHOR5)
	addi	a4,a4,%lo(.LANCHOR5)
.LBE299:
.LBE298:
	.loc 1 1305 5
	addi	a3,a3,-1
	sw	a3,0(a5)
	.loc 1 1306 5 is_stmt 1
.LVL426:
	.loc 1 1310 5
.LBB304:
.LBB302:
	.loc 1 4150 1
	.loc 1 4152 2
	.loc 1 4152 31 is_stmt 0
	lw	a5,0(a4)
	lw	a5,0(a5)
	.loc 1 4152 4
	beq	a5,zero,.L458
.LBB300:
.LBB301:
	.loc 1 4166 3 is_stmt 1
	.loc 1 4166 42 is_stmt 0
	lw	a4,0(a4)
.LVL427:
	.loc 1 4167 3 is_stmt 1
	.loc 1 4167 24 is_stmt 0
	lui	a5,%hi(.LANCHOR6)
	.loc 1 4166 13
	lw	a4,12(a4)
.LVL428:
	.loc 1 4167 62
	lw	a4,12(a4)
.LVL429:
	lw	a4,4(a4)
.LVL430:
	.loc 1 4167 24
	sw	a4,%lo(.LANCHOR6)(a5)
.L435:
.LBE301:
.LBE300:
.LBE302:
.LBE304:
	.loc 1 1313 4 is_stmt 1
	.loc 1 1315 3
	call	vTaskExitCritical
.LVL431:
	.loc 1 1317 3
	.loc 1 1319 4
.LBB305:
.LBB306:
	.loc 1 4092 3
	.loc 1 4097 4
.LBE306:
.LBE305:
	.loc 1 1227 9
.LBB316:
.LBB313:
.LBB307:
.LBB308:
	.loc 1 1228 25
	.loc 1 1230 13
	.loc 1 1230 63 is_stmt 0
	lw	a5,92(s0)
	.loc 1 1230 16
	beq	a5,zero,.L441
	.loc 1 1232 17 is_stmt 1
	lw	a1,88(s0)
	li	a0,0
	jalr	a5
.LVL432:
.L441:
	.loc 1 1235 13
.LBE308:
.LBE307:
	.loc 1 4121 13 is_stmt 0
	lbu	a5,101(s0)
.LBB310:
.LBB309:
	.loc 1 1235 54
	sw	zero,88(s0)
	.loc 1 1236 13 is_stmt 1
	.loc 1 1236 65 is_stmt 0
	sw	zero,92(s0)
	.loc 1 1228 32 is_stmt 1
.LVL433:
	.loc 1 1228 25
.LBE309:
.LBE310:
	.loc 1 4121 4
	.loc 1 4121 6 is_stmt 0
	beq	a5,zero,.L459
	.loc 1 4128 9 is_stmt 1
	.loc 1 4128 11 is_stmt 0
	li	a4,1
	beq	a5,a4,.L460
	.loc 1 4138 5 is_stmt 1
	.loc 1 4138 7 is_stmt 0
	li	a4,2
	bne	a5,a4,.L461
.LVL434:
.L433:
.LBE313:
.LBE316:
	.loc 1 1324 3 is_stmt 1
	.loc 1 1324 25 is_stmt 0
	lw	a5,0(s2)
	.loc 1 1324 5
	beq	a5,zero,.L427
	.loc 1 1326 4 is_stmt 1
	.loc 1 1326 14 is_stmt 0
	lw	a5,0(s1)
	.loc 1 1326 6
	beq	a5,s0,.L462
.L427:
	.loc 1 1336 2
	lw	ra,28(sp)
	.cfi_remember_state
	.cfi_restore 1
	lw	s0,24(sp)
	.cfi_restore 8
.LVL435:
	lw	s1,20(sp)
	.cfi_restore 9
	lw	s2,16(sp)
	.cfi_restore 18
	lw	s3,12(sp)
	.cfi_restore 19
.LVL436:
	addi	sp,sp,32
	.cfi_def_cfa_offset 0
	jr	ra
.LVL437:
.L458:
	.cfi_restore_state
.LBB317:
.LBB303:
	.loc 1 4158 3 is_stmt 1
	.loc 1 4158 24 is_stmt 0
	lui	a5,%hi(.LANCHOR6)
	li	a4,-1
	sw	a4,%lo(.LANCHOR6)(a5)
	j	.L435
.LVL438:
.L456:
.LBE303:
.LBE317:
	.loc 1 1259 109 is_stmt 1 discriminator 1
	.loc 1 1259 136 is_stmt 0 discriminator 1
	lui	a4,%hi(.LANCHOR2)
	addi	a4,a4,%lo(.LANCHOR2)
	lw	a2,0(a4)
	.loc 1 1259 146 discriminator 1
	li	a5,1
	sll	a5,a5,a3
	.loc 1 1259 139 discriminator 1
	not	a5,a5
	.loc 1 1259 136 discriminator 1
	and	a5,a5,a2
	sw	a5,0(a4)
	j	.L430
.L457:
	.loc 1 1289 5 is_stmt 1
	lui	a0,%hi(.LANCHOR12)
	mv	a1,s3
	addi	a0,a0,%lo(.LANCHOR12)
	call	vListInsertEnd
.LVL439:
	.loc 1 1294 5
	lui	a5,%hi(.LANCHOR10)
	addi	a5,a5,%lo(.LANCHOR10)
	lw	a4,0(a5)
	addi	a4,a4,1
	sw	a4,0(a5)
	.loc 1 1301 5
	.loc 1 1313 4
	.loc 1 1315 3
	call	vTaskExitCritical
.LVL440:
	.loc 1 1317 3
	j	.L433
.LVL441:
.L455:
	.loc 1 1254 28 is_stmt 0 discriminator 1
	lw	s0,0(s1)
.LVL442:
	j	.L429
.LVL443:
.L459:
.LBB318:
.LBB314:
.LBB311:
.LBB312:
	.loc 1 4125 5 is_stmt 1
	lw	a0,48(s0)
	call	vPortFree
.LVL444:
	.loc 1 4126 5
	mv	a0,s0
	call	vPortFree
.LVL445:
	.loc 1 4139 5
	.loc 1 4143 2 is_stmt 0
	j	.L433
.LVL446:
.L461:
.LBE312:
.LBE311:
	.loc 1 4138 70 is_stmt 1
	li	a0,2
	call	vEnvironmentCall
.LVL447:
	j	.L433
.LVL448:
.L462:
.LBE314:
.LBE318:
	.loc 1 1328 5
	.loc 1 1328 39 is_stmt 0
	lui	a5,%hi(.LANCHOR14)
	lw	a5,%lo(.LANCHOR14)(a5)
	.loc 1 1328 7
	bne	a5,zero,.L463
.L439:
	.loc 1 1329 5 is_stmt 1
	.loc 1 1336 2 is_stmt 0
	lw	s0,24(sp)
	.cfi_remember_state
	.cfi_restore 8
.LVL449:
	lw	ra,28(sp)
	.cfi_restore 1
	lw	s1,20(sp)
	.cfi_restore 9
	lw	s2,16(sp)
	.cfi_restore 18
	lw	s3,12(sp)
	.cfi_restore 19
.LVL450:
	.loc 1 1329 5
	li	a0,1
	.loc 1 1336 2
	addi	sp,sp,32
	.cfi_def_cfa_offset 0
	.loc 1 1329 5
	tail	vEnvironmentCall
.LVL451:
.L460:
	.cfi_restore_state
.LBB319:
.LBB315:
	.loc 1 4132 5 is_stmt 1
	mv	a0,s0
	call	vPortFree
.LVL452:
	j	.L433
.LVL453:
.L463:
.LBE315:
.LBE319:
	.loc 1 1328 46 discriminator 1
	li	a0,2
	call	vEnvironmentCall
.LVL454:
	j	.L439
	.cfi_endproc
.LFE11:
	.size	vTaskDelete, .-vTaskDelete
	.section	.text.eTaskGetState,"ax",@progbits
	.align	1
	.globl	eTaskGetState
	.type	eTaskGetState, @function
eTaskGetState:
.LFB14:
	.loc 1 1473 2
	.cfi_startproc
.LVL455:
	.loc 1 1474 2
	.loc 1 1475 2
	.loc 1 1476 2
	.loc 1 1473 2 is_stmt 0
	addi	sp,sp,-32
	.cfi_def_cfa_offset 32
	sw	s1,20(sp)
	sw	ra,28(sp)
	sw	s0,24(sp)
	sw	s2,16(sp)
	sw	s3,12(sp)
	.cfi_offset 9, -12
	.cfi_offset 1, -4
	.cfi_offset 8, -8
	.cfi_offset 18, -16
	.cfi_offset 19, -20
	.loc 1 1473 2
	mv	s1,a0
.LVL456:
	.loc 1 1478 3 is_stmt 1
	.loc 1 1478 5 is_stmt 0
	beq	a0,zero,.L480
.LVL457:
.L465:
	.loc 1 1480 3 is_stmt 1
	.loc 1 1480 13 is_stmt 0
	lui	a5,%hi(.LANCHOR1)
	addi	a5,a5,%lo(.LANCHOR1)
	lw	a4,0(a5)
	.loc 1 1483 12
	li	a0,0
	.loc 1 1480 5
	beq	a4,s1,.L464
.LVL458:
.LBB326:
.LBB327:
	.loc 1 1487 4 is_stmt 1
.LBB328:
.LBB329:
	.loc 1 4490 3
 #APP
# 4490 "/home/anh/Desktop/wb2/Ai-Thinker-WB2/components/platform/soc/bl602/freertos_riscv_ram/tasks.c" 1
	csrc mstatus, 8
# 0 "" 2
	.loc 1 4492 3
	.loc 1 4492 25 is_stmt 0
 #NO_APP
	lui	a4,%hi(.LANCHOR11)
	lw	a4,%lo(.LANCHOR11)(a4)
	.loc 1 4492 5
	beq	a4,zero,.L467
.LBB330:
.LBB331:
	.loc 1 4494 4 is_stmt 1
	.loc 1 4494 18 is_stmt 0
	lw	a4,0(a5)
	.loc 1 4502 20
	lw	a5,0(a5)
	.loc 1 4494 39
	lw	a5,68(a4)
	addi	a5,a5,1
	sw	a5,68(a4)
	.loc 1 4502 4 is_stmt 1
	.loc 1 4504 5
	.loc 1 4509 4
.L467:
.LBE331:
.LBE330:
	.loc 1 4509 4
.LBE329:
.LBE328:
	.loc 1 1489 5
	.loc 1 1490 19 is_stmt 0
	lui	a5,%hi(.LANCHOR5)
	lw	s2,%lo(.LANCHOR5)(a5)
	.loc 1 1489 17
	lw	s0,20(s1)
.LVL459:
	.loc 1 1490 5 is_stmt 1
	.loc 1 1491 5
	.loc 1 1491 29 is_stmt 0
	lui	a5,%hi(.LANCHOR4)
	lw	s3,%lo(.LANCHOR4)(a5)
.LVL460:
	.loc 1 1493 4 is_stmt 1
	call	vTaskExitCritical
.LVL461:
	.loc 1 1495 4
	.loc 1 1495 6 is_stmt 0
	beq	s0,s2,.L471
	.loc 1 1495 41
	beq	s0,s3,.L471
	.loc 1 1503 10 is_stmt 1
	.loc 1 1503 12 is_stmt 0
	lui	a5,%hi(.LANCHOR3)
	addi	a5,a5,%lo(.LANCHOR3)
	beq	s0,a5,.L481
	.loc 1 1539 10 is_stmt 1
	.loc 1 1539 12 is_stmt 0
	lui	a5,%hi(.LANCHOR12)
	addi	a5,a5,%lo(.LANCHOR12)
	beq	s0,a5,.L474
	.loc 1 1552 13
	seqz	a0,s0
	neg	a0,a0
	andi	a0,a0,3
	addi	a0,a0,1
.LVL462:
.L464:
.LBE327:
.LBE326:
	.loc 1 1557 2
	lw	ra,28(sp)
	.cfi_remember_state
	.cfi_restore 1
	lw	s0,24(sp)
	.cfi_restore 8
	lw	s1,20(sp)
	.cfi_restore 9
.LVL463:
	lw	s2,16(sp)
	.cfi_restore 18
	lw	s3,12(sp)
	.cfi_restore 19
	addi	sp,sp,32
	.cfi_def_cfa_offset 0
	jr	ra
.LVL464:
.L471:
	.cfi_restore_state
	lw	ra,28(sp)
	.cfi_remember_state
	.cfi_restore 1
	lw	s0,24(sp)
	.cfi_restore 8
.LVL465:
	lw	s1,20(sp)
	.cfi_restore 9
.LVL466:
	lw	s2,16(sp)
	.cfi_restore 18
.LVL467:
	lw	s3,12(sp)
	.cfi_restore 19
.LVL468:
.LBB334:
.LBB332:
	.loc 1 1499 13
	li	a0,2
.LBE332:
.LBE334:
	.loc 1 1557 2
	addi	sp,sp,32
	.cfi_def_cfa_offset 0
	jr	ra
.LVL469:
.L480:
	.cfi_restore_state
	.loc 1 1478 24 is_stmt 1 discriminator 1
	li	a0,2
	call	vEnvironmentCall
.LVL470:
	j	.L465
.LVL471:
.L481:
.LBB335:
.LBB333:
	.loc 1 1508 6
	.loc 1 1508 8 is_stmt 0
	lw	a5,40(s1)
	.loc 1 1499 13
	li	a0,2
	.loc 1 1508 8
	bne	a5,zero,.L464
	.loc 1 1516 8 is_stmt 1
	.loc 1 1516 17 is_stmt 0
	lbu	a0,100(s1)
	andi	a0,a0,0xff
	.loc 1 1522 17
	addi	a0,a0,-1
	snez	a0,a0
	addi	a0,a0,2
	j	.L464
.L474:
	.loc 1 1544 14
	li	a0,4
	j	.L464
.LBE333:
.LBE335:
	.cfi_endproc
.LFE14:
	.size	eTaskGetState, .-eTaskGetState
	.section	.text.vTaskPrioritySet,"ax",@progbits
	.align	1
	.globl	vTaskPrioritySet
	.type	vTaskPrioritySet, @function
vTaskPrioritySet:
.LFB17:
	.loc 1 1627 2 is_stmt 1
	.cfi_startproc
.LVL472:
	.loc 1 1628 2
	.loc 1 1629 2
	.loc 1 1630 2
	.loc 1 1632 3
	.loc 1 1627 2 is_stmt 0
	addi	sp,sp,-48
	.cfi_def_cfa_offset 48
	sw	s1,36(sp)
	sw	ra,44(sp)
	sw	s0,40(sp)
	sw	s2,32(sp)
	sw	s3,28(sp)
	sw	s4,24(sp)
	.cfi_offset 9, -12
	.cfi_offset 1, -4
	.cfi_offset 8, -8
	.cfi_offset 18, -16
	.cfi_offset 19, -20
	.cfi_offset 20, -24
	.loc 1 1632 5
	li	a5,31
	.loc 1 1627 2
	mv	s1,a0
	.loc 1 1632 5
	bgtu	a1,a5,.L506
.LVL473:
.L483:
	.loc 1 1635 3 is_stmt 1
	li	a5,31
	bleu	a1,a5,.L484
	li	a1,31
.L484:
.LVL474:
	.loc 1 1641 4
	.loc 1 1644 3
.LBB340:
.LBB341:
	.loc 1 4490 3
 #APP
# 4490 "/home/anh/Desktop/wb2/Ai-Thinker-WB2/components/platform/soc/bl602/freertos_riscv_ram/tasks.c" 1
	csrc mstatus, 8
# 0 "" 2
	.loc 1 4492 3
	.loc 1 4492 25 is_stmt 0
 #NO_APP
	lui	a5,%hi(.LANCHOR11)
	lw	a5,%lo(.LANCHOR11)(a5)
	.loc 1 4492 5
	beq	a5,zero,.L485
.LBB342:
.LBB343:
	.loc 1 4494 4 is_stmt 1
	.loc 1 4494 18 is_stmt 0
	lui	a5,%hi(.LANCHOR1)
	addi	a5,a5,%lo(.LANCHOR1)
	lw	a4,0(a5)
	.loc 1 4502 20
	lw	a5,0(a5)
	.loc 1 4494 39
	lw	a5,68(a4)
	addi	a5,a5,1
	sw	a5,68(a4)
	.loc 1 4502 4 is_stmt 1
	.loc 1 4504 5
	.loc 1 4509 4
.L485:
.LBE343:
.LBE342:
	.loc 1 4509 4
.LBE341:
.LBE340:
	.loc 1 1648 4
	.loc 1 1648 28 is_stmt 0
	beq	s1,zero,.L507
.LVL475:
.L486:
	.loc 1 1650 4 is_stmt 1 discriminator 4
	.loc 1 1654 5 discriminator 4
	.loc 1 1654 27 is_stmt 0 discriminator 4
	lw	a5,80(s1)
.LVL476:
	.loc 1 1662 4 is_stmt 1 discriminator 4
	.loc 1 1662 6 is_stmt 0 discriminator 4
	beq	a1,a5,.L488
	.loc 1 1666 5 is_stmt 1
	.loc 1 1668 16 is_stmt 0
	lui	a4,%hi(.LANCHOR1)
	.loc 1 1666 7
	bgtu	a1,a5,.L508
	.loc 1 1689 10 is_stmt 1
	.loc 1 1689 20 is_stmt 0
	lw	s0,%lo(.LANCHOR1)(a4)
	.loc 1 1689 12
	sub	s0,s0,s1
	seqz	s0,s0
.L490:
.LVL477:
	.loc 1 1701 5 is_stmt 1
	.loc 1 1706 5
	.loc 1 1706 27 is_stmt 0
	lw	s3,44(s1)
.LVL478:
	.loc 1 1712 6 is_stmt 1
	.loc 1 1712 8 is_stmt 0
	bne	a5,s3,.L491
	.loc 1 1714 7 is_stmt 1
	.loc 1 1714 25 is_stmt 0
	sw	a1,44(s1)
.L491:
	.loc 1 1718 7 is_stmt 1
	.loc 1 1722 6
	.loc 1 1732 7 is_stmt 0
	lw	a5,24(s1)
.LVL479:
	.loc 1 1722 28
	sw	a1,80(s1)
.LVL480:
	.loc 1 1732 5 is_stmt 1
	.loc 1 1732 7 is_stmt 0
	blt	a5,zero,.L492
	.loc 1 1734 6 is_stmt 1
	.loc 1 1734 79 is_stmt 0
	li	a5,32
	sub	a1,a5,a1
.LVL481:
	.loc 1 1734 51
	sw	a1,24(s1)
.L492:
	.loc 1 1738 6 is_stmt 1
	.loc 1 1745 5
	.loc 1 1745 62 is_stmt 0
	slli	a5,s3,2
	add	a5,a5,s3
	lui	s2,%hi(.LANCHOR9)
	.loc 1 1745 7
	lw	a4,20(s1)
	.loc 1 1745 62
	addi	s2,s2,%lo(.LANCHOR9)
	slli	a5,a5,2
	add	a5,s2,a5
	.loc 1 1745 7
	beq	a4,a5,.L509
.LVL482:
.L493:
	.loc 1 1765 6 is_stmt 1
	.loc 1 1768 5
	.loc 1 1768 7 is_stmt 0
	beq	s0,zero,.L488
	.loc 1 1770 6 is_stmt 1
	li	a0,1
	call	vEnvironmentCall
.LVL483:
.L488:
	.loc 1 1774 6
	.loc 1 1779 5
	.loc 1 1782 3
	.loc 1 1783 2 is_stmt 0
	lw	s0,40(sp)
	.cfi_remember_state
	.cfi_restore 8
	lw	ra,44(sp)
	.cfi_restore 1
	lw	s1,36(sp)
	.cfi_restore 9
.LVL484:
	lw	s2,32(sp)
	.cfi_restore 18
	lw	s3,28(sp)
	.cfi_restore 19
	lw	s4,24(sp)
	.cfi_restore 20
	addi	sp,sp,48
	.cfi_def_cfa_offset 0
	.loc 1 1782 3
	tail	vTaskExitCritical
.LVL485:
.L508:
	.cfi_restore_state
	.loc 1 1668 6 is_stmt 1
	.loc 1 1668 16 is_stmt 0
	addi	a4,a4,%lo(.LANCHOR1)
	lw	a3,0(a4)
	.loc 1 1630 13
	li	s0,0
	.loc 1 1668 8
	beq	a3,s1,.L490
	.loc 1 1673 7 is_stmt 1
	.loc 1 1673 40 is_stmt 0
	lw	a4,0(a4)
	.loc 1 1673 9
	lw	s0,44(a4)
	sgtu	s0,s0,a1
	xori	s0,s0,1
	j	.L490
.LVL486:
.L506:
	.loc 1 1632 45 discriminator 1
	li	a0,2
	sw	a1,12(sp)
	.loc 1 1632 45 is_stmt 1 discriminator 1
	call	vEnvironmentCall
.LVL487:
	lw	a1,12(sp)
	j	.L483
.LVL488:
.L507:
	.loc 1 1648 28 is_stmt 0 discriminator 1
	lui	a5,%hi(.LANCHOR1)
	lw	s1,%lo(.LANCHOR1)(a5)
.LVL489:
	j	.L486
.LVL490:
.L509:
	.loc 1 1750 6 is_stmt 1
	.loc 1 1750 10 is_stmt 0
	addi	s4,s1,4
	mv	a0,s4
	call	uxListRemove
.LVL491:
	.loc 1 1755 30
	lui	a4,%hi(.LANCHOR2)
	addi	a4,a4,%lo(.LANCHOR2)
	.loc 1 1750 8
	bne	a0,zero,.L494
	.loc 1 1755 7 is_stmt 1
	.loc 1 1755 30 is_stmt 0
	lw	a3,0(a4)
	.loc 1 1755 40
	li	a5,1
	sll	a5,a5,s3
	.loc 1 1755 33
	not	a5,a5
	.loc 1 1755 30
	and	a5,a5,a3
	sw	a5,0(a4)
.L494:
	.loc 1 1759 7 is_stmt 1
	.loc 1 1761 6
	.loc 1 1761 8
	.loc 1 1761 54 is_stmt 0
	lw	a3,44(s1)
	.loc 1 1761 31
	lw	a2,0(a4)
	.loc 1 1761 40
	li	a5,1
	.loc 1 1761 72
	slli	a0,a3,2
	add	a0,a0,a3
	.loc 1 1761 40
	sll	a5,a5,a3
	.loc 1 1761 72
	slli	a0,a0,2
	.loc 1 1761 31
	or	a5,a5,a2
	.loc 1 1761 72
	mv	a1,s4
	add	a0,s2,a0
	.loc 1 1761 31
	sw	a5,0(a4)
	.loc 1 1761 72 is_stmt 1
	call	vListInsertEnd
.LVL492:
	.loc 1 1761 171
	j	.L493
	.cfi_endproc
.LFE17:
	.size	vTaskPrioritySet, .-vTaskPrioritySet
	.section	.text.vTaskSuspend,"ax",@progbits
	.align	1
	.globl	vTaskSuspend
	.type	vTaskSuspend, @function
vTaskSuspend:
.LFB18:
	.loc 1 1791 2
	.cfi_startproc
.LVL493:
	.loc 1 1792 2
	.loc 1 1794 3
.LBB358:
.LBB359:
	.loc 1 4490 3
.LBE359:
.LBE358:
	.loc 1 1791 2 is_stmt 0
	addi	sp,sp,-32
	.cfi_def_cfa_offset 32
	sw	s0,24(sp)
	sw	ra,28(sp)
	sw	s1,20(sp)
	sw	s2,16(sp)
	sw	s3,12(sp)
	sw	s4,8(sp)
	.cfi_offset 8, -8
	.cfi_offset 1, -4
	.cfi_offset 9, -12
	.cfi_offset 18, -16
	.cfi_offset 19, -20
	.cfi_offset 20, -24
	.loc 1 1791 2
	mv	s0,a0
.LBB365:
.LBB364:
	.loc 1 4490 3
 #APP
# 4490 "/home/anh/Desktop/wb2/Ai-Thinker-WB2/components/platform/soc/bl602/freertos_riscv_ram/tasks.c" 1
	csrc mstatus, 8
# 0 "" 2
	.loc 1 4492 3 is_stmt 1
	.loc 1 4492 25 is_stmt 0
 #NO_APP
	lui	s2,%hi(.LANCHOR11)
	addi	s2,s2,%lo(.LANCHOR11)
	lw	a5,0(s2)
.LBB360:
.LBB361:
	.loc 1 4494 18
	lui	s1,%hi(.LANCHOR1)
	addi	s1,s1,%lo(.LANCHOR1)
.LBE361:
.LBE360:
	.loc 1 4492 5
	beq	a5,zero,.L511
.LBB363:
.LBB362:
	.loc 1 4494 4 is_stmt 1
	.loc 1 4494 18 is_stmt 0
	lw	a4,0(s1)
	.loc 1 4502 20
	lw	a5,0(s1)
	.loc 1 4494 39
	lw	a5,68(a4)
	addi	a5,a5,1
	sw	a5,68(a4)
	.loc 1 4502 4 is_stmt 1
	.loc 1 4504 5
	.loc 1 4509 4
.L511:
.LBE362:
.LBE363:
	.loc 1 4509 4
.LBE364:
.LBE365:
	.loc 1 1798 4
	.loc 1 1798 28 is_stmt 0
	beq	s0,zero,.L541
.LVL494:
.L512:
	.loc 1 1800 4 is_stmt 1 discriminator 4
	.loc 1 1804 4 discriminator 4
	.loc 1 1804 8 is_stmt 0 discriminator 4
	addi	s3,s0,4
	mv	a0,s3
	call	uxListRemove
.LVL495:
	.loc 1 1804 6 discriminator 4
	bne	a0,zero,.L513
	.loc 1 1806 7 is_stmt 1
	.loc 1 1806 44 is_stmt 0
	lw	a3,44(s0)
	.loc 1 1806 64
	slli	a5,a3,2
	add	a5,a5,a3
	slli	a4,a5,2
	lui	a5,%hi(.LANCHOR9)
	addi	a5,a5,%lo(.LANCHOR9)
	add	a5,a5,a4
	lw	a5,0(a5)
	.loc 1 1806 9
	beq	a5,zero,.L542
.L513:
	.loc 1 1810 5 is_stmt 1
	.loc 1 1814 4
	.loc 1 1814 6 is_stmt 0
	lw	a5,40(s0)
	beq	a5,zero,.L514
	.loc 1 1816 5 is_stmt 1
	.loc 1 1816 14 is_stmt 0
	addi	a0,s0,24
	call	uxListRemove
.LVL496:
.L514:
	.loc 1 1820 5 is_stmt 1
	.loc 1 1823 4
	lui	s4,%hi(.LANCHOR3)
	mv	a1,s3
	addi	a0,s4,%lo(.LANCHOR3)
	call	vListInsertEnd
.LVL497:
	.loc 1 1827 5
	.loc 1 1827 14 is_stmt 0
	lbu	a5,100(s0)
	.loc 1 1827 7
	li	a4,1
	.loc 1 1827 14
	andi	a5,a5,0xff
	.loc 1 1827 7
	bne	a5,a4,.L515
	.loc 1 1831 6 is_stmt 1
	.loc 1 1831 27 is_stmt 0
	sb	zero,100(s0)
.L515:
	.loc 1 1836 3 is_stmt 1
	call	vTaskExitCritical
.LVL498:
	.loc 1 1838 3
	.loc 1 1838 25 is_stmt 0
	lw	a5,0(s2)
	.loc 1 1838 5
	bne	a5,zero,.L543
	.loc 1 1850 4 is_stmt 1
	.loc 1 1853 3
	.loc 1 1853 13 is_stmt 0
	lw	a5,0(s1)
	.loc 1 1853 5
	beq	a5,s0,.L544
.L510:
	.loc 1 1884 2
	lw	ra,28(sp)
	.cfi_remember_state
	.cfi_restore 1
	lw	s0,24(sp)
	.cfi_restore 8
.LVL499:
	lw	s1,20(sp)
	.cfi_restore 9
	lw	s2,16(sp)
	.cfi_restore 18
	lw	s3,12(sp)
	.cfi_restore 19
.LVL500:
	lw	s4,8(sp)
	.cfi_restore 20
	addi	sp,sp,32
	.cfi_def_cfa_offset 0
	jr	ra
.LVL501:
.L542:
	.cfi_restore_state
	.loc 1 1806 109 is_stmt 1 discriminator 1
	.loc 1 1806 136 is_stmt 0 discriminator 1
	lui	a4,%hi(.LANCHOR2)
	addi	a4,a4,%lo(.LANCHOR2)
	lw	a2,0(a4)
	.loc 1 1806 146 discriminator 1
	li	a5,1
	sll	a5,a5,a3
	.loc 1 1806 139 discriminator 1
	not	a5,a5
	.loc 1 1806 136 discriminator 1
	and	a5,a5,a2
	sw	a5,0(a4)
	j	.L513
.L543:
	.loc 1 1842 4 is_stmt 1
.LBB366:
.LBB367:
	.loc 1 4490 3
 #APP
# 4490 "/home/anh/Desktop/wb2/Ai-Thinker-WB2/components/platform/soc/bl602/freertos_riscv_ram/tasks.c" 1
	csrc mstatus, 8
# 0 "" 2
	.loc 1 4492 3
	.loc 1 4492 25 is_stmt 0
 #NO_APP
	lw	a5,0(s2)
	.loc 1 4492 5
	beq	a5,zero,.L517
.LBB368:
.LBB369:
	.loc 1 4494 4 is_stmt 1
	.loc 1 4494 18 is_stmt 0
	lw	a4,0(s1)
	.loc 1 4502 20
	lw	a5,0(s1)
	.loc 1 4494 39
	lw	a5,68(a4)
	addi	a5,a5,1
	sw	a5,68(a4)
	.loc 1 4502 4 is_stmt 1
	.loc 1 4504 5
	.loc 1 4509 4
.L517:
.LBE369:
.LBE368:
	.loc 1 4509 4
.LBE367:
.LBE366:
	.loc 1 1844 5
.LBB370:
.LBB371:
	.loc 1 4150 1
	.loc 1 4152 2
	.loc 1 4152 31 is_stmt 0
	lui	a5,%hi(.LANCHOR5)
	addi	a5,a5,%lo(.LANCHOR5)
	lw	a4,0(a5)
	lw	a4,0(a4)
	.loc 1 4152 4
	beq	a4,zero,.L545
.LBB372:
.LBB373:
	.loc 1 4166 3 is_stmt 1
	.loc 1 4166 42 is_stmt 0
	lw	a4,0(a5)
.LVL502:
	.loc 1 4167 3 is_stmt 1
	.loc 1 4167 24 is_stmt 0
	lui	a5,%hi(.LANCHOR6)
	.loc 1 4166 13
	lw	a4,12(a4)
.LVL503:
	.loc 1 4167 62
	lw	a4,12(a4)
.LVL504:
	lw	a4,4(a4)
.LVL505:
	.loc 1 4167 24
	sw	a4,%lo(.LANCHOR6)(a5)
.L519:
.LBE373:
.LBE372:
.LBE371:
.LBE370:
	.loc 1 1846 4 is_stmt 1
	call	vTaskExitCritical
.LVL506:
	.loc 1 1850 4
	.loc 1 1853 3
	.loc 1 1853 13 is_stmt 0
	lw	a5,0(s1)
	.loc 1 1853 5
	bne	a5,s0,.L510
.L544:
	.loc 1 1855 4 is_stmt 1
	.loc 1 1855 26 is_stmt 0
	lw	a5,0(s2)
	.loc 1 1855 6
	beq	a5,zero,.L521
	.loc 1 1858 5 is_stmt 1
	.loc 1 1858 39 is_stmt 0
	lui	a5,%hi(.LANCHOR14)
	lw	a5,%lo(.LANCHOR14)(a5)
	.loc 1 1858 7
	bne	a5,zero,.L546
.L522:
	.loc 1 1859 5 is_stmt 1
	.loc 1 1884 2 is_stmt 0
	lw	s0,24(sp)
	.cfi_remember_state
	.cfi_restore 8
.LVL507:
	lw	ra,28(sp)
	.cfi_restore 1
	lw	s1,20(sp)
	.cfi_restore 9
	lw	s2,16(sp)
	.cfi_restore 18
	lw	s3,12(sp)
	.cfi_restore 19
.LVL508:
	lw	s4,8(sp)
	.cfi_restore 20
	.loc 1 1859 5
	li	a0,1
	.loc 1 1884 2
	addi	sp,sp,32
	.cfi_def_cfa_offset 0
	.loc 1 1859 5
	tail	vEnvironmentCall
.LVL509:
.L541:
	.cfi_restore_state
	.loc 1 1798 28 discriminator 1
	lw	s0,0(s1)
.LVL510:
	j	.L512
.LVL511:
.L545:
.LBB375:
.LBB374:
	.loc 1 4158 3 is_stmt 1
	.loc 1 4158 24 is_stmt 0
	lui	a5,%hi(.LANCHOR6)
	li	a4,-1
	sw	a4,%lo(.LANCHOR6)(a5)
	j	.L519
.L521:
.LBE374:
.LBE375:
	.loc 1 1866 5 is_stmt 1
	.loc 1 1866 54 is_stmt 0
	lui	a5,%hi(.LANCHOR13)
	.loc 1 1866 34
	addi	s4,s4,%lo(.LANCHOR3)
	lw	a4,0(s4)
	.loc 1 1866 54
	lw	a5,%lo(.LANCHOR13)(a5)
	.loc 1 1866 7
	bne	a4,a5,.L523
	.loc 1 1872 6 is_stmt 1
	.loc 1 1872 19 is_stmt 0
	sw	zero,0(s1)
	j	.L510
.L523:
	.loc 1 1876 6 is_stmt 1
.LBB376:
.LBB377:
	.loc 1 3172 2
	.loc 1 3172 27 is_stmt 0
	lui	a5,%hi(.LANCHOR14)
	lw	a5,%lo(.LANCHOR14)(a5)
	.loc 1 3172 4
	beq	a5,zero,.L524
	.loc 1 3176 3 is_stmt 1
	.loc 1 3176 17 is_stmt 0
	lui	a5,%hi(.LANCHOR8)
	li	a4,1
	sw	a4,%lo(.LANCHOR8)(a5)
	j	.L510
.L524:
.LBE377:
.LBE376:
	.loc 1 1884 2
	lw	s0,24(sp)
	.cfi_remember_state
	.cfi_restore 8
.LVL512:
	lw	ra,28(sp)
	.cfi_restore 1
	lw	s1,20(sp)
	.cfi_restore 9
	lw	s2,16(sp)
	.cfi_restore 18
	lw	s3,12(sp)
	.cfi_restore 19
.LVL513:
	lw	s4,8(sp)
	.cfi_restore 20
	addi	sp,sp,32
	.cfi_def_cfa_offset 0
.LBB379:
.LBB378:
	tail	vTaskSwitchContext.part.0
.LVL514:
.L546:
	.cfi_restore_state
.LBE378:
.LBE379:
	.loc 1 1858 46 is_stmt 1 discriminator 1
	li	a0,2
	call	vEnvironmentCall
.LVL515:
	j	.L522
	.cfi_endproc
.LFE18:
	.size	vTaskSuspend, .-vTaskSuspend
	.section	.text.vTaskResume,"ax",@progbits
	.align	1
	.globl	vTaskResume
	.type	vTaskResume, @function
vTaskResume:
.LFB20:
	.loc 1 1938 2
	.cfi_startproc
.LVL516:
	.loc 1 1939 2
	.loc 1 1942 3
	.loc 1 1938 2 is_stmt 0
	addi	sp,sp,-16
	.cfi_def_cfa_offset 16
	sw	ra,12(sp)
	sw	s0,8(sp)
	sw	s1,4(sp)
	sw	s2,0(sp)
	.cfi_offset 1, -4
	.cfi_offset 8, -8
	.cfi_offset 9, -12
	.cfi_offset 18, -16
	.loc 1 1942 5
	beq	a0,zero,.L559
	.loc 1 1946 15
	lui	s1,%hi(.LANCHOR1)
	addi	s1,s1,%lo(.LANCHOR1)
	lw	a5,0(s1)
	mv	s0,a0
	.loc 1 1946 3 is_stmt 1
	.loc 1 1946 5 is_stmt 0
	bne	a0,a5,.L554
	.loc 1 1983 2
	lw	ra,12(sp)
	.cfi_remember_state
	.cfi_restore 1
	lw	s0,8(sp)
	.cfi_restore 8
	lw	s1,4(sp)
	.cfi_restore 9
	lw	s2,0(sp)
	.cfi_restore 18
	addi	sp,sp,16
	.cfi_def_cfa_offset 0
	jr	ra
.LVL517:
.L554:
	.cfi_restore_state
	.loc 1 1948 4 is_stmt 1
.LBB388:
.LBB389:
	.loc 1 4490 3
 #APP
# 4490 "/home/anh/Desktop/wb2/Ai-Thinker-WB2/components/platform/soc/bl602/freertos_riscv_ram/tasks.c" 1
	csrc mstatus, 8
# 0 "" 2
	.loc 1 4492 3
	.loc 1 4492 25 is_stmt 0
 #NO_APP
	lui	a5,%hi(.LANCHOR11)
	lw	a5,%lo(.LANCHOR11)(a5)
	.loc 1 4492 5
	bne	a5,zero,.L560
	.loc 1 4509 4 is_stmt 1
.LBE389:
.LBE388:
	.loc 1 1950 5
.LVL518:
.LBB393:
.LBB394:
	.loc 1 1893 2
	.loc 1 1894 2
	.loc 1 1900 3
	.loc 1 1903 3
	.loc 1 1903 5 is_stmt 0
	lw	a4,20(s0)
	lui	a5,%hi(.LANCHOR3)
	addi	a5,a5,%lo(.LANCHOR3)
	beq	a4,a5,.L561
.LVL519:
.L552:
.LBE394:
.LBE393:
	.loc 1 1974 6 is_stmt 1
	.loc 1 1977 4
	.loc 1 1983 2 is_stmt 0
	lw	s0,8(sp)
	.cfi_remember_state
	.cfi_restore 8
.LVL520:
	lw	ra,12(sp)
	.cfi_restore 1
	lw	s1,4(sp)
	.cfi_restore 9
	lw	s2,0(sp)
	.cfi_restore 18
	addi	sp,sp,16
	.cfi_def_cfa_offset 0
	.loc 1 1977 4
	tail	vTaskExitCritical
.LVL521:
.L560:
	.cfi_restore_state
.LBB398:
.LBB392:
.LBB390:
.LBB391:
	.loc 1 4494 4 is_stmt 1
	.loc 1 4494 18 is_stmt 0
	lw	a4,0(s1)
	.loc 1 4502 20
	lw	a5,0(s1)
	.loc 1 4494 39
	lw	a5,68(a4)
	addi	a5,a5,1
	sw	a5,68(a4)
	.loc 1 4502 4 is_stmt 1
	.loc 1 4504 5
	.loc 1 4509 4
.LBE391:
.LBE390:
	.loc 1 4509 4
.LBE392:
.LBE398:
	.loc 1 1950 5
.LVL522:
.LBB399:
.LBB397:
	.loc 1 1893 2
	.loc 1 1894 2
	.loc 1 1900 3
	.loc 1 1903 3
	.loc 1 1903 5 is_stmt 0
	lw	a4,20(s0)
	lui	a5,%hi(.LANCHOR3)
	addi	a5,a5,%lo(.LANCHOR3)
	bne	a4,a5,.L552
.L561:
.LVL523:
.LBB395:
.LBB396:
	.loc 1 1906 4 is_stmt 1
	.loc 1 1906 42 is_stmt 0
	lw	a4,40(s0)
	.loc 1 1906 6
	lui	a5,%hi(.LANCHOR17)
	addi	a5,a5,%lo(.LANCHOR17)
	beq	a4,a5,.L552
	.loc 1 1910 5 is_stmt 1
	.loc 1 1910 7 is_stmt 0
	bne	a4,zero,.L552
	.loc 1 1912 6 is_stmt 1
.LVL524:
.LBE396:
.LBE395:
	.loc 1 1926 4
	.loc 1 1929 3
.LBE397:
.LBE399:
	.loc 1 1952 6
	.loc 1 1956 6
	.loc 1 1956 15 is_stmt 0
	addi	s2,s0,4
	mv	a0,s2
	call	uxListRemove
.LVL525:
	.loc 1 1957 6 is_stmt 1
	.loc 1 1957 8
	.loc 1 1957 54 is_stmt 0
	lw	a2,44(s0)
	.loc 1 1957 31
	lui	a3,%hi(.LANCHOR2)
	addi	a3,a3,%lo(.LANCHOR2)
	lw	a1,0(a3)
	.loc 1 1957 72
	slli	a4,a2,2
	add	a4,a4,a2
	.loc 1 1957 40
	li	a5,1
	.loc 1 1957 72
	lui	a0,%hi(.LANCHOR9)
	slli	a4,a4,2
	.loc 1 1957 40
	sll	a5,a5,a2
	.loc 1 1957 72
	addi	a0,a0,%lo(.LANCHOR9)
	.loc 1 1957 31
	or	a5,a5,a1
	.loc 1 1957 72
	add	a0,a0,a4
	mv	a1,s2
	.loc 1 1957 31
	sw	a5,0(a3)
	.loc 1 1957 72 is_stmt 1
	call	vListInsertEnd
.LVL526:
	.loc 1 1957 171
	.loc 1 1960 6
	.loc 1 1960 43 is_stmt 0
	lw	a5,0(s1)
	.loc 1 1960 8
	lw	a4,44(s0)
	lw	a5,44(a5)
	bltu	a4,a5,.L552
	.loc 1 1965 7 is_stmt 1
	li	a0,1
	call	vEnvironmentCall
.LVL527:
	j	.L552
.LVL528:
.L559:
	.loc 1 1942 32 discriminator 1
	li	a0,2
.LVL529:
	call	vEnvironmentCall
.LVL530:
	.loc 1 1946 3 discriminator 1
	.loc 1 1983 2 is_stmt 0 discriminator 1
	lw	ra,12(sp)
	.cfi_restore 1
	lw	s0,8(sp)
	.cfi_restore 8
	.loc 1 1946 15 discriminator 1
	lui	a5,%hi(.LANCHOR1)
	.loc 1 1983 2 discriminator 1
	lw	s1,4(sp)
	.cfi_restore 9
	lw	s2,0(sp)
	.cfi_restore 18
	.loc 1 1946 15 discriminator 1
	lw	a5,%lo(.LANCHOR1)(a5)
	.loc 1 1983 2 discriminator 1
	addi	sp,sp,16
	.cfi_def_cfa_offset 0
	jr	ra
	.cfi_endproc
.LFE20:
	.size	vTaskResume, .-vTaskResume
	.section	.text.xTaskResumeAll,"ax",@progbits
	.align	1
	.globl	xTaskResumeAll
	.type	xTaskResumeAll, @function
xTaskResumeAll:
.LFB25:
	.loc 1 2269 1 is_stmt 1
	.cfi_startproc
	.loc 1 2270 1
.LVL531:
	.loc 1 2271 1
	.loc 1 2275 2
	.loc 1 2269 1 is_stmt 0
	addi	sp,sp,-64
	.cfi_def_cfa_offset 64
	sw	s0,56(sp)
	.cfi_offset 8, -8
	.loc 1 2275 31
	lui	s0,%hi(.LANCHOR14)
	.loc 1 2269 1
	sw	ra,60(sp)
	sw	s1,52(sp)
	sw	s2,48(sp)
	sw	s3,44(sp)
	sw	s4,40(sp)
	sw	s5,36(sp)
	sw	s6,32(sp)
	sw	s7,28(sp)
	.cfi_offset 1, -4
	.cfi_offset 9, -12
	.cfi_offset 18, -16
	.cfi_offset 19, -20
	.cfi_offset 20, -24
	.cfi_offset 21, -28
	.cfi_offset 22, -32
	.cfi_offset 23, -36
	.loc 1 2275 31
	addi	s0,s0,%lo(.LANCHOR14)
	lw	a5,0(s0)
	.loc 1 2275 4
	beq	a5,zero,.L597
.L563:
	.loc 1 2282 2 is_stmt 1
.LBB411:
.LBB412:
	.loc 1 4490 3
 #APP
# 4490 "/home/anh/Desktop/wb2/Ai-Thinker-WB2/components/platform/soc/bl602/freertos_riscv_ram/tasks.c" 1
	csrc mstatus, 8
# 0 "" 2
	.loc 1 4492 3
	.loc 1 4492 25 is_stmt 0
 #NO_APP
	lui	a5,%hi(.LANCHOR11)
	lw	a5,%lo(.LANCHOR11)(a5)
	.loc 1 4492 5
	beq	a5,zero,.L564
.LBB413:
.LBB414:
	.loc 1 4494 4 is_stmt 1
	.loc 1 4494 18 is_stmt 0
	lui	s1,%hi(.LANCHOR1)
	addi	s1,s1,%lo(.LANCHOR1)
	lw	a4,0(s1)
	.loc 1 4502 20
	lw	a5,0(s1)
	.loc 1 4494 39
	lw	a5,68(a4)
	addi	a5,a5,1
	sw	a5,68(a4)
	.loc 1 4502 4 is_stmt 1
	.loc 1 4504 5
	.loc 1 4509 4
.L564:
.LBE414:
.LBE413:
	.loc 1 4509 4
.LBE412:
.LBE411:
	.loc 1 2284 3
	lw	a5,0(s0)
	addi	a5,a5,-1
	sw	a5,0(s0)
	.loc 1 2286 3
	.loc 1 2286 28 is_stmt 0
	lw	a5,0(s0)
	.loc 1 2286 5
	bne	a5,zero,.L567
	.loc 1 2288 4 is_stmt 1
	.loc 1 2288 31 is_stmt 0
	lui	a5,%hi(.LANCHOR13)
	lw	a5,%lo(.LANCHOR13)(a5)
	.loc 1 2288 6
	beq	a5,zero,.L567
	.loc 1 2307 7 is_stmt 1
	.loc 1 2292 10
	.loc 1 2292 38 is_stmt 0
	lui	s7,%hi(.LANCHOR17)
	addi	s7,s7,%lo(.LANCHOR17)
	lw	a5,0(s7)
	lui	s5,%hi(.LANCHOR8)
	addi	s5,s5,%lo(.LANCHOR8)
	.loc 1 2292 10
	beq	a5,zero,.L568
	lui	s1,%hi(.LANCHOR1)
	lui	s5,%hi(.LANCHOR8)
	lui	s2,%hi(.LANCHOR2)
	lui	s4,%hi(.LANCHOR9)
	addi	s1,s1,%lo(.LANCHOR1)
	addi	s2,s2,%lo(.LANCHOR2)
	addi	s4,s4,%lo(.LANCHOR9)
	addi	s5,s5,%lo(.LANCHOR8)
	.loc 1 2297 40
	li	s3,1
.LVL532:
.L570:
	.loc 1 2294 6 is_stmt 1
	.loc 1 2294 12 is_stmt 0
	lw	a5,12(s7)
	lw	s0,12(a5)
.LVL533:
	.loc 1 2295 6 is_stmt 1
	.loc 1 2295 15 is_stmt 0
	addi	a0,s0,24
	call	uxListRemove
.LVL534:
	.loc 1 2296 6 is_stmt 1
	.loc 1 2296 15 is_stmt 0
	addi	s6,s0,4
	mv	a0,s6
	call	uxListRemove
.LVL535:
	.loc 1 2297 6 is_stmt 1
	.loc 1 2297 8
	.loc 1 2297 54 is_stmt 0
	lw	a5,44(s0)
	.loc 1 2297 31
	lw	a4,0(s2)
	.loc 1 2297 72
	mv	a1,s6
	slli	a0,a5,2
	add	a0,a0,a5
	slli	a0,a0,2
	.loc 1 2297 40
	sll	a5,s3,a5
	.loc 1 2297 31
	or	a5,a5,a4
	.loc 1 2297 72
	add	a0,s4,a0
	.loc 1 2297 31
	sw	a5,0(s2)
	.loc 1 2297 72 is_stmt 1
	call	vListInsertEnd
.LVL536:
	.loc 1 2297 171
	.loc 1 2301 6
	.loc 1 2303 7
	.loc 1 2307 7
	.loc 1 2292 10
	.loc 1 2301 43 is_stmt 0
	lw	a5,0(s1)
	.loc 1 2301 8
	lw	a4,44(s0)
	lw	a5,44(a5)
	bltu	a4,a5,.L569
	.loc 1 2303 21
	sw	s3,0(s5)
.L569:
	.loc 1 2292 38
	lw	a5,0(s7)
	.loc 1 2292 10
	bne	a5,zero,.L570
	.loc 1 2311 5 is_stmt 1
	.loc 1 2319 6
.LBB415:
.LBB416:
	.loc 1 4150 1
	.loc 1 4152 2
	.loc 1 4152 31 is_stmt 0
	lui	a5,%hi(.LANCHOR5)
	addi	a5,a5,%lo(.LANCHOR5)
	lw	a4,0(a5)
	lw	a4,0(a4)
	.loc 1 4152 4
	bne	a4,zero,.L571
	.loc 1 4158 3 is_stmt 1
	.loc 1 4158 24 is_stmt 0
	lui	a5,%hi(.LANCHOR6)
	li	a4,-1
	sw	a4,%lo(.LANCHOR6)(a5)
.LVL537:
.L568:
.LBE416:
.LBE415:
.LBB420:
	.loc 1 2327 6 is_stmt 1
	.loc 1 2327 18 is_stmt 0
	lui	s1,%hi(.LANCHOR16)
	addi	s1,s1,%lo(.LANCHOR16)
	lw	s0,0(s1)
.LVL538:
	.loc 1 2329 6 is_stmt 1
	.loc 1 2329 8 is_stmt 0
	beq	s0,zero,.L572
	.loc 1 2335 23
	li	s2,1
.L575:
	.loc 1 2331 7 is_stmt 1
	.loc 1 2333 8
.LBB421:
.LBB422:
	.loc 1 2879 1
	.loc 1 2880 1
	.loc 1 2881 1
.LVL539:
	.loc 1 2884 2
	.loc 1 2887 2
	.loc 1 2888 2
	.loc 1 2888 6 is_stmt 0
	addi	a0,sp,12
	call	bl_sys_time_sync_state
.LVL540:
.LBE422:
.LBE421:
	.loc 1 2341 8
	addi	s0,s0,-1
.LVL541:
.LBB424:
.LBB423:
	.loc 1 2888 4
	beq	a0,zero,.L574
	call	xTaskIncrementTick.part.0
.LVL542:
.LBE423:
.LBE424:
	.loc 1 2335 9 is_stmt 1
	.loc 1 2333 10 is_stmt 0
	beq	a0,zero,.L574
	.loc 1 2335 23
	sw	s2,0(s5)
.L574:
	.loc 1 2339 9 is_stmt 1
	.loc 1 2341 8
.LVL543:
	.loc 1 2342 14
	.loc 1 2342 7 is_stmt 0
	bne	s0,zero,.L575
	.loc 1 2344 7 is_stmt 1
	.loc 1 2344 21 is_stmt 0
	sw	zero,0(s1)
.L572:
	.loc 1 2348 7 is_stmt 1
.LBE420:
	.loc 1 2352 5
	.loc 1 2352 23 is_stmt 0
	lw	a5,0(s5)
	.loc 1 2352 7
	bne	a5,zero,.L598
.LVL544:
.L567:
	.loc 1 2271 12
	li	s0,0
.LVL545:
.L566:
	.loc 1 2369 4 is_stmt 1
	.loc 1 2372 2
	call	vTaskExitCritical
.LVL546:
	.loc 1 2374 2
	.loc 1 2375 1 is_stmt 0
	lw	ra,60(sp)
	.cfi_remember_state
	.cfi_restore 1
	mv	a0,s0
	lw	s0,56(sp)
	.cfi_restore 8
.LVL547:
	lw	s1,52(sp)
	.cfi_restore 9
	lw	s2,48(sp)
	.cfi_restore 18
	lw	s3,44(sp)
	.cfi_restore 19
	lw	s4,40(sp)
	.cfi_restore 20
	lw	s5,36(sp)
	.cfi_restore 21
	lw	s6,32(sp)
	.cfi_restore 22
	lw	s7,28(sp)
	.cfi_restore 23
	addi	sp,sp,64
	.cfi_def_cfa_offset 0
	jr	ra
.LVL548:
.L597:
	.cfi_restore_state
	.loc 1 2275 38 is_stmt 1 discriminator 1
	li	a0,2
	call	vEnvironmentCall
.LVL549:
	j	.L563
.LVL550:
.L571:
.LBB425:
.LBB419:
.LBB417:
.LBB418:
	.loc 1 4166 3
	.loc 1 4166 42 is_stmt 0
	lw	a4,0(a5)
.LVL551:
	.loc 1 4167 3 is_stmt 1
	.loc 1 4167 24 is_stmt 0
	lui	a5,%hi(.LANCHOR6)
	.loc 1 4166 13
	lw	a4,12(a4)
.LVL552:
	.loc 1 4167 62
	lw	a4,12(a4)
.LVL553:
	lw	a4,4(a4)
.LVL554:
	.loc 1 4167 24
	sw	a4,%lo(.LANCHOR6)(a5)
	.loc 1 4169 1
	j	.L568
.LVL555:
.L598:
.LBE418:
.LBE417:
.LBE419:
.LBE425:
	.loc 1 2356 7 is_stmt 1
	.loc 1 2359 6
	li	a0,1
	call	vEnvironmentCall
.LVL556:
	.loc 1 2356 23 is_stmt 0
	li	s0,1
.LVL557:
	j	.L566
	.cfi_endproc
.LFE25:
	.size	xTaskResumeAll, .-xTaskResumeAll
	.section	.text.vTaskDelayUntil,"ax",@progbits
	.align	1
	.globl	vTaskDelayUntil
	.type	vTaskDelayUntil, @function
vTaskDelayUntil:
.LFB12:
	.loc 1 1344 2 is_stmt 1
	.cfi_startproc
.LVL558:
	.loc 1 1345 2
	.loc 1 1346 2
	.loc 1 1348 3
	.loc 1 1344 2 is_stmt 0
	addi	sp,sp,-16
	.cfi_def_cfa_offset 16
	sw	s0,8(sp)
	sw	s1,4(sp)
	sw	ra,12(sp)
	sw	s2,0(sp)
	.cfi_offset 8, -8
	.cfi_offset 9, -12
	.cfi_offset 1, -4
	.cfi_offset 18, -16
	.loc 1 1344 2
	mv	s1,a0
	mv	s0,a1
	.loc 1 1348 5
	beq	a0,zero,.L616
.LVL559:
.L600:
	.loc 1 1349 3 is_stmt 1
	.loc 1 1349 5 is_stmt 0
	beq	s0,zero,.L617
.L601:
	.loc 1 1350 3 is_stmt 1
	.loc 1 1350 37 is_stmt 0
	lui	s2,%hi(.LANCHOR14)
	addi	s2,s2,%lo(.LANCHOR14)
	lw	a5,0(s2)
	.loc 1 1350 5
	bne	a5,zero,.L618
.L602:
	.loc 1 1352 3 is_stmt 1
.LBB426:
.LBB427:
	.loc 1 2200 2
	lw	a5,0(s2)
	addi	a5,a5,1
	sw	a5,0(s2)
	.loc 1 2201 2
.LBE427:
.LBE426:
.LBB428:
	.loc 1 1356 4
	.loc 1 1359 18 is_stmt 0
	lw	a4,0(s1)
	.loc 1 1356 21
	lui	a5,%hi(.LANCHOR0)
	lw	a0,%lo(.LANCHOR0)(a5)
.LVL560:
	.loc 1 1359 4 is_stmt 1
	.loc 1 1359 16 is_stmt 0
	add	s0,a4,s0
.LVL561:
	.loc 1 1361 4 is_stmt 1
	.loc 1 1393 24 is_stmt 0
	sw	s0,0(s1)
	.loc 1 1361 6
	bleu	a4,a0,.L603
	.loc 1 1368 5 is_stmt 1
	.loc 1 1368 7 is_stmt 0
	bgtu	a4,s0,.L615
.L605:
	.loc 1 1405 5 is_stmt 1
.LBE428:
	.loc 1 1408 3
	.loc 1 1408 21 is_stmt 0
	call	xTaskResumeAll
.LVL562:
	.loc 1 1412 3 is_stmt 1
	.loc 1 1412 5 is_stmt 0
	beq	a0,zero,.L619
.L599:
	.loc 1 1420 2
	lw	ra,12(sp)
	.cfi_remember_state
	.cfi_restore 1
	lw	s0,8(sp)
	.cfi_restore 8
.LVL563:
	lw	s1,4(sp)
	.cfi_restore 9
.LVL564:
	lw	s2,0(sp)
	.cfi_restore 18
	addi	sp,sp,16
	.cfi_def_cfa_offset 0
	jr	ra
.LVL565:
.L603:
	.cfi_restore_state
.LBB429:
	.loc 1 1382 5 is_stmt 1
	.loc 1 1382 7 is_stmt 0
	bgtu	a4,s0,.L607
.L615:
	.loc 1 1382 47 discriminator 1
	bgeu	a0,s0,.L605
.L607:
	.loc 1 1397 5 is_stmt 1
	.loc 1 1401 5
	li	a1,0
	sub	a0,s0,a0
.LVL566:
	call	prvAddCurrentTaskToDelayedList
.LVL567:
	.loc 1 1405 5
.LBE429:
	.loc 1 1408 3
	.loc 1 1408 21 is_stmt 0
	call	xTaskResumeAll
.LVL568:
	.loc 1 1412 3 is_stmt 1
	.loc 1 1412 5 is_stmt 0
	bne	a0,zero,.L599
.L619:
	.loc 1 1414 4 is_stmt 1
	.loc 1 1420 2 is_stmt 0
	lw	s0,8(sp)
	.cfi_remember_state
	.cfi_restore 8
.LVL569:
	lw	ra,12(sp)
	.cfi_restore 1
	lw	s1,4(sp)
	.cfi_restore 9
.LVL570:
	lw	s2,0(sp)
	.cfi_restore 18
	.loc 1 1414 4
	li	a0,1
.LVL571:
	.loc 1 1420 2
	addi	sp,sp,16
	.cfi_def_cfa_offset 0
	.loc 1 1414 4
	tail	vEnvironmentCall
.LVL572:
.L618:
	.cfi_restore_state
	.loc 1 1350 44 is_stmt 1 discriminator 1
	li	a0,2
	call	vEnvironmentCall
.LVL573:
	j	.L602
.L617:
	.loc 1 1349 42 discriminator 1
	li	a0,2
	call	vEnvironmentCall
.LVL574:
	j	.L601
.L616:
	.loc 1 1348 37 discriminator 1
	li	a0,2
	call	vEnvironmentCall
.LVL575:
	j	.L600
	.cfi_endproc
.LFE12:
	.size	vTaskDelayUntil, .-vTaskDelayUntil
	.section	.text.vTaskDelay,"ax",@progbits
	.align	1
	.globl	vTaskDelay
	.type	vTaskDelay, @function
vTaskDelay:
.LFB13:
	.loc 1 1428 2
	.cfi_startproc
.LVL576:
	.loc 1 1429 2
	.loc 1 1432 3
	.loc 1 1432 5 is_stmt 0
	beq	a0,zero,.L633
	.loc 1 1428 2
	addi	sp,sp,-16
	.cfi_def_cfa_offset 16
	sw	s1,4(sp)
	.cfi_offset 9, -12
	.loc 1 1434 38
	lui	s1,%hi(.LANCHOR14)
	addi	s1,s1,%lo(.LANCHOR14)
	lw	a5,0(s1)
	.loc 1 1428 2
	sw	s0,8(sp)
	sw	ra,12(sp)
	.cfi_offset 8, -8
	.cfi_offset 1, -4
	mv	s0,a0
	.loc 1 1434 4 is_stmt 1
	.loc 1 1434 6 is_stmt 0
	bne	a5,zero,.L634
.LVL577:
.L622:
	.loc 1 1435 4 is_stmt 1
.LBB430:
.LBB431:
	.loc 1 2200 2
	lw	a5,0(s1)
	addi	a5,a5,1
	sw	a5,0(s1)
	.loc 1 2201 2
.LBE431:
.LBE430:
	.loc 1 1437 5
	.loc 1 1446 5
	li	a1,0
	mv	a0,s0
	call	prvAddCurrentTaskToDelayedList
.LVL578:
	.loc 1 1448 4
	.loc 1 1448 22 is_stmt 0
	call	xTaskResumeAll
.LVL579:
	.loc 1 1452 4 is_stmt 1
	.loc 1 1457 3
	.loc 1 1457 5 is_stmt 0
	bne	a0,zero,.L635
.LVL580:
	.loc 1 1459 4 is_stmt 1
	.loc 1 1465 2 is_stmt 0
	lw	s0,8(sp)
	.cfi_remember_state
	.cfi_restore 8
.LVL581:
	lw	ra,12(sp)
	.cfi_restore 1
	lw	s1,4(sp)
	.cfi_restore 9
	.loc 1 1459 4
	li	a0,1
	.loc 1 1465 2
	addi	sp,sp,16
	.cfi_def_cfa_offset 0
	.loc 1 1459 4
	tail	vEnvironmentCall
.LVL582:
.L635:
	.cfi_restore_state
	.loc 1 1465 2
	lw	ra,12(sp)
	.cfi_remember_state
	.cfi_restore 1
	lw	s0,8(sp)
	.cfi_restore 8
.LVL583:
	lw	s1,4(sp)
	.cfi_restore 9
	addi	sp,sp,16
	.cfi_def_cfa_offset 0
	jr	ra
.LVL584:
.L634:
	.cfi_restore_state
	.loc 1 1434 45 is_stmt 1 discriminator 1
	li	a0,2
	call	vEnvironmentCall
.LVL585:
	j	.L622
.LVL586:
.L633:
	.cfi_def_cfa_offset 0
	.cfi_restore 1
	.cfi_restore 8
	.cfi_restore 9
	.loc 1 1459 4
	li	a0,1
.LVL587:
	tail	vEnvironmentCall
.LVL588:
	.cfi_endproc
.LFE13:
	.size	vTaskDelay, .-vTaskDelay
	.section	.text.vTaskGetInfo,"ax",@progbits
	.align	1
	.globl	vTaskGetInfo
	.type	vTaskGetInfo, @function
vTaskGetInfo:
.LFB53:
	.loc 1 3839 2
	.cfi_startproc
.LVL589:
	.loc 1 3840 2
	.loc 1 3843 3
	.loc 1 3839 2 is_stmt 0
	addi	sp,sp,-16
	.cfi_def_cfa_offset 16
	sw	s0,8(sp)
	sw	s1,4(sp)
	sw	s2,0(sp)
	sw	ra,12(sp)
	.cfi_offset 8, -8
	.cfi_offset 9, -12
	.cfi_offset 18, -16
	.cfi_offset 1, -4
	.loc 1 3839 2
	mv	s0,a1
	mv	s2,a2
	mv	s1,a0
	.loc 1 3843 27
	beq	a0,zero,.L653
.LVL590:
.L637:
	.loc 1 3845 3 is_stmt 1 discriminator 4
	.loc 1 3846 47 is_stmt 0 discriminator 4
	addi	a5,s1,52
	.loc 1 3846 28 discriminator 4
	sw	a5,4(s0)
	.loc 1 3845 25 discriminator 4
	sw	s1,0(s0)
	.loc 1 3846 3 is_stmt 1 discriminator 4
	.loc 1 3847 3 discriminator 4
	.loc 1 3847 42 is_stmt 0 discriminator 4
	lw	a4,44(s1)
	.loc 1 3874 5 discriminator 4
	li	a5,5
	.loc 1 3847 35 discriminator 4
	sw	a4,16(s0)
	.loc 1 3848 3 is_stmt 1 discriminator 4
	.loc 1 3848 36 is_stmt 0 discriminator 4
	lw	a4,48(s1)
	.loc 1 3848 29 discriminator 4
	sw	a4,28(s0)
	.loc 1 3849 3 is_stmt 1 discriminator 4
	.loc 1 3849 36 is_stmt 0 discriminator 4
	lw	a4,72(s1)
	.loc 1 3849 29 discriminator 4
	sw	a4,8(s0)
	.loc 1 3853 4 is_stmt 1 discriminator 4
	.loc 1 3853 40 is_stmt 0 discriminator 4
	lw	a4,80(s1)
	.loc 1 3867 35 discriminator 4
	sw	zero,24(s0)
	.loc 1 3853 33 discriminator 4
	sw	a4,20(s0)
	.loc 1 3867 4 is_stmt 1 discriminator 4
	.loc 1 3874 3 discriminator 4
	.loc 1 3874 5 is_stmt 0 discriminator 4
	beq	a3,a5,.L638
	.loc 1 3876 4 is_stmt 1
	.loc 1 3876 14 is_stmt 0
	lui	a5,%hi(.LANCHOR1)
	lw	a5,%lo(.LANCHOR1)(a5)
	.loc 1 3876 6
	beq	a5,s1,.L654
	.loc 1 3882 5 is_stmt 1
	.loc 1 3882 33 is_stmt 0
	sw	a3,12(s0)
	.loc 1 3889 6 is_stmt 1
	.loc 1 3889 8 is_stmt 0
	li	a5,3
	beq	a3,a5,.L655
.LVL591:
.L640:
	.loc 1 3911 3 is_stmt 1
	.loc 1 3911 5 is_stmt 0
	beq	s2,zero,.L642
	.loc 1 3919 5 is_stmt 1
	.loc 1 3919 89 is_stmt 0
	lw	a3,48(s1)
.LVL592:
.LBB432:
.LBB433:
	.loc 1 4001 2 is_stmt 1
	.loc 1 4003 3
	.loc 1 4003 8
	li	a5,165
	lbu	a4,0(a3)
	bne	a4,a5,.L646
	.loc 1 4001 11 is_stmt 0
	li	a5,0
	.loc 1 4003 8
	li	a2,165
.LVL593:
.L644:
	.loc 1 4005 4 is_stmt 1
	.loc 1 4006 4
	.loc 1 4006 11 is_stmt 0
	addi	a5,a5,1
.LVL594:
	.loc 1 4003 8 is_stmt 1
	.loc 1 4003 10 is_stmt 0
	add	a4,a3,a5
	.loc 1 4003 8
	lbu	a4,0(a4)
	beq	a4,a2,.L644
	.loc 1 4009 11
	srli	a5,a5,2
.LVL595:
	.loc 1 4011 10
	slli	a5,a5,16
	srli	a5,a5,16
	.loc 1 4009 3 is_stmt 1
	.loc 1 4011 3
.LBE433:
.LBE432:
	.loc 1 3919 40 is_stmt 0
	sh	a5,32(s0)
.L656:
	.loc 1 3927 2
	lw	ra,12(sp)
	.cfi_remember_state
	.cfi_restore 1
	lw	s0,8(sp)
	.cfi_restore 8
.LVL596:
	lw	s1,4(sp)
	.cfi_restore 9
.LVL597:
	lw	s2,0(sp)
	.cfi_restore 18
.LVL598:
	addi	sp,sp,16
	.cfi_def_cfa_offset 0
	jr	ra
.LVL599:
.L642:
	.cfi_restore_state
	.loc 1 3925 4 is_stmt 1
	.loc 1 3925 39 is_stmt 0
	sh	zero,32(s0)
	.loc 1 3927 2
	lw	ra,12(sp)
	.cfi_remember_state
	.cfi_restore 1
	lw	s0,8(sp)
	.cfi_restore 8
.LVL600:
	lw	s1,4(sp)
	.cfi_restore 9
.LVL601:
	lw	s2,0(sp)
	.cfi_restore 18
.LVL602:
	addi	sp,sp,16
	.cfi_def_cfa_offset 0
	jr	ra
.LVL603:
.L653:
	.cfi_restore_state
	.loc 1 3843 27 discriminator 1
	lui	a5,%hi(.LANCHOR1)
	lw	s1,%lo(.LANCHOR1)(a5)
.LVL604:
	j	.L637
.LVL605:
.L654:
	.loc 1 3878 5 is_stmt 1
	.loc 1 3878 33 is_stmt 0
	sw	zero,12(s0)
	j	.L640
.L638:
	.loc 1 3906 4 is_stmt 1
	.loc 1 3906 34 is_stmt 0
	mv	a0,s1
	call	eTaskGetState
.LVL606:
	.loc 1 3906 32
	sw	a0,12(s0)
	j	.L640
.LVL607:
.L655:
	.loc 1 3891 7 is_stmt 1
.LBB435:
.LBB436:
	.loc 1 2200 2
	lui	a5,%hi(.LANCHOR14)
	addi	a5,a5,%lo(.LANCHOR14)
	lw	a4,0(a5)
	addi	a4,a4,1
	sw	a4,0(a5)
	.loc 1 2201 2
.LBE436:
.LBE435:
	.loc 1 3893 8
	.loc 1 3893 10 is_stmt 0
	lw	a5,40(s1)
	beq	a5,zero,.L641
	.loc 1 3895 9 is_stmt 1
	.loc 1 3895 37 is_stmt 0
	li	a5,2
	sw	a5,12(s0)
.L641:
	.loc 1 3898 7 is_stmt 1
	.loc 1 3898 16 is_stmt 0
	call	xTaskResumeAll
.LVL608:
	j	.L640
.LVL609:
.L646:
.LBB437:
.LBB434:
	.loc 1 4003 8
	li	a5,0
	.loc 1 4009 3 is_stmt 1
.LVL610:
	.loc 1 4011 3
.LBE434:
.LBE437:
	.loc 1 3919 40 is_stmt 0
	sh	a5,32(s0)
	j	.L656
	.cfi_endproc
.LFE53:
	.size	vTaskGetInfo, .-vTaskGetInfo
	.section	.text.prvListTasksWithinSingleList.part.0,"ax",@progbits
	.align	1
	.type	prvListTasksWithinSingleList.part.0, @function
prvListTasksWithinSingleList.part.0:
.LFB87:
	.loc 1 3934 21 is_stmt 1
	.cfi_startproc
.LVL611:
.LBB438:
	.loc 1 3941 6
.LBE438:
	.loc 1 3934 21 is_stmt 0
	addi	sp,sp,-32
	.cfi_def_cfa_offset 32
	sw	s2,16(sp)
	sw	s4,8(sp)
	sw	s5,4(sp)
	sw	ra,28(sp)
	sw	s0,24(sp)
	sw	s1,20(sp)
	sw	s3,12(sp)
	sw	s6,0(sp)
	.cfi_offset 18, -16
	.cfi_offset 20, -24
	.cfi_offset 21, -28
	.cfi_offset 1, -4
	.cfi_offset 8, -8
	.cfi_offset 9, -12
	.cfi_offset 19, -20
	.cfi_offset 22, -32
.LBB439:
	.loc 1 3941 98
	lw	a5,4(a1)
	.loc 1 3941 162
	addi	s4,a1,8
.LBE439:
	.loc 1 3934 21
	mv	s2,a1
.LVL612:
.LBB440:
	.loc 1 3941 47 is_stmt 1
	.loc 1 3941 98 is_stmt 0
	lw	a5,4(a5)
.LBE440:
	.loc 1 3934 21
	mv	s5,a2
.LBB441:
	.loc 1 3941 72
	sw	a5,4(a1)
	.loc 1 3941 108 is_stmt 1
	.loc 1 3941 110 is_stmt 0
	beq	a5,s4,.L663
.L658:
	.loc 1 3941 260 is_stmt 1
	.loc 1 3941 275 is_stmt 0
	lw	s6,12(a5)
.LVL613:
	mv	s0,a0
.LBE441:
	.loc 1 3937 14
	li	s3,0
	j	.L661
.LVL614:
.L659:
.LBB442:
	.loc 1 3949 275
	lw	s1,12(a5)
.LVL615:
.LBE442:
	.loc 1 3949 313 is_stmt 1
	.loc 1 3950 5
	.loc 1 3951 11 is_stmt 0
	addi	s3,s3,1
.LVL616:
	.loc 1 3952 4
	addi	s0,s0,36
	.loc 1 3950 5
	mv	a0,s1
	call	vTaskGetInfo
.LVL617:
	.loc 1 3951 5 is_stmt 1
	.loc 1 3952 11
	.loc 1 3952 4 is_stmt 0
	beq	s6,s1,.L657
.L664:
.LBB443:
	.loc 1 3949 90
	lw	a5,4(s2)
.LVL618:
.L661:
.LBE443:
	.loc 1 3941 313 is_stmt 1
	.loc 1 3947 4
.LBB444:
	.loc 1 3949 7
	.loc 1 3949 48
	.loc 1 3949 261
	.loc 1 3949 99 is_stmt 0
	lw	a5,4(a5)
.LBE444:
	.loc 1 3950 5
	mv	a1,s0
	mv	a3,s5
.LBB445:
	.loc 1 3949 73
	sw	a5,4(s2)
	.loc 1 3949 109 is_stmt 1
.LBE445:
	.loc 1 3950 5 is_stmt 0
	li	a2,1
.LBB446:
	.loc 1 3949 111
	bne	s4,a5,.L659
.LVL619:
	.loc 1 3949 198 is_stmt 1
	.loc 1 3949 249 is_stmt 0
	lw	a5,4(s4)
.LBE446:
	.loc 1 3951 11
	addi	s3,s3,1
.LVL620:
	.loc 1 3952 4
	addi	s0,s0,36
.LBB447:
	.loc 1 3949 223
	sw	a5,4(s2)
	.loc 1 3949 275
	lw	s1,12(a5)
.LVL621:
.LBE447:
	.loc 1 3949 313 is_stmt 1
	.loc 1 3950 5
	mv	a0,s1
	call	vTaskGetInfo
.LVL622:
	.loc 1 3951 5
	.loc 1 3952 11
	.loc 1 3952 4 is_stmt 0
	bne	s6,s1,.L664
.L657:
	.loc 1 3960 2
	lw	ra,28(sp)
	.cfi_remember_state
	.cfi_restore 1
	lw	s0,24(sp)
	.cfi_restore 8
	lw	s1,20(sp)
	.cfi_restore 9
.LVL623:
	lw	s2,16(sp)
	.cfi_restore 18
.LVL624:
	lw	s4,8(sp)
	.cfi_restore 20
.LVL625:
	lw	s5,4(sp)
	.cfi_restore 21
.LVL626:
	lw	s6,0(sp)
	.cfi_restore 22
.LVL627:
	mv	a0,s3
	lw	s3,12(sp)
	.cfi_restore 19
.LVL628:
	addi	sp,sp,32
	.cfi_def_cfa_offset 0
	jr	ra
.LVL629:
.L663:
	.cfi_restore_state
.LBB448:
	.loc 1 3941 197 is_stmt 1
	.loc 1 3941 248 is_stmt 0
	lw	a5,12(a1)
	.loc 1 3941 222
	sw	a5,4(a1)
	j	.L658
.LBE448:
	.cfi_endproc
.LFE87:
	.size	prvListTasksWithinSingleList.part.0, .-prvListTasksWithinSingleList.part.0
	.section	.text.uxTaskGetSystemState,"ax",@progbits
	.align	1
	.globl	uxTaskGetSystemState
	.type	uxTaskGetSystemState, @function
uxTaskGetSystemState:
.LFB31:
	.loc 1 2593 2 is_stmt 1
	.cfi_startproc
.LVL630:
	.loc 1 2594 2
	.loc 1 2596 3
.LBB449:
.LBB450:
	.loc 1 2200 2
.LBE450:
.LBE449:
	.loc 1 2593 2 is_stmt 0
	addi	sp,sp,-32
	.cfi_def_cfa_offset 32
.LBB453:
.LBB451:
	.loc 1 2200 2
	lui	a5,%hi(.LANCHOR14)
.LBE451:
.LBE453:
	.loc 1 2593 2
	sw	ra,28(sp)
	sw	s0,24(sp)
	sw	s1,20(sp)
	sw	s2,16(sp)
	sw	s3,12(sp)
	sw	s4,8(sp)
	sw	s5,4(sp)
	.cfi_offset 1, -4
	.cfi_offset 8, -8
	.cfi_offset 9, -12
	.cfi_offset 18, -16
	.cfi_offset 19, -20
	.cfi_offset 20, -24
	.cfi_offset 21, -28
.LBB454:
.LBB452:
	.loc 1 2200 2
	addi	a5,a5,%lo(.LANCHOR14)
	lw	a4,0(a5)
	addi	a4,a4,1
	sw	a4,0(a5)
	.loc 1 2201 2 is_stmt 1
.LBE452:
.LBE454:
	.loc 1 2599 4
	.loc 1 2599 20 is_stmt 0
	lui	a5,%hi(.LANCHOR13)
	lw	a5,%lo(.LANCHOR13)(a5)
	.loc 1 2594 14
	li	s2,0
	.loc 1 2599 6
	bgtu	a5,a1,.L666
	lui	s5,%hi(.LANCHOR9)
	addi	s5,s5,%lo(.LANCHOR9)
	mv	s4,a0
	mv	s0,a2
	addi	s3,s5,620
	.loc 1 2594 26
	li	s1,32
	.loc 1 2594 14
	li	s2,0
	li	a4,0
.LVL631:
.L668:
	.loc 1 2603 5 is_stmt 1 discriminator 1
	.loc 1 2605 6 discriminator 1
	.loc 1 2605 13 is_stmt 0 discriminator 1
	addi	s1,s1,-1
.LVL632:
	.loc 1 2606 6 is_stmt 1 discriminator 1
.LBB455:
.LBB456:
	.loc 1 3939 19 is_stmt 0 discriminator 1
	slli	a5,s1,2
	add	a5,a5,s1
	slli	a5,a5,2
	add	a5,s5,a5
	lw	a5,0(a5)
.LBE456:
.LBE455:
	.loc 1 2606 66 discriminator 1
	add	a0,a4,s2
	slli	a0,a0,2
.LBB460:
.LBB457:
	mv	a1,s3
	li	a2,1
.LBE457:
.LBE460:
	.loc 1 2606 16 discriminator 1
	add	a0,s4,a0
.LVL633:
.LBB461:
.LBB458:
	.loc 1 3936 2 is_stmt 1 discriminator 1
	.loc 1 3937 2 discriminator 1
	.loc 1 3939 3 discriminator 1
	.loc 1 3939 5 is_stmt 0 discriminator 1
	beq	a5,zero,.L667
	call	prvListTasksWithinSingleList.part.0
.LVL634:
.LBE458:
.LBE461:
	.loc 1 2606 13
	add	s2,s2,a0
.LVL635:
	.loc 1 2612 65
	slli	a4,s2,3
	add	a0,a4,s2
	slli	a0,a0,2
	.loc 1 2612 15
	add	a0,s4,a0
.L667:
.LVL636:
.LBB462:
.LBB459:
	.loc 1 3956 4 is_stmt 1
	.loc 1 3959 3
.LBE459:
.LBE462:
	.loc 1 2608 12
	.loc 1 2608 5 is_stmt 0
	addi	s3,s3,-20
	bne	s1,zero,.L668
	.loc 1 2612 5 is_stmt 1
	.loc 1 2612 15 is_stmt 0
	lui	a5,%hi(.LANCHOR5)
	lw	a1,%lo(.LANCHOR5)(a5)
.LVL637:
.LBB463:
.LBB464:
	.loc 1 3936 2 is_stmt 1
	.loc 1 3937 2
	.loc 1 3939 3
	.loc 1 3939 19 is_stmt 0
	lw	a5,0(a1)
	.loc 1 3939 5
	beq	a5,zero,.L669
	li	a2,2
	call	prvListTasksWithinSingleList.part.0
.LVL638:
.LBE464:
.LBE463:
	.loc 1 2612 12
	add	s2,s2,a0
	.loc 1 2613 65
	slli	a5,s2,3
	add	a5,a5,s2
	slli	a5,a5,2
	.loc 1 2613 15
	add	a0,s4,a5
.L669:
.LVL639:
.LBB466:
.LBB465:
	.loc 1 3956 4 is_stmt 1
	.loc 1 3959 3
.LBE465:
.LBE466:
	.loc 1 2613 5
	.loc 1 2613 15 is_stmt 0
	lui	a5,%hi(.LANCHOR4)
	lw	a1,%lo(.LANCHOR4)(a5)
.LVL640:
.LBB467:
.LBB468:
	.loc 1 3936 2 is_stmt 1
	.loc 1 3937 2
	.loc 1 3939 3
	.loc 1 3939 19 is_stmt 0
	lw	a5,0(a1)
	.loc 1 3939 5
	beq	a5,zero,.L670
	li	a2,2
	call	prvListTasksWithinSingleList.part.0
.LVL641:
.LBE468:
.LBE467:
	.loc 1 2613 12
	add	s2,s2,a0
	.loc 1 2619 66
	slli	a5,s2,3
	add	a5,a5,s2
	slli	a5,a5,2
	.loc 1 2619 16
	add	a0,s4,a5
.L670:
.LVL642:
.LBB470:
.LBB469:
	.loc 1 3956 4 is_stmt 1
	.loc 1 3959 3
.LBE469:
.LBE470:
	.loc 1 2619 6
.LBB471:
.LBB472:
	.loc 1 3936 2
	.loc 1 3937 2
	.loc 1 3939 3
	.loc 1 3939 19 is_stmt 0
	lui	a1,%hi(.LANCHOR12)
	addi	a5,a1,%lo(.LANCHOR12)
	lw	a5,0(a5)
	.loc 1 3939 5
	beq	a5,zero,.L671
	li	a2,4
	addi	a1,a1,%lo(.LANCHOR12)
	call	prvListTasksWithinSingleList.part.0
.LVL643:
.LBE472:
.LBE471:
	.loc 1 2619 13
	add	s2,s2,a0
	.loc 1 2627 66
	slli	a5,s2,3
	add	a5,a5,s2
	slli	a5,a5,2
	.loc 1 2627 16
	add	a0,s4,a5
.L671:
.LVL644:
.LBB474:
.LBB473:
	.loc 1 3956 4 is_stmt 1
	.loc 1 3959 3
.LBE473:
.LBE474:
	.loc 1 2627 6
.LBB475:
.LBB476:
	.loc 1 3936 2
	.loc 1 3937 2
	.loc 1 3939 3
	.loc 1 3939 19 is_stmt 0
	lui	a1,%hi(.LANCHOR3)
	addi	a5,a1,%lo(.LANCHOR3)
	lw	a5,0(a5)
	.loc 1 3939 5
	beq	a5,zero,.L672
	li	a2,3
	addi	a1,a1,%lo(.LANCHOR3)
	call	prvListTasksWithinSingleList.part.0
.LVL645:
.LBE476:
.LBE475:
	.loc 1 2627 13
	add	s2,s2,a0
.L672:
.LVL646:
.LBB478:
.LBB477:
	.loc 1 3956 4 is_stmt 1
	.loc 1 3959 3
.LBE477:
.LBE478:
	.loc 1 2644 6
	.loc 1 2644 8 is_stmt 0
	beq	s0,zero,.L666
	.loc 1 2646 7 is_stmt 1
	.loc 1 2646 24 is_stmt 0
	sw	zero,0(s0)
.LVL647:
.L666:
	.loc 1 2653 5 is_stmt 1
	.loc 1 2656 3
	.loc 1 2656 12 is_stmt 0
	call	xTaskResumeAll
.LVL648:
	.loc 1 2658 3 is_stmt 1
	.loc 1 2659 2 is_stmt 0
	lw	ra,28(sp)
	.cfi_restore 1
	lw	s0,24(sp)
	.cfi_restore 8
	lw	s1,20(sp)
	.cfi_restore 9
	lw	s3,12(sp)
	.cfi_restore 19
	lw	s4,8(sp)
	.cfi_restore 20
	lw	s5,4(sp)
	.cfi_restore 21
	mv	a0,s2
	lw	s2,16(sp)
	.cfi_restore 18
.LVL649:
	addi	sp,sp,32
	.cfi_def_cfa_offset 0
	jr	ra
	.cfi_endproc
.LFE31:
	.size	uxTaskGetSystemState, .-uxTaskGetSystemState
	.section	.text.xTaskCheckForTimeOut,"ax",@progbits
	.align	1
	.globl	xTaskCheckForTimeOut
	.type	xTaskCheckForTimeOut, @function
xTaskCheckForTimeOut:
.LFB44:
	.loc 1 3440 1 is_stmt 1
	.cfi_startproc
.LVL650:
	.loc 1 3441 1
	.loc 1 3443 2
	.loc 1 3440 1 is_stmt 0
	addi	sp,sp,-16
	.cfi_def_cfa_offset 16
	sw	s0,8(sp)
	sw	s1,4(sp)
	sw	ra,12(sp)
	sw	s2,0(sp)
	.cfi_offset 8, -8
	.cfi_offset 9, -12
	.cfi_offset 1, -4
	.cfi_offset 18, -16
	.loc 1 3440 1
	mv	s0,a0
	mv	s1,a1
	.loc 1 3443 4
	beq	a0,zero,.L707
	.loc 1 3444 2 is_stmt 1
	.loc 1 3444 4 is_stmt 0
	beq	s1,zero,.L708
.LVL651:
.L696:
	.loc 1 3446 2 is_stmt 1
.LBB486:
.LBB487:
	.loc 1 4490 3
 #APP
# 4490 "/home/anh/Desktop/wb2/Ai-Thinker-WB2/components/platform/soc/bl602/freertos_riscv_ram/tasks.c" 1
	csrc mstatus, 8
# 0 "" 2
	.loc 1 4492 3
	.loc 1 4492 25 is_stmt 0
 #NO_APP
	lui	a5,%hi(.LANCHOR11)
	lw	a5,%lo(.LANCHOR11)(a5)
	.loc 1 4492 5
	beq	a5,zero,.L697
.LBB488:
.LBB489:
	.loc 1 4494 4 is_stmt 1
	.loc 1 4494 18 is_stmt 0
	lui	a5,%hi(.LANCHOR1)
	addi	a5,a5,%lo(.LANCHOR1)
	lw	a4,0(a5)
	.loc 1 4502 20
	lw	a5,0(a5)
	.loc 1 4494 39
	lw	a5,68(a4)
	addi	a5,a5,1
	sw	a5,68(a4)
	.loc 1 4502 4 is_stmt 1
	.loc 1 4504 5
	.loc 1 4509 4
.L697:
.LBE489:
.LBE488:
	.loc 1 4509 4
.LBE487:
.LBE486:
.LBB490:
	.loc 1 3449 3
	.loc 1 3449 20 is_stmt 0
	lui	a5,%hi(.LANCHOR0)
	addi	a5,a5,%lo(.LANCHOR0)
	.loc 1 3464 8
	lw	a4,0(s1)
	.loc 1 3449 20
	lw	a2,0(a5)
.LVL652:
	.loc 1 3450 3 is_stmt 1
	.loc 1 3464 4
	.loc 1 3464 6 is_stmt 0
	li	a3,-1
	.loc 1 3469 13
	li	s2,0
	.loc 1 3464 6
	beq	a4,a3,.L698
	.loc 1 3474 25
	lui	a3,%hi(.LANCHOR15)
	addi	a3,a3,%lo(.LANCHOR15)
	lw	a0,0(a3)
	.loc 1 3474 5
	lw	a6,0(s0)
	.loc 1 3450 62
	lw	a1,4(s0)
	.loc 1 3474 3 is_stmt 1
	.loc 1 3474 5 is_stmt 0
	beq	a6,a0,.L699
	.loc 1 3481 12 discriminator 1
	li	s2,1
	.loc 1 3474 56 discriminator 1
	bleu	a1,a2,.L698
.L699:
	.loc 1 3483 8 is_stmt 1
	.loc 1 3450 20 is_stmt 0
	sub	a0,a2,a1
	.loc 1 3483 10
	bleu	a4,a0,.L700
	.loc 1 3486 4 is_stmt 1
.LBB491:
.LBB492:
	.loc 1 3434 28 is_stmt 0
	lw	a3,0(a3)
.LBE492:
.LBE491:
	.loc 1 3486 19
	sub	a4,a4,a2
.LBB495:
.LBB493:
	.loc 1 3435 29
	lw	a5,0(a5)
.LBE493:
.LBE495:
	.loc 1 3486 19
	add	a4,a4,a1
	sw	a4,0(s1)
.LVL653:
	.loc 1 3487 4 is_stmt 1
.LBB496:
.LBB494:
	.loc 1 3434 2
	.loc 1 3434 28 is_stmt 0
	sw	a3,0(s0)
	.loc 1 3435 2 is_stmt 1
	.loc 1 3435 29 is_stmt 0
	sw	a5,4(s0)
.LVL654:
.LBE494:
.LBE496:
	.loc 1 3488 4 is_stmt 1
	.loc 1 3488 12 is_stmt 0
	li	s2,0
.LVL655:
.L698:
.LBE490:
	.loc 1 3496 2 is_stmt 1
	call	vTaskExitCritical
.LVL656:
	.loc 1 3498 2
	.loc 1 3499 1 is_stmt 0
	lw	ra,12(sp)
	.cfi_remember_state
	.cfi_restore 1
	lw	s0,8(sp)
	.cfi_restore 8
.LVL657:
	lw	s1,4(sp)
	.cfi_restore 9
.LVL658:
	mv	a0,s2
	lw	s2,0(sp)
	.cfi_restore 18
.LVL659:
	addi	sp,sp,16
	.cfi_def_cfa_offset 0
	jr	ra
.LVL660:
.L700:
	.cfi_restore_state
.LBB497:
	.loc 1 3492 4 is_stmt 1
	.loc 1 3492 19 is_stmt 0
	sw	zero,0(s1)
	.loc 1 3493 4 is_stmt 1
.LVL661:
	.loc 1 3493 12 is_stmt 0
	li	s2,1
	j	.L698
.LVL662:
.L707:
.LBE497:
	.loc 1 3443 27 is_stmt 1 discriminator 1
	li	a0,2
	call	vEnvironmentCall
.LVL663:
	.loc 1 3444 2 discriminator 1
	.loc 1 3444 4 is_stmt 0 discriminator 1
	bne	s1,zero,.L696
.L708:
	.loc 1 3444 31 is_stmt 1 discriminator 1
	li	a0,2
	call	vEnvironmentCall
.LVL664:
	j	.L696
	.cfi_endproc
.LFE44:
	.size	xTaskCheckForTimeOut, .-xTaskCheckForTimeOut
	.section	.rodata.vTaskList.str1.4,"aMS",@progbits,1
	.align	2
.LC1:
	.string	"\t%c\t%u\t%u\t%u\t%p\r\n"
	.section	.text.vTaskList,"ax",@progbits
	.align	1
	.globl	vTaskList
	.type	vTaskList, @function
vTaskList:
.LFB68:
	.loc 1 4578 2
	.cfi_startproc
.LVL665:
	.loc 1 4579 2
	.loc 1 4580 2
	.loc 1 4581 2
	.loc 1 4609 3
	.loc 1 4578 2 is_stmt 0
	addi	sp,sp,-48
	.cfi_def_cfa_offset 48
	.loc 1 4613 15
	lui	a5,%hi(.LANCHOR13)
	.loc 1 4578 2
	sw	s0,40(sp)
	sw	ra,44(sp)
	sw	s1,36(sp)
	sw	s2,32(sp)
	sw	s3,28(sp)
	sw	s4,24(sp)
	sw	s5,20(sp)
	sw	s6,16(sp)
	sw	s7,12(sp)
	sw	s8,8(sp)
	sw	s9,4(sp)
	sw	s10,0(sp)
	.cfi_offset 8, -8
	.cfi_offset 1, -4
	.cfi_offset 9, -12
	.cfi_offset 18, -16
	.cfi_offset 19, -20
	.cfi_offset 20, -24
	.cfi_offset 21, -28
	.cfi_offset 22, -32
	.cfi_offset 23, -36
	.cfi_offset 24, -40
	.cfi_offset 25, -44
	.cfi_offset 26, -48
	.loc 1 4613 15
	addi	a5,a5,%lo(.LANCHOR13)
	lw	s1,0(a5)
	.loc 1 4618 23
	lw	a5,0(a5)
	.loc 1 4578 2
	mv	s0,a0
	.loc 1 4609 18
	sb	zero,0(s0)
	.loc 1 4613 3 is_stmt 1
.LVL666:
	.loc 1 4618 3
	.loc 1 4618 60 is_stmt 0
	slli	a0,a5,3
.LVL667:
	add	a0,a0,a5
	.loc 1 4618 23
	slli	a0,a0,2
	call	pvPortMalloc
.LVL668:
	.loc 1 4620 3 is_stmt 1
	.loc 1 4620 5 is_stmt 0
	beq	a0,zero,.L709
	.loc 1 4623 18
	li	a2,0
	mv	a1,s1
	mv	s3,a0
	.loc 1 4623 4 is_stmt 1
	.loc 1 4623 18 is_stmt 0
	call	uxTaskGetSystemState
.LVL669:
	mv	s2,a0
.LVL670:
	.loc 1 4626 4 is_stmt 1
	.loc 1 4626 16
	.loc 1 4626 4 is_stmt 0
	beq	a0,zero,.L716
	.loc 1 4657 5
	lui	s7,%hi(.LANCHOR21)
	addi	s9,s3,4
	.loc 1 4626 11
	li	s1,0
	lui	s6,%hi(.LC1)
	li	s5,4
	.loc 1 4657 5
	addi	s7,s7,%lo(.LANCHOR21)
.LBB500:
.LBB501:
	.loc 1 4560 3
	li	s4,14
	.loc 1 4562 18
	li	s8,32
.LVL671:
.L715:
.LBE501:
.LBE500:
	.loc 1 4628 5 is_stmt 1
	.loc 1 4628 35 is_stmt 0
	lw	a5,8(s9)
	li	s10,0
	bgtu	a5,s5,.L712
	.loc 1 4657 5
	add	a5,s7,a5
	lbu	s10,0(a5)
.L712:
	.loc 1 4654 5 is_stmt 1 discriminator 2
.LVL672:
.LBB503:
.LBB502:
	.loc 1 4553 2 discriminator 2
	.loc 1 4556 3 discriminator 2
	lw	a1,0(s9)
	mv	a0,s0
	call	strcpy
.LVL673:
	.loc 1 4560 3 discriminator 2
	.loc 1 4560 12 is_stmt 0 discriminator 2
	mv	a0,s0
	call	strlen
.LVL674:
	.loc 1 4560 32 is_stmt 1 discriminator 2
	.loc 1 4560 3 is_stmt 0 discriminator 2
	bgtu	a0,s4,.L713
	add	a5,s0,a0
	addi	a4,s0,15
.LVL675:
.L714:
	.loc 1 4562 4 is_stmt 1
	.loc 1 4562 18 is_stmt 0
	sb	s8,0(a5)
	.loc 1 4560 63 is_stmt 1
.LVL676:
	.loc 1 4560 32
	.loc 1 4560 3 is_stmt 0
	addi	a5,a5,1
.LVL677:
	bne	a4,a5,.L714
	.loc 1 4560 64
	li	a0,15
.LVL678:
.L713:
	.loc 1 4566 3 is_stmt 1
	.loc 1 4566 11 is_stmt 0
	add	s0,s0,a0
.LVL679:
	.loc 1 4566 17
	sb	zero,0(s0)
	.loc 1 4569 3 is_stmt 1
.LVL680:
.LBE502:
.LBE503:
	.loc 1 4657 5
	lw	a6,24(s9)
	lw	a5,4(s9)
	lhu	a4,28(s9)
	lw	a3,12(s9)
	mv	a2,s10
	addi	a1,s6,%lo(.LC1)
	mv	a0,s0
	call	sprintf
.LVL681:
	.loc 1 4660 5
	.loc 1 4660 22 is_stmt 0
	mv	a0,s0
	call	strlen
.LVL682:
	.loc 1 4626 34
	addi	s1,s1,1
.LVL683:
	.loc 1 4660 19
	add	s0,s0,a0
.LVL684:
	.loc 1 4626 33 is_stmt 1
	.loc 1 4626 16
	.loc 1 4626 4 is_stmt 0
	addi	s9,s9,36
	bne	s2,s1,.L715
.LVL685:
.L716:
	.loc 1 4665 4 is_stmt 1
	.loc 1 4671 2 is_stmt 0
	lw	s0,40(sp)
	.cfi_remember_state
	.cfi_restore 8
.LVL686:
	lw	ra,44(sp)
	.cfi_restore 1
	lw	s1,36(sp)
	.cfi_restore 9
	lw	s2,32(sp)
	.cfi_restore 18
.LVL687:
	lw	s4,24(sp)
	.cfi_restore 20
	lw	s5,20(sp)
	.cfi_restore 21
	lw	s6,16(sp)
	.cfi_restore 22
	lw	s7,12(sp)
	.cfi_restore 23
	lw	s8,8(sp)
	.cfi_restore 24
	lw	s9,4(sp)
	.cfi_restore 25
	lw	s10,0(sp)
	.cfi_restore 26
	.loc 1 4665 4
	mv	a0,s3
	.loc 1 4671 2
	lw	s3,28(sp)
	.cfi_restore 19
.LVL688:
	addi	sp,sp,48
	.cfi_def_cfa_offset 0
	.loc 1 4665 4
	tail	vPortFree
.LVL689:
.L709:
	.cfi_restore_state
	.loc 1 4671 2
	lw	ra,44(sp)
	.cfi_restore 1
	lw	s0,40(sp)
	.cfi_restore 8
.LVL690:
	lw	s1,36(sp)
	.cfi_restore 9
.LVL691:
	lw	s2,32(sp)
	.cfi_restore 18
	lw	s3,28(sp)
	.cfi_restore 19
	lw	s4,24(sp)
	.cfi_restore 20
	lw	s5,20(sp)
	.cfi_restore 21
	lw	s6,16(sp)
	.cfi_restore 22
	lw	s7,12(sp)
	.cfi_restore 23
	lw	s8,8(sp)
	.cfi_restore 24
	lw	s9,4(sp)
	.cfi_restore 25
	lw	s10,0(sp)
	.cfi_restore 26
	addi	sp,sp,48
	.cfi_def_cfa_offset 0
	jr	ra
	.cfi_endproc
.LFE68:
	.size	vTaskList, .-vTaskList
	.section	.text.uxTaskResetEventItemValue,"ax",@progbits
	.align	1
	.globl	uxTaskResetEventItemValue
	.type	uxTaskResetEventItemValue, @function
uxTaskResetEventItemValue:
.LFB69:
	.loc 1 4804 1 is_stmt 1
	.cfi_startproc
	.loc 1 4805 1
	.loc 1 4807 2
	.loc 1 4807 32 is_stmt 0
	lui	a5,%hi(.LANCHOR1)
	addi	a5,a5,%lo(.LANCHOR1)
	lw	a2,0(a5)
	.loc 1 4811 111
	lw	a3,0(a5)
	.loc 1 4811 21
	lw	a4,0(a5)
	.loc 1 4811 82
	li	a5,32
	lw	a3,44(a3)
	.loc 1 4807 11
	lw	a0,24(a2)
.LVL692:
	.loc 1 4811 2 is_stmt 1
	.loc 1 4811 82 is_stmt 0
	sub	a5,a5,a3
	.loc 1 4811 54
	sw	a5,24(a4)
	.loc 1 4813 2 is_stmt 1
	.loc 1 4814 1 is_stmt 0
	ret
	.cfi_endproc
.LFE69:
	.size	uxTaskResetEventItemValue, .-uxTaskResetEventItemValue
	.section	.text.pvTaskIncrementMutexHeldCount,"ax",@progbits
	.align	1
	.globl	pvTaskIncrementMutexHeldCount
	.type	pvTaskIncrementMutexHeldCount, @function
pvTaskIncrementMutexHeldCount:
.LFB70:
	.loc 1 4820 2 is_stmt 1
	.cfi_startproc
	.loc 1 4823 3
	.loc 1 4823 20 is_stmt 0
	lui	a5,%hi(.LANCHOR1)
	addi	a5,a5,%lo(.LANCHOR1)
	lw	a4,0(a5)
	.loc 1 4823 5
	beq	a4,zero,.L723
	.loc 1 4825 4 is_stmt 1
	.loc 1 4825 18 is_stmt 0
	lw	a3,0(a5)
	.loc 1 4825 35
	lw	a4,84(a3)
	addi	a4,a4,1
	sw	a4,84(a3)
.L723:
	.loc 1 4828 3 is_stmt 1
	.loc 1 4828 10 is_stmt 0
	lw	a0,0(a5)
	.loc 1 4829 2
	ret
	.cfi_endproc
.LFE70:
	.size	pvTaskIncrementMutexHeldCount, .-pvTaskIncrementMutexHeldCount
	.section	.text.ulTaskNotifyTake,"ax",@progbits
	.align	1
	.globl	ulTaskNotifyTake
	.type	ulTaskNotifyTake, @function
ulTaskNotifyTake:
.LFB71:
	.loc 1 4837 2 is_stmt 1
	.cfi_startproc
.LVL693:
	.loc 1 4838 2
	.loc 1 4840 3
.LBB512:
.LBB513:
	.loc 1 4490 3
.LBE513:
.LBE512:
	.loc 1 4837 2 is_stmt 0
	addi	sp,sp,-16
	.cfi_def_cfa_offset 16
	sw	s2,0(sp)
	sw	ra,12(sp)
	sw	s0,8(sp)
	sw	s1,4(sp)
	.cfi_offset 18, -16
	.cfi_offset 1, -4
	.cfi_offset 8, -8
	.cfi_offset 9, -12
	.loc 1 4837 2
	mv	s2,a0
.LBB519:
.LBB518:
	.loc 1 4490 3
 #APP
# 4490 "/home/anh/Desktop/wb2/Ai-Thinker-WB2/components/platform/soc/bl602/freertos_riscv_ram/tasks.c" 1
	csrc mstatus, 8
# 0 "" 2
	.loc 1 4492 3 is_stmt 1
	.loc 1 4492 25 is_stmt 0
 #NO_APP
	lui	s1,%hi(.LANCHOR11)
	addi	s1,s1,%lo(.LANCHOR11)
	lw	a5,0(s1)
.LBB514:
.LBB515:
	.loc 1 4494 18
	lui	s0,%hi(.LANCHOR1)
	addi	s0,s0,%lo(.LANCHOR1)
.LBE515:
.LBE514:
	.loc 1 4492 5
	beq	a5,zero,.L728
.LBB517:
.LBB516:
	.loc 1 4494 4 is_stmt 1
	.loc 1 4494 18 is_stmt 0
	lw	a4,0(s0)
	.loc 1 4502 20
	lw	a5,0(s0)
	.loc 1 4494 39
	lw	a5,68(a4)
	addi	a5,a5,1
	sw	a5,68(a4)
	.loc 1 4502 4 is_stmt 1
	.loc 1 4504 5
	.loc 1 4509 4
.L728:
.LBE516:
.LBE517:
	.loc 1 4509 4
.LBE518:
.LBE519:
	.loc 1 4843 4
	.loc 1 4843 20 is_stmt 0
	lw	a5,0(s0)
	lw	a5,96(a5)
	.loc 1 4843 6
	bne	a5,zero,.L730
	.loc 1 4846 5 is_stmt 1
	.loc 1 4846 17 is_stmt 0
	lw	a5,0(s0)
	.loc 1 4846 33
	li	a4,1
	sb	a4,100(a5)
	.loc 1 4848 5 is_stmt 1
	.loc 1 4848 7 is_stmt 0
	bne	a1,zero,.L748
.LVL694:
.L730:
	.loc 1 4866 5 is_stmt 1
	.loc 1 4869 3
	call	vTaskExitCritical
.LVL695:
	.loc 1 4871 3
.LBB520:
.LBB521:
	.loc 1 4490 3
 #APP
# 4490 "/home/anh/Desktop/wb2/Ai-Thinker-WB2/components/platform/soc/bl602/freertos_riscv_ram/tasks.c" 1
	csrc mstatus, 8
# 0 "" 2
	.loc 1 4492 3
	.loc 1 4492 25 is_stmt 0
 #NO_APP
	lw	a5,0(s1)
	.loc 1 4492 5
	beq	a5,zero,.L732
.LBB522:
.LBB523:
	.loc 1 4494 4 is_stmt 1
	.loc 1 4494 18 is_stmt 0
	lw	a4,0(s0)
	.loc 1 4502 20
	lw	a5,0(s0)
	.loc 1 4494 39
	lw	a5,68(a4)
	addi	a5,a5,1
	sw	a5,68(a4)
	.loc 1 4502 4 is_stmt 1
	.loc 1 4504 5
	.loc 1 4509 4
.L732:
.LBE523:
.LBE522:
	.loc 1 4509 4
.LBE521:
.LBE520:
	.loc 1 4873 4
	.loc 1 4874 4
	.loc 1 4874 27 is_stmt 0
	lw	a5,0(s0)
	.loc 1 4874 13
	lw	s1,96(a5)
.LVL696:
	.loc 1 4876 4 is_stmt 1
	.loc 1 4876 6 is_stmt 0
	beq	s1,zero,.L733
	.loc 1 4878 5 is_stmt 1
	.loc 1 4880 18 is_stmt 0
	lw	a5,0(s0)
	.loc 1 4878 7
	beq	s2,zero,.L734
	.loc 1 4880 6 is_stmt 1
	.loc 1 4880 36 is_stmt 0
	sw	zero,96(a5)
.L733:
	.loc 1 4889 5 is_stmt 1
	.loc 1 4892 4
	.loc 1 4892 16 is_stmt 0
	lw	a5,0(s0)
	.loc 1 4892 32
	sb	zero,100(a5)
	.loc 1 4894 3 is_stmt 1
	call	vTaskExitCritical
.LVL697:
	.loc 1 4896 3
	.loc 1 4897 2 is_stmt 0
	lw	ra,12(sp)
	.cfi_remember_state
	.cfi_restore 1
	lw	s0,8(sp)
	.cfi_restore 8
	lw	s2,0(sp)
	.cfi_restore 18
.LVL698:
	mv	a0,s1
	lw	s1,4(sp)
	.cfi_restore 9
.LVL699:
	addi	sp,sp,16
	.cfi_def_cfa_offset 0
	jr	ra
.LVL700:
.L734:
	.cfi_restore_state
	.loc 1 4884 6 is_stmt 1
	.loc 1 4884 47 is_stmt 0
	addi	a4,s1,-1
	.loc 1 4884 36
	sw	a4,96(a5)
	j	.L733
.LVL701:
.L748:
	.loc 1 4850 6 is_stmt 1
	mv	a0,a1
.LVL702:
	li	a1,1
.LVL703:
	call	prvAddCurrentTaskToDelayedList
.LVL704:
	.loc 1 4851 6
	.loc 1 4857 6
	li	a0,1
	call	vEnvironmentCall
.LVL705:
	j	.L730
	.cfi_endproc
.LFE71:
	.size	ulTaskNotifyTake, .-ulTaskNotifyTake
	.section	.text.xTaskNotifyWait,"ax",@progbits
	.align	1
	.globl	xTaskNotifyWait
	.type	xTaskNotifyWait, @function
xTaskNotifyWait:
.LFB72:
	.loc 1 4905 2
	.cfi_startproc
.LVL706:
	.loc 1 4906 2
	.loc 1 4908 3
.LBB532:
.LBB533:
	.loc 1 4490 3
.LBE533:
.LBE532:
	.loc 1 4905 2 is_stmt 0
	addi	sp,sp,-32
	.cfi_def_cfa_offset 32
	sw	s2,16(sp)
	sw	s3,12(sp)
	sw	ra,28(sp)
	sw	s0,24(sp)
	sw	s1,20(sp)
	.cfi_offset 18, -16
	.cfi_offset 19, -20
	.cfi_offset 1, -4
	.cfi_offset 8, -8
	.cfi_offset 9, -12
	.loc 1 4905 2
	mv	s2,a1
	mv	s3,a2
.LBB539:
.LBB538:
	.loc 1 4490 3
 #APP
# 4490 "/home/anh/Desktop/wb2/Ai-Thinker-WB2/components/platform/soc/bl602/freertos_riscv_ram/tasks.c" 1
	csrc mstatus, 8
# 0 "" 2
	.loc 1 4492 3 is_stmt 1
	.loc 1 4492 25 is_stmt 0
 #NO_APP
	lui	s1,%hi(.LANCHOR11)
	addi	s1,s1,%lo(.LANCHOR11)
	lw	a5,0(s1)
.LBB534:
.LBB535:
	.loc 1 4494 18
	lui	s0,%hi(.LANCHOR1)
	addi	s0,s0,%lo(.LANCHOR1)
.LBE535:
.LBE534:
	.loc 1 4492 5
	beq	a5,zero,.L750
.LBB537:
.LBB536:
	.loc 1 4494 4 is_stmt 1
	.loc 1 4494 18 is_stmt 0
	lw	a4,0(s0)
	.loc 1 4502 20
	lw	a5,0(s0)
	.loc 1 4494 39
	lw	a5,68(a4)
	addi	a5,a5,1
	sw	a5,68(a4)
	.loc 1 4502 4 is_stmt 1
	.loc 1 4504 5
	.loc 1 4509 4
.L750:
.LBE536:
.LBE537:
	.loc 1 4509 4
.LBE538:
.LBE539:
	.loc 1 4911 4
	.loc 1 4911 20 is_stmt 0
	lw	a5,0(s0)
	.loc 1 4911 6
	li	a4,2
	.loc 1 4911 20
	lbu	a5,100(a5)
	andi	a5,a5,0xff
	.loc 1 4911 6
	beq	a5,a4,.L752
	.loc 1 4916 5 is_stmt 1
	.loc 1 4916 35 is_stmt 0
	lw	a4,0(s0)
	.loc 1 4916 38
	not	a5,a0
	.loc 1 4916 35
	lw	a0,96(a4)
.LVL707:
	and	a5,a5,a0
.LVL708:
	sw	a5,96(a4)
	.loc 1 4919 5 is_stmt 1
	.loc 1 4919 17 is_stmt 0
	lw	a5,0(s0)
	.loc 1 4919 33
	li	a4,1
	sb	a4,100(a5)
	.loc 1 4921 5 is_stmt 1
	.loc 1 4921 7 is_stmt 0
	bne	a3,zero,.L771
.LVL709:
.L752:
	.loc 1 4939 5 is_stmt 1
	.loc 1 4942 3
	call	vTaskExitCritical
.LVL710:
	.loc 1 4944 3
.LBB540:
.LBB541:
	.loc 1 4490 3
 #APP
# 4490 "/home/anh/Desktop/wb2/Ai-Thinker-WB2/components/platform/soc/bl602/freertos_riscv_ram/tasks.c" 1
	csrc mstatus, 8
# 0 "" 2
	.loc 1 4492 3
	.loc 1 4492 25 is_stmt 0
 #NO_APP
	lw	a5,0(s1)
	.loc 1 4492 5
	beq	a5,zero,.L754
.LBB542:
.LBB543:
	.loc 1 4494 4 is_stmt 1
	.loc 1 4494 18 is_stmt 0
	lw	a4,0(s0)
	.loc 1 4502 20
	lw	a5,0(s0)
	.loc 1 4494 39
	lw	a5,68(a4)
	addi	a5,a5,1
	sw	a5,68(a4)
	.loc 1 4502 4 is_stmt 1
	.loc 1 4504 5
	.loc 1 4509 4
.L754:
.LBE543:
.LBE542:
	.loc 1 4509 4
.LBE541:
.LBE540:
	.loc 1 4946 4
	.loc 1 4948 4
	.loc 1 4948 6 is_stmt 0
	beq	s3,zero,.L755
	.loc 1 4952 5 is_stmt 1
	.loc 1 4952 41 is_stmt 0
	lw	a5,0(s0)
	lw	a5,96(a5)
	.loc 1 4952 27
	sw	a5,0(s3)
.L755:
	.loc 1 4959 4 is_stmt 1
	.loc 1 4959 20 is_stmt 0
	lw	a5,0(s0)
	.loc 1 4959 6
	li	a4,2
	.loc 1 4962 13
	li	s1,0
	.loc 1 4959 20
	lbu	a5,100(a5)
	andi	a5,a5,0xff
	.loc 1 4959 6
	bne	a5,a4,.L756
	.loc 1 4968 5 is_stmt 1
	.loc 1 4968 35 is_stmt 0
	lw	a5,0(s0)
	.loc 1 4968 38
	not	s2,s2
.LVL711:
	.loc 1 4969 13
	li	s1,1
	.loc 1 4968 35
	lw	a1,96(a5)
	and	s2,s2,a1
.LVL712:
	sw	s2,96(a5)
	.loc 1 4969 5 is_stmt 1
.LVL713:
.L756:
	.loc 1 4972 4
	.loc 1 4972 16 is_stmt 0
	lw	a5,0(s0)
	.loc 1 4972 32
	sb	zero,100(a5)
	.loc 1 4974 3 is_stmt 1
	call	vTaskExitCritical
.LVL714:
	.loc 1 4976 3
	.loc 1 4977 2 is_stmt 0
	lw	ra,28(sp)
	.cfi_remember_state
	.cfi_restore 1
	lw	s0,24(sp)
	.cfi_restore 8
	lw	s2,16(sp)
	.cfi_restore 18
	lw	s3,12(sp)
	.cfi_restore 19
.LVL715:
	mv	a0,s1
	lw	s1,20(sp)
	.cfi_restore 9
.LVL716:
	addi	sp,sp,32
	.cfi_def_cfa_offset 0
	jr	ra
.LVL717:
.L771:
	.cfi_restore_state
	.loc 1 4923 6 is_stmt 1
	mv	a0,a3
	li	a1,1
.LVL718:
	call	prvAddCurrentTaskToDelayedList
.LVL719:
	.loc 1 4924 6
	.loc 1 4930 6
	li	a0,1
	call	vEnvironmentCall
.LVL720:
	j	.L752
	.cfi_endproc
.LFE72:
	.size	xTaskNotifyWait, .-xTaskNotifyWait
	.section	.text.xTaskGenericNotify,"ax",@progbits
	.align	1
	.globl	xTaskGenericNotify
	.type	xTaskGenericNotify, @function
xTaskGenericNotify:
.LFB73:
	.loc 1 4985 2
	.cfi_startproc
.LVL721:
	.loc 1 4986 2
	.loc 1 4987 2
	.loc 1 4988 2
	.loc 1 4990 3
	.loc 1 4985 2 is_stmt 0
	addi	sp,sp,-32
	.cfi_def_cfa_offset 32
	sw	s1,20(sp)
	sw	ra,28(sp)
	sw	s0,24(sp)
	sw	s2,16(sp)
	.cfi_offset 9, -12
	.cfi_offset 1, -4
	.cfi_offset 8, -8
	.cfi_offset 18, -16
	.loc 1 4985 2
	mv	s1,a0
	.loc 1 4990 5
	beq	a0,zero,.L800
.LVL722:
.L773:
	.loc 1 4991 3 is_stmt 1
	.loc 1 4993 3
.LBB548:
.LBB549:
	.loc 1 4490 3
 #APP
# 4490 "/home/anh/Desktop/wb2/Ai-Thinker-WB2/components/platform/soc/bl602/freertos_riscv_ram/tasks.c" 1
	csrc mstatus, 8
# 0 "" 2
	.loc 1 4492 3
	.loc 1 4492 25 is_stmt 0
 #NO_APP
	lui	a5,%hi(.LANCHOR11)
	lw	a5,%lo(.LANCHOR11)(a5)
	.loc 1 4492 5
	beq	a5,zero,.L774
.LBB550:
.LBB551:
	.loc 1 4494 4 is_stmt 1
	.loc 1 4494 18 is_stmt 0
	lui	a5,%hi(.LANCHOR1)
	addi	a5,a5,%lo(.LANCHOR1)
	lw	a4,0(a5)
	.loc 1 4502 20
	lw	a5,0(a5)
	.loc 1 4494 39
	lw	a5,68(a4)
	addi	a5,a5,1
	sw	a5,68(a4)
	.loc 1 4502 4 is_stmt 1
	.loc 1 4504 5
	.loc 1 4509 4
.L774:
.LBE551:
.LBE550:
	.loc 1 4509 4
.LBE549:
.LBE548:
	.loc 1 4995 4
	.loc 1 4995 6 is_stmt 0
	beq	a3,zero,.L775
	.loc 1 4997 5 is_stmt 1
	.loc 1 4997 42 is_stmt 0
	lw	a5,96(s1)
	.loc 1 4997 35
	sw	a5,0(a3)
.L775:
	.loc 1 5000 4 is_stmt 1
	.loc 1 5000 26 is_stmt 0
	lbu	s2,100(s1)
	.loc 1 5002 25
	li	a5,2
	sb	a5,100(s1)
	li	a5,4
	.loc 1 5000 26
	andi	s2,s2,0xff
.LVL723:
	.loc 1 5002 4 is_stmt 1
	.loc 1 5004 4
	bgtu	a2,a5,.L776
	slli	s0,a2,2
	lui	a2,%hi(.L778)
	addi	a2,a2,%lo(.L778)
	add	s0,s0,a2
	lw	a5,0(s0)
	jr	a5
	.section	.rodata.xTaskGenericNotify,"a",@progbits
	.align	2
	.align	2
.L778:
	.word	.L782
	.word	.L781
	.word	.L780
	.word	.L798
	.word	.L777
	.section	.text.xTaskGenericNotify
.L777:
	.loc 1 5019 6
	.loc 1 5019 8 is_stmt 0
	li	a5,2
	.loc 1 5026 15
	li	s0,0
	.loc 1 5019 8
	beq	s2,a5,.L783
.L798:
	.loc 1 5021 7 is_stmt 1
	.loc 1 5021 30 is_stmt 0
	sw	a1,96(s1)
.L782:
	.loc 1 5044 4 is_stmt 1
	.loc 1 5048 4
	.loc 1 5048 6 is_stmt 0
	li	a5,1
	beq	s2,a5,.L784
.LVL724:
.L799:
	li	s0,1
.L783:
.LVL725:
	.loc 1 5085 5 is_stmt 1
	.loc 1 5088 3
	call	vTaskExitCritical
.LVL726:
	.loc 1 5090 3
	.loc 1 5091 2 is_stmt 0
	lw	ra,28(sp)
	.cfi_remember_state
	.cfi_restore 1
	mv	a0,s0
	lw	s0,24(sp)
	.cfi_restore 8
	lw	s1,20(sp)
	.cfi_restore 9
.LVL727:
	lw	s2,16(sp)
	.cfi_restore 18
	addi	sp,sp,32
	.cfi_def_cfa_offset 0
	jr	ra
.LVL728:
.L784:
	.cfi_restore_state
	.loc 1 5050 5 is_stmt 1
	.loc 1 5050 14 is_stmt 0
	addi	s0,s1,4
	mv	a0,s0
	call	uxListRemove
.LVL729:
	.loc 1 5051 5 is_stmt 1
	.loc 1 5051 7
	.loc 1 5051 53 is_stmt 0
	lw	a3,44(s1)
	.loc 1 5051 30
	lui	a4,%hi(.LANCHOR2)
	addi	a4,a4,%lo(.LANCHOR2)
	lw	a2,0(a4)
	.loc 1 5051 71
	slli	a5,a3,2
	add	a5,a5,a3
	lui	a0,%hi(.LANCHOR9)
	slli	a5,a5,2
	.loc 1 5051 39
	sll	s2,s2,a3
.LVL730:
	.loc 1 5051 71
	addi	a0,a0,%lo(.LANCHOR9)
	.loc 1 5051 30
	or	s2,s2,a2
	.loc 1 5051 71
	add	a0,a0,a5
	mv	a1,s0
	.loc 1 5051 30
	sw	s2,0(a4)
	.loc 1 5051 71 is_stmt 1
	call	vListInsertEnd
.LVL731:
	.loc 1 5051 170
	.loc 1 5054 5
	.loc 1 5054 7 is_stmt 0
	lw	a5,40(s1)
	beq	a5,zero,.L785
	.loc 1 5054 13 is_stmt 1 discriminator 1
	li	a0,2
	call	vEnvironmentCall
.LVL732:
.L785:
	.loc 1 5072 5
	.loc 1 5072 41 is_stmt 0
	lui	a5,%hi(.LANCHOR1)
	lw	a5,%lo(.LANCHOR1)(a5)
	.loc 1 5072 7
	lw	a4,44(s1)
	lw	a5,44(a5)
	bleu	a4,a5,.L799
	.loc 1 5076 6 is_stmt 1
	li	a0,1
	call	vEnvironmentCall
.LVL733:
	j	.L799
.LVL734:
.L780:
	.loc 1 5011 6
	.loc 1 5011 13 is_stmt 0
	lw	a5,96(s1)
	.loc 1 5011 32
	addi	a5,a5,1
	sw	a5,96(s1)
	.loc 1 5012 6 is_stmt 1
	.loc 1 5044 4
	.loc 1 5048 4
	.loc 1 5048 6 is_stmt 0
	li	a5,1
	bne	s2,a5,.L799
	j	.L784
.L781:
	.loc 1 5007 6 is_stmt 1
	.loc 1 5007 29 is_stmt 0
	lw	a5,96(s1)
	or	a1,a5,a1
	sw	a1,96(s1)
	.loc 1 5008 6 is_stmt 1
	.loc 1 5044 4
	.loc 1 5048 4
	.loc 1 5048 6 is_stmt 0
	li	a5,1
	bne	s2,a5,.L799
	j	.L784
.LVL735:
.L800:
	.loc 1 4990 32 discriminator 1
	li	a0,2
	sw	a3,12(sp)
	sw	a2,8(sp)
	sw	a1,4(sp)
	.loc 1 4990 32 is_stmt 1 discriminator 1
	call	vEnvironmentCall
.LVL736:
	lw	a3,12(sp)
	lw	a2,8(sp)
	lw	a1,4(sp)
	j	.L773
.LVL737:
.L776:
	.loc 1 5039 6
	.loc 1 5039 17 is_stmt 0
	lw	a4,96(s1)
	.loc 1 5039 8
	li	a5,-1
	beq	a4,a5,.L782
	.loc 1 5039 52 is_stmt 1 discriminator 1
	li	a0,2
	call	vEnvironmentCall
.LVL738:
	j	.L782
	.cfi_endproc
.LFE73:
	.size	xTaskGenericNotify, .-xTaskGenericNotify
	.section	.text.xTaskGenericNotifyFromISR,"ax",@progbits
	.align	1
	.globl	xTaskGenericNotifyFromISR
	.type	xTaskGenericNotifyFromISR, @function
xTaskGenericNotifyFromISR:
.LFB74:
	.loc 1 5099 2
	.cfi_startproc
.LVL739:
	.loc 1 5100 2
	.loc 1 5101 2
	.loc 1 5102 2
	.loc 1 5103 2
	.loc 1 5105 3
	.loc 1 5099 2 is_stmt 0
	addi	sp,sp,-48
	.cfi_def_cfa_offset 48
	sw	s1,36(sp)
	sw	s3,28(sp)
	sw	ra,44(sp)
	sw	s0,40(sp)
	sw	s2,32(sp)
	.cfi_offset 9, -12
	.cfi_offset 19, -20
	.cfi_offset 1, -4
	.cfi_offset 8, -8
	.cfi_offset 18, -16
	.loc 1 5099 2
	mv	s1,a0
	mv	s3,a4
	.loc 1 5105 5
	beq	a0,zero,.L831
.LVL740:
.L802:
	.loc 1 5123 3 is_stmt 1
	.loc 1 5125 3
	.loc 1 5127 3
	.loc 1 5129 4
	.loc 1 5129 6 is_stmt 0
	beq	a3,zero,.L803
	.loc 1 5131 5 is_stmt 1
	.loc 1 5131 42 is_stmt 0
	lw	a5,96(s1)
	.loc 1 5131 35
	sw	a5,0(a3)
.L803:
	.loc 1 5134 4 is_stmt 1
	.loc 1 5134 26 is_stmt 0
	lbu	s2,100(s1)
	.loc 1 5135 25
	li	a5,2
	sb	a5,100(s1)
	li	a5,4
	.loc 1 5134 26
	andi	s2,s2,0xff
.LVL741:
	.loc 1 5135 4 is_stmt 1
	.loc 1 5137 4
	bgtu	a2,a5,.L804
	slli	s0,a2,2
	lui	a2,%hi(.L806)
	addi	a2,a2,%lo(.L806)
	add	s0,s0,a2
	lw	a5,0(s0)
	jr	a5
	.section	.rodata.xTaskGenericNotifyFromISR,"a",@progbits
	.align	2
	.align	2
.L806:
	.word	.L810
	.word	.L809
	.word	.L808
	.word	.L829
	.word	.L805
	.section	.text.xTaskGenericNotifyFromISR
.L805:
	.loc 1 5152 6
	.loc 1 5152 8 is_stmt 0
	li	a5,2
	.loc 1 5159 15
	li	a0,0
	.loc 1 5152 8
	beq	s2,a5,.L801
.L829:
	.loc 1 5154 7 is_stmt 1
	.loc 1 5154 30 is_stmt 0
	sw	a1,96(s1)
.L810:
	.loc 1 5176 4 is_stmt 1
	.loc 1 5180 4
	.loc 1 5180 6 is_stmt 0
	li	a5,1
	beq	s2,a5,.L812
.L830:
	li	a0,1
.L801:
	.loc 1 5220 2
	lw	ra,44(sp)
	.cfi_remember_state
	.cfi_restore 1
	lw	s0,40(sp)
	.cfi_restore 8
	lw	s1,36(sp)
	.cfi_restore 9
.LVL742:
	lw	s2,32(sp)
	.cfi_restore 18
.LVL743:
	lw	s3,28(sp)
	.cfi_restore 19
.LVL744:
	addi	sp,sp,48
	.cfi_def_cfa_offset 0
	jr	ra
.LVL745:
.L812:
	.cfi_restore_state
	.loc 1 5183 5 is_stmt 1
	.loc 1 5183 7 is_stmt 0
	lw	a5,40(s1)
	beq	a5,zero,.L813
	.loc 1 5183 13 is_stmt 1 discriminator 1
	li	a0,2
	call	vEnvironmentCall
.LVL746:
.L813:
	.loc 1 5185 5
	.loc 1 5185 30 is_stmt 0
	lui	a5,%hi(.LANCHOR14)
	lw	a5,%lo(.LANCHOR14)(a5)
	.loc 1 5185 7
	bne	a5,zero,.L814
	.loc 1 5187 6 is_stmt 1
	.loc 1 5187 15 is_stmt 0
	addi	s0,s1,4
	mv	a0,s0
	call	uxListRemove
.LVL747:
	.loc 1 5188 6 is_stmt 1
	.loc 1 5188 8
	.loc 1 5188 54 is_stmt 0
	lw	a2,44(s1)
	.loc 1 5188 31
	lui	a3,%hi(.LANCHOR2)
	addi	a3,a3,%lo(.LANCHOR2)
	lw	a1,0(a3)
	.loc 1 5188 72
	slli	a4,a2,2
	add	a4,a4,a2
	.loc 1 5188 40
	li	a5,1
	.loc 1 5188 72
	lui	a0,%hi(.LANCHOR9)
	.loc 1 5188 40
	sll	a5,a5,a2
	.loc 1 5188 72
	slli	a4,a4,2
	addi	a0,a0,%lo(.LANCHOR9)
	.loc 1 5188 31
	or	a5,a5,a1
	.loc 1 5188 72
	add	a0,a0,a4
	mv	a1,s0
	.loc 1 5188 31
	sw	a5,0(a3)
	.loc 1 5188 72 is_stmt 1
	call	vListInsertEnd
.LVL748:
	.loc 1 5188 171
.L815:
	.loc 1 5197 5
	.loc 1 5197 41 is_stmt 0
	lui	a5,%hi(.LANCHOR1)
	lw	a5,%lo(.LANCHOR1)(a5)
	.loc 1 5197 7
	lw	a4,44(s1)
	lw	a5,44(a5)
	bleu	a4,a5,.L830
	.loc 1 5201 6 is_stmt 1
	.loc 1 5201 8 is_stmt 0
	beq	s3,zero,.L817
	.loc 1 5203 7 is_stmt 1
	.loc 1 5203 34 is_stmt 0
	li	a5,1
	sw	a5,0(s3)
.L817:
	.loc 1 5209 6 is_stmt 1
	.loc 1 5209 20 is_stmt 0
	lui	a5,%hi(.LANCHOR8)
	li	a4,1
	sw	a4,%lo(.LANCHOR8)(a5)
	j	.L830
.L808:
	.loc 1 5144 6 is_stmt 1
	.loc 1 5144 13 is_stmt 0
	lw	a5,96(s1)
	.loc 1 5144 32
	addi	a5,a5,1
	sw	a5,96(s1)
	.loc 1 5145 6 is_stmt 1
	.loc 1 5176 4
	.loc 1 5180 4
	.loc 1 5180 6 is_stmt 0
	li	a5,1
	bne	s2,a5,.L830
	j	.L812
.L809:
	.loc 1 5140 6 is_stmt 1
	.loc 1 5140 29 is_stmt 0
	lw	a5,96(s1)
	or	a1,a5,a1
	sw	a1,96(s1)
	.loc 1 5141 6 is_stmt 1
	.loc 1 5176 4
	.loc 1 5180 4
	.loc 1 5180 6 is_stmt 0
	li	a5,1
	bne	s2,a5,.L830
	j	.L812
.LVL749:
.L831:
	.loc 1 5105 32 discriminator 1
	li	a0,2
	sw	a3,12(sp)
	sw	a2,8(sp)
	sw	a1,4(sp)
	.loc 1 5105 32 is_stmt 1 discriminator 1
	call	vEnvironmentCall
.LVL750:
	lw	a3,12(sp)
	lw	a2,8(sp)
	lw	a1,4(sp)
	j	.L802
.LVL751:
.L814:
	.loc 1 5194 6
	lui	a0,%hi(.LANCHOR17)
	addi	a1,s1,24
	addi	a0,a0,%lo(.LANCHOR17)
	call	vListInsertEnd
.LVL752:
	j	.L815
.L804:
	.loc 1 5172 6
	.loc 1 5172 17 is_stmt 0
	lw	a4,96(s1)
	.loc 1 5172 8
	li	a5,-1
	beq	a4,a5,.L810
	.loc 1 5172 52 is_stmt 1 discriminator 1
	li	a0,2
	call	vEnvironmentCall
.LVL753:
	j	.L810
	.cfi_endproc
.LFE74:
	.size	xTaskGenericNotifyFromISR, .-xTaskGenericNotifyFromISR
	.section	.text.vTaskNotifyGiveFromISR,"ax",@progbits
	.align	1
	.globl	vTaskNotifyGiveFromISR
	.type	vTaskNotifyGiveFromISR, @function
vTaskNotifyGiveFromISR:
.LFB75:
	.loc 1 5228 2
	.cfi_startproc
.LVL754:
	.loc 1 5229 2
	.loc 1 5230 2
	.loc 1 5231 2
	.loc 1 5233 3
	.loc 1 5228 2 is_stmt 0
	addi	sp,sp,-16
	.cfi_def_cfa_offset 16
	sw	s0,8(sp)
	sw	s1,4(sp)
	sw	ra,12(sp)
	sw	s2,0(sp)
	.cfi_offset 8, -8
	.cfi_offset 9, -12
	.cfi_offset 1, -4
	.cfi_offset 18, -16
	.loc 1 5228 2
	mv	s0,a0
	mv	s1,a1
	.loc 1 5233 5
	beq	a0,zero,.L848
.LVL755:
.L833:
	.loc 1 5251 3 is_stmt 1
	.loc 1 5253 3
	.loc 1 5255 3
	.loc 1 5257 4
	.loc 1 5258 25 is_stmt 0
	li	a4,2
	.loc 1 5257 26
	lbu	a5,100(s0)
	.loc 1 5258 25
	sb	a4,100(s0)
	.loc 1 5262 11
	lw	a4,96(s0)
	.loc 1 5257 26
	andi	a5,a5,0xff
.LVL756:
	.loc 1 5258 4 is_stmt 1
	.loc 1 5262 4
	.loc 1 5268 6 is_stmt 0
	li	a3,1
	.loc 1 5262 30
	addi	a4,a4,1
	sw	a4,96(s0)
	.loc 1 5264 4 is_stmt 1
	.loc 1 5268 4
	.loc 1 5268 6 is_stmt 0
	beq	a5,a3,.L849
.LVL757:
.L832:
	.loc 1 5306 2
	lw	ra,12(sp)
	.cfi_remember_state
	.cfi_restore 1
	lw	s0,8(sp)
	.cfi_restore 8
.LVL758:
	lw	s1,4(sp)
	.cfi_restore 9
.LVL759:
	lw	s2,0(sp)
	.cfi_restore 18
	addi	sp,sp,16
	.cfi_def_cfa_offset 0
	jr	ra
.LVL760:
.L849:
	.cfi_restore_state
	.loc 1 5271 5 is_stmt 1
	.loc 1 5271 7 is_stmt 0
	lw	a5,40(s0)
.LVL761:
	beq	a5,zero,.L836
	.loc 1 5271 13 is_stmt 1 discriminator 1
	li	a0,2
	call	vEnvironmentCall
.LVL762:
.L836:
	.loc 1 5273 5
	.loc 1 5273 30 is_stmt 0
	lui	a5,%hi(.LANCHOR14)
	lw	a5,%lo(.LANCHOR14)(a5)
	.loc 1 5273 7
	beq	a5,zero,.L850
	.loc 1 5282 6 is_stmt 1
	lui	a0,%hi(.LANCHOR17)
	addi	a1,s0,24
	addi	a0,a0,%lo(.LANCHOR17)
	call	vListInsertEnd
.LVL763:
.L838:
	.loc 1 5285 5
	.loc 1 5285 41 is_stmt 0
	lui	a5,%hi(.LANCHOR1)
	lw	a5,%lo(.LANCHOR1)(a5)
	.loc 1 5285 7
	lw	a4,44(s0)
	lw	a5,44(a5)
	bleu	a4,a5,.L832
	.loc 1 5289 6 is_stmt 1
	.loc 1 5289 8 is_stmt 0
	beq	s1,zero,.L840
	.loc 1 5291 7 is_stmt 1
	.loc 1 5291 34 is_stmt 0
	li	a5,1
	sw	a5,0(s1)
.L840:
	.loc 1 5297 6 is_stmt 1
	.loc 1 5306 2 is_stmt 0
	lw	ra,12(sp)
	.cfi_remember_state
	.cfi_restore 1
	lw	s0,8(sp)
	.cfi_restore 8
.LVL764:
	.loc 1 5297 20
	lui	a5,%hi(.LANCHOR8)
	li	a4,1
	sw	a4,%lo(.LANCHOR8)(a5)
	.loc 1 5301 6 is_stmt 1
	.loc 1 5305 3
	.loc 1 5306 2 is_stmt 0
	lw	s1,4(sp)
	.cfi_restore 9
.LVL765:
	lw	s2,0(sp)
	.cfi_restore 18
	addi	sp,sp,16
	.cfi_def_cfa_offset 0
	jr	ra
.LVL766:
.L850:
	.cfi_restore_state
	.loc 1 5275 6 is_stmt 1
	.loc 1 5275 15 is_stmt 0
	addi	s2,s0,4
	mv	a0,s2
	call	uxListRemove
.LVL767:
	.loc 1 5276 6 is_stmt 1
	.loc 1 5276 8
	.loc 1 5276 54 is_stmt 0
	lw	a2,44(s0)
	.loc 1 5276 31
	lui	a3,%hi(.LANCHOR2)
	addi	a3,a3,%lo(.LANCHOR2)
	lw	a1,0(a3)
	.loc 1 5276 72
	slli	a4,a2,2
	add	a4,a4,a2
	.loc 1 5276 40
	li	a5,1
	.loc 1 5276 72
	lui	a0,%hi(.LANCHOR9)
	.loc 1 5276 40
	sll	a5,a5,a2
	.loc 1 5276 72
	slli	a4,a4,2
	addi	a0,a0,%lo(.LANCHOR9)
	.loc 1 5276 31
	or	a5,a5,a1
	.loc 1 5276 72
	add	a0,a0,a4
	mv	a1,s2
	.loc 1 5276 31
	sw	a5,0(a3)
	.loc 1 5276 72 is_stmt 1
	call	vListInsertEnd
.LVL768:
	.loc 1 5276 171
	j	.L838
.LVL769:
.L848:
	.loc 1 5233 32 discriminator 1
	li	a0,2
	call	vEnvironmentCall
.LVL770:
	j	.L833
	.cfi_endproc
.LFE75:
	.size	vTaskNotifyGiveFromISR, .-vTaskNotifyGiveFromISR
	.section	.text.xTaskNotifyStateClear,"ax",@progbits
	.align	1
	.globl	xTaskNotifyStateClear
	.type	xTaskNotifyStateClear, @function
xTaskNotifyStateClear:
.LFB76:
	.loc 1 5315 2
	.cfi_startproc
.LVL771:
	.loc 1 5316 2
	.loc 1 5317 2
	.loc 1 5321 3
	.loc 1 5315 2 is_stmt 0
	mv	a5,a0
	.loc 1 5321 27
	beq	a0,zero,.L865
.LVL772:
.L852:
	.loc 1 5323 3 is_stmt 1 discriminator 4
.LBB560:
.LBB561:
	.loc 1 4490 3 discriminator 4
 #APP
# 4490 "/home/anh/Desktop/wb2/Ai-Thinker-WB2/components/platform/soc/bl602/freertos_riscv_ram/tasks.c" 1
	csrc mstatus, 8
# 0 "" 2
	.loc 1 4492 3 discriminator 4
	.loc 1 4492 25 is_stmt 0 discriminator 4
 #NO_APP
	lui	a4,%hi(.LANCHOR11)
	addi	a4,a4,%lo(.LANCHOR11)
	lw	a3,0(a4)
	.loc 1 4492 5 discriminator 4
	beq	a3,zero,.L853
.LBB562:
.LBB563:
	.loc 1 4494 4 is_stmt 1
	.loc 1 4494 18 is_stmt 0
	lui	a3,%hi(.LANCHOR1)
	addi	a3,a3,%lo(.LANCHOR1)
	lw	a2,0(a3)
	.loc 1 4502 20
	lw	a3,0(a3)
	.loc 1 4494 39
	lw	a3,68(a2)
	addi	a3,a3,1
	sw	a3,68(a2)
	.loc 1 4502 4 is_stmt 1
	.loc 1 4504 5
	.loc 1 4509 4
.L853:
.LBE563:
.LBE562:
	.loc 1 4509 4
.LBE561:
.LBE560:
	.loc 1 5325 4
	.loc 1 5325 13 is_stmt 0
	lbu	a3,100(a5)
	.loc 1 5325 6
	li	a2,2
	.loc 1 5332 13
	li	a0,0
	.loc 1 5325 13
	andi	a3,a3,0xff
	.loc 1 5325 6
	bne	a3,a2,.L854
	.loc 1 5327 5 is_stmt 1
	.loc 1 5327 26 is_stmt 0
	sb	zero,100(a5)
	.loc 1 5328 5 is_stmt 1
.LVL773:
	.loc 1 5328 13 is_stmt 0
	li	a0,1
.LVL774:
.L854:
	.loc 1 5335 3 is_stmt 1
.LBB564:
.LBB565:
	.loc 1 4520 3
	.loc 1 4520 25 is_stmt 0
	lw	a5,0(a4)
.LVL775:
	.loc 1 4520 5
	beq	a5,zero,.L851
	.loc 1 4522 4 is_stmt 1
	.loc 1 4522 20 is_stmt 0
	lui	a5,%hi(.LANCHOR1)
	addi	a5,a5,%lo(.LANCHOR1)
	lw	a4,0(a5)
	.loc 1 4522 6
	lw	a4,68(a4)
	beq	a4,zero,.L851
.LBB566:
.LBB567:
	.loc 1 4524 5 is_stmt 1
	.loc 1 4524 19 is_stmt 0
	lw	a4,0(a5)
	.loc 1 4526 21
	lw	a3,0(a5)
	.loc 1 4524 40
	lw	a5,68(a4)
	addi	a5,a5,-1
	sw	a5,68(a4)
	.loc 1 4526 5 is_stmt 1
	.loc 1 4526 7 is_stmt 0
	lw	a5,68(a3)
	bne	a5,zero,.L851
	.loc 1 4528 6 is_stmt 1
 #APP
# 4528 "/home/anh/Desktop/wb2/Ai-Thinker-WB2/components/platform/soc/bl602/freertos_riscv_ram/tasks.c" 1
	csrs mstatus, 8
# 0 "" 2
 #NO_APP
.LBE567:
.LBE566:
	.loc 1 4542 4
.LBE565:
.LBE564:
	.loc 1 5337 3
.L851:
	.loc 1 5338 2 is_stmt 0
	ret
.LVL776:
.L865:
	.loc 1 5321 27 discriminator 1
	lui	a5,%hi(.LANCHOR1)
	lw	a5,%lo(.LANCHOR1)(a5)
.LVL777:
	j	.L852
	.cfi_endproc
.LFE76:
	.size	xTaskNotifyStateClear, .-xTaskNotifyStateClear
	.globl	pxCurrentTCB
	.section	.bss.pxReadyTasksLists,"aw",@nobits
	.align	2
	.set	.LANCHOR9,. + 0
	.type	pxReadyTasksLists, @object
	.size	pxReadyTasksLists, 640
pxReadyTasksLists:
	.zero	640
	.section	.bss.xAllTaskList,"aw",@nobits
	.align	2
	.set	.LANCHOR7,. + 0
	.type	xAllTaskList, @object
	.size	xAllTaskList, 20
xAllTaskList:
	.zero	20
	.section	.bss.xDelayedTaskList1,"aw",@nobits
	.align	2
	.set	.LANCHOR18,. + 0
	.type	xDelayedTaskList1, @object
	.size	xDelayedTaskList1, 20
xDelayedTaskList1:
	.zero	20
	.section	.bss.xDelayedTaskList2,"aw",@nobits
	.align	2
	.set	.LANCHOR19,. + 0
	.type	xDelayedTaskList2, @object
	.size	xDelayedTaskList2, 20
xDelayedTaskList2:
	.zero	20
	.section	.bss.xPendingReadyList,"aw",@nobits
	.align	2
	.set	.LANCHOR17,. + 0
	.type	xPendingReadyList, @object
	.size	xPendingReadyList, 20
xPendingReadyList:
	.zero	20
	.section	.bss.xSuspendedTaskList,"aw",@nobits
	.align	2
	.set	.LANCHOR3,. + 0
	.type	xSuspendedTaskList, @object
	.size	xSuspendedTaskList, 20
xSuspendedTaskList:
	.zero	20
	.section	.bss.xTasksWaitingTermination,"aw",@nobits
	.align	2
	.set	.LANCHOR12,. + 0
	.type	xTasksWaitingTermination, @object
	.size	xTasksWaitingTermination, 20
xTasksWaitingTermination:
	.zero	20
	.section	.sbss.pxCurrentTCB,"aw",@nobits
	.align	2
	.set	.LANCHOR1,. + 0
	.type	pxCurrentTCB, @object
	.size	pxCurrentTCB, 4
pxCurrentTCB:
	.zero	4
	.section	.sbss.pxDelayedTaskList,"aw",@nobits
	.align	2
	.set	.LANCHOR5,. + 0
	.type	pxDelayedTaskList, @object
	.size	pxDelayedTaskList, 4
pxDelayedTaskList:
	.zero	4
	.section	.sbss.pxOverflowDelayedTaskList,"aw",@nobits
	.align	2
	.set	.LANCHOR4,. + 0
	.type	pxOverflowDelayedTaskList, @object
	.size	pxOverflowDelayedTaskList, 4
pxOverflowDelayedTaskList:
	.zero	4
	.section	.sbss.uxCurrentNumberOfTasks,"aw",@nobits
	.align	2
	.set	.LANCHOR13,. + 0
	.type	uxCurrentNumberOfTasks, @object
	.size	uxCurrentNumberOfTasks, 4
uxCurrentNumberOfTasks:
	.zero	4
	.section	.sbss.uxDeletedTasksWaitingCleanUp,"aw",@nobits
	.align	2
	.set	.LANCHOR10,. + 0
	.type	uxDeletedTasksWaitingCleanUp, @object
	.size	uxDeletedTasksWaitingCleanUp, 4
uxDeletedTasksWaitingCleanUp:
	.zero	4
	.section	.sbss.uxPendedTicks,"aw",@nobits
	.align	2
	.set	.LANCHOR16,. + 0
	.type	uxPendedTicks, @object
	.size	uxPendedTicks, 4
uxPendedTicks:
	.zero	4
	.section	.sbss.uxSchedulerSuspended,"aw",@nobits
	.align	2
	.set	.LANCHOR14,. + 0
	.type	uxSchedulerSuspended, @object
	.size	uxSchedulerSuspended, 4
uxSchedulerSuspended:
	.zero	4
	.section	.sbss.uxTaskNumber,"aw",@nobits
	.align	2
	.set	.LANCHOR20,. + 0
	.type	uxTaskNumber, @object
	.size	uxTaskNumber, 4
uxTaskNumber:
	.zero	4
	.section	.sbss.uxTopReadyPriority,"aw",@nobits
	.align	2
	.set	.LANCHOR2,. + 0
	.type	uxTopReadyPriority, @object
	.size	uxTopReadyPriority, 4
uxTopReadyPriority:
	.zero	4
	.section	.sbss.xNextTaskUnblockTime,"aw",@nobits
	.align	2
	.set	.LANCHOR6,. + 0
	.type	xNextTaskUnblockTime, @object
	.size	xNextTaskUnblockTime, 4
xNextTaskUnblockTime:
	.zero	4
	.section	.sbss.xNumOfOverflows,"aw",@nobits
	.align	2
	.set	.LANCHOR15,. + 0
	.type	xNumOfOverflows, @object
	.size	xNumOfOverflows, 4
xNumOfOverflows:
	.zero	4
	.section	.sbss.xSchedulerRunning,"aw",@nobits
	.align	2
	.set	.LANCHOR11,. + 0
	.type	xSchedulerRunning, @object
	.size	xSchedulerRunning, 4
xSchedulerRunning:
	.zero	4
	.section	.sbss.xTickCount,"aw",@nobits
	.align	2
	.set	.LANCHOR0,. + 0
	.type	xTickCount, @object
	.size	xTickCount, 4
xTickCount:
	.zero	4
	.section	.sbss.xYieldPending,"aw",@nobits
	.align	2
	.set	.LANCHOR8,. + 0
	.type	xYieldPending, @object
	.size	xYieldPending, 4
xYieldPending:
	.zero	4
	.section	.srodata.CSWTCH.248,"a"
	.align	2
	.set	.LANCHOR21,. + 0
	.type	CSWTCH.248, @object
	.size	CSWTCH.248, 5
CSWTCH.248:
	.byte	88
	.byte	82
	.byte	66
	.byte	83
	.byte	68
	.text
.Letext0:
	.file 2 "/home/anh/Desktop/wb2/Ai-Thinker-WB2/toolchain/riscv/Linux/lib/gcc/riscv64-unknown-elf/10.2.0/include/stddef.h"
	.file 3 "/home/anh/Desktop/wb2/Ai-Thinker-WB2/toolchain/riscv/Linux/lib/gcc/riscv64-unknown-elf/10.2.0/include/stdint-gcc.h"
	.file 4 "/home/anh/Desktop/wb2/Ai-Thinker-WB2/components/platform/soc/bl602/freertos_riscv_ram/config/projdefs.h"
	.file 5 "/home/anh/Desktop/wb2/Ai-Thinker-WB2/components/platform/soc/bl602/freertos_riscv_ram/portable/GCC/RISC-V/portmacro.h"
	.file 6 "/home/anh/Desktop/wb2/Ai-Thinker-WB2/components/platform/soc/bl602/freertos_riscv_ram/config/FreeRTOS.h"
	.file 7 "/home/anh/Desktop/wb2/Ai-Thinker-WB2/components/platform/soc/bl602/freertos_riscv_ram/config/list.h"
	.file 8 "/home/anh/Desktop/wb2/Ai-Thinker-WB2/components/platform/soc/bl602/freertos_riscv_ram/config/task.h"
	.file 9 "/home/anh/Desktop/wb2/Ai-Thinker-WB2/toolchain/riscv/Linux/riscv64-unknown-elf/include/string.h"
	.file 10 "/home/anh/Desktop/wb2/Ai-Thinker-WB2/components/platform/soc/bl602/freertos_riscv_ram/config/portable.h"
	.file 11 "/home/anh/Desktop/wb2/Ai-Thinker-WB2/toolchain/riscv/Linux/riscv64-unknown-elf/include/stdio.h"
	.file 12 "/home/anh/Desktop/wb2/Ai-Thinker-WB2/components/platform/soc/bl602/freertos_riscv_ram/config/timers.h"